Archive member included to satisfy reference by file (symbol)

..//addon/wlan/hostap/wpa_supplicant/libwpa_supplicant.a(wpasupplicant.o)
                              ..//VT100/build/TWlanLog.o (CWPASupplicant::IsConnected())
..//addon/wlan/hostap/wpa_supplicant/libwpa_supplicant.a(eloop_circle.o)
                              ..//addon/wlan/hostap/wpa_supplicant/libwpa_supplicant.a(wpasupplicant.o) (eloop_terminate)
..//addon/wlan/hostap/wpa_supplicant/libwpa_supplicant.a(os_circle.o)
                              ..//addon/wlan/hostap/wpa_supplicant/libwpa_supplicant.a(eloop_circle.o) (os_get_reltime)
..//addon/wlan/hostap/wpa_supplicant/libwpa_supplicant.a(main_circle.o)
                              ..//addon/wlan/hostap/wpa_supplicant/libwpa_supplicant.a(wpasupplicant.o) (wpa_supplicant_is_connected())
..//addon/wlan/hostap/wpa_supplicant/libwpa_supplicant.a(wpa_supplicant.o)
                              ..//addon/wlan/hostap/wpa_supplicant/libwpa_supplicant.a(main_circle.o) (wpa_supplicant_init)
..//addon/wlan/hostap/wpa_supplicant/libwpa_supplicant.a(wpas_glue.o)
                              ..//addon/wlan/hostap/wpa_supplicant/libwpa_supplicant.a(wpa_supplicant.o) (wpa_supplicant_init_eapol)
..//addon/wlan/hostap/wpa_supplicant/libwpa_supplicant.a(hw_features_common.o)
                              ..//addon/wlan/hostap/wpa_supplicant/libwpa_supplicant.a(wpa_supplicant.o) (hw_get_channel_chan)
..//addon/wlan/hostap/wpa_supplicant/libwpa_supplicant.a(ieee802_11_common.o)
                              ..//addon/wlan/hostap/wpa_supplicant/libwpa_supplicant.a(hw_features_common.o) (ieee802_11_parse_elems)
..//addon/wlan/hostap/wpa_supplicant/libwpa_supplicant.a(ptksa_cache.o)
                              ..//addon/wlan/hostap/wpa_supplicant/libwpa_supplicant.a(wpas_glue.o) (ptksa_cache_init)
..//addon/wlan/hostap/wpa_supplicant/libwpa_supplicant.a(wpa_common.o)
                              ..//addon/wlan/hostap/wpa_supplicant/libwpa_supplicant.a(wpa_supplicant.o) (wpa_default_rsn_cipher)
..//addon/wlan/hostap/wpa_supplicant/libwpa_supplicant.a(aes-omac1.o)
                              ..//addon/wlan/hostap/wpa_supplicant/libwpa_supplicant.a(wpa_common.o) (omac1_aes_128)
..//addon/wlan/hostap/wpa_supplicant/libwpa_supplicant.a(md5.o)
                              ..//addon/wlan/hostap/wpa_supplicant/libwpa_supplicant.a(wpa_common.o) (hmac_md5)
..//addon/wlan/hostap/wpa_supplicant/libwpa_supplicant.a(sha1-pbkdf2.o)
                              ..//addon/wlan/hostap/wpa_supplicant/libwpa_supplicant.a(wpa_supplicant.o) (pbkdf2_sha1)
..//addon/wlan/hostap/wpa_supplicant/libwpa_supplicant.a(sha1-prf.o)
                              ..//addon/wlan/hostap/wpa_supplicant/libwpa_supplicant.a(wpa_common.o) (sha1_prf)
..//addon/wlan/hostap/wpa_supplicant/libwpa_supplicant.a(sha1.o)
                              ..//addon/wlan/hostap/wpa_supplicant/libwpa_supplicant.a(wpa_common.o) (hmac_sha1_vector)
..//addon/wlan/hostap/wpa_supplicant/libwpa_supplicant.a(sha256-prf.o)
                              ..//addon/wlan/hostap/wpa_supplicant/libwpa_supplicant.a(wpa_common.o) (sha256_prf)
..//addon/wlan/hostap/wpa_supplicant/libwpa_supplicant.a(sha256.o)
                              ..//addon/wlan/hostap/wpa_supplicant/libwpa_supplicant.a(wpa_common.o) (hmac_sha256_vector)
..//addon/wlan/hostap/wpa_supplicant/libwpa_supplicant.a(driver_common.o)
                              ..//addon/wlan/hostap/wpa_supplicant/libwpa_supplicant.a(wpa_supplicant.o) (wpa_scan_results_free)
..//addon/wlan/hostap/wpa_supplicant/libwpa_supplicant.a(drivers.o)
                              ..//addon/wlan/hostap/wpa_supplicant/libwpa_supplicant.a(wpa_supplicant.o) (wpa_drivers)
..//addon/wlan/hostap/wpa_supplicant/libwpa_supplicant.a(eap_methods.o)
                              ..//addon/wlan/hostap/wpa_supplicant/libwpa_supplicant.a(wpa_supplicant.o) (eap_peer_unregister_methods)
..//addon/wlan/hostap/wpa_supplicant/libwpa_supplicant.a(eapol_supp_sm.o)
                              ..//addon/wlan/hostap/wpa_supplicant/libwpa_supplicant.a(wpa_supplicant.o) (eapol_sm_get_method_name)
..//addon/wlan/hostap/wpa_supplicant/libwpa_supplicant.a(l2_packet_circle.o)
                              ..//addon/wlan/hostap/wpa_supplicant/libwpa_supplicant.a(wpa_supplicant.o) (l2_packet_init)
..//addon/wlan/hostap/wpa_supplicant/libwpa_supplicant.a(pmksa_cache.o)
                              ..//addon/wlan/hostap/wpa_supplicant/libwpa_supplicant.a(wpas_glue.o) (pmksa_cache_get_current)
..//addon/wlan/hostap/wpa_supplicant/libwpa_supplicant.a(preauth.o)
                              ..//addon/wlan/hostap/wpa_supplicant/libwpa_supplicant.a(wpa_supplicant.o) (pmksa_candidate_free)
..//addon/wlan/hostap/wpa_supplicant/libwpa_supplicant.a(wpa.o)
                              ..//addon/wlan/hostap/wpa_supplicant/libwpa_supplicant.a(wpas_glue.o) (wpa_sm_aborted_cached)
..//addon/wlan/hostap/wpa_supplicant/libwpa_supplicant.a(wpa_ie.o)
                              ..//addon/wlan/hostap/wpa_supplicant/libwpa_supplicant.a(wpa_supplicant.o) (wpa_parse_wpa_ie)
..//addon/wlan/hostap/wpa_supplicant/libwpa_supplicant.a(common.o)
                              ..//addon/wlan/hostap/wpa_supplicant/libwpa_supplicant.a(ieee802_11_common.o) (hwaddr_aton)
..//addon/wlan/hostap/wpa_supplicant/libwpa_supplicant.a(wpa_debug_circle.o)
                              ..//addon/wlan/hostap/wpa_supplicant/libwpa_supplicant.a(wpa_supplicant.o) (wpa_debug_open_file)
..//addon/wlan/hostap/wpa_supplicant/libwpa_supplicant.a(wpabuf.o)
                              ..//addon/wlan/hostap/wpa_supplicant/libwpa_supplicant.a(ieee802_11_common.o) (wpabuf_resize)
..//addon/wlan/hostap/wpa_supplicant/libwpa_supplicant.a(bss.o)
                              ..//addon/wlan/hostap/wpa_supplicant/libwpa_supplicant.a(wpa_supplicant.o) (wpa_bss_flush_by_age)
..//addon/wlan/hostap/wpa_supplicant/libwpa_supplicant.a(bssid_ignore.o)
                              ..//addon/wlan/hostap/wpa_supplicant/libwpa_supplicant.a(wpa_supplicant.o) (wpa_bssid_ignore_del)
..//addon/wlan/hostap/wpa_supplicant/libwpa_supplicant.a(config.o)
                              ..//addon/wlan/hostap/wpa_supplicant/libwpa_supplicant.a(wpa_supplicant.o) (wpa_config_free)
..//addon/wlan/hostap/wpa_supplicant/libwpa_supplicant.a(config_file.o)
                              ..//addon/wlan/hostap/wpa_supplicant/libwpa_supplicant.a(wpa_supplicant.o) (wpa_config_read)
..//addon/wlan/hostap/wpa_supplicant/libwpa_supplicant.a(eap_register.o)
                              ..//addon/wlan/hostap/wpa_supplicant/libwpa_supplicant.a(wpa_supplicant.o) (eap_register_methods)
..//addon/wlan/hostap/wpa_supplicant/libwpa_supplicant.a(events.o)
                              ..//addon/wlan/hostap/wpa_supplicant/libwpa_supplicant.a(wpa_supplicant.o) (wpa_supplicant_stop_countermeasures)
..//addon/wlan/hostap/wpa_supplicant/libwpa_supplicant.a(notify.o)
                              ..//addon/wlan/hostap/wpa_supplicant/libwpa_supplicant.a(wpa_supplicant.o) (wpas_notify_supplicant_initialized)
..//addon/wlan/hostap/wpa_supplicant/libwpa_supplicant.a(op_classes.o)
                              ..//addon/wlan/hostap/wpa_supplicant/libwpa_supplicant.a(wpa_supplicant.o) (wpas_supp_op_class_ie)
..//addon/wlan/hostap/wpa_supplicant/libwpa_supplicant.a(rrm.o)
                              ..//addon/wlan/hostap/wpa_supplicant/libwpa_supplicant.a(wpa_supplicant.o) (wpas_rrm_reset)
..//addon/wlan/hostap/wpa_supplicant/libwpa_supplicant.a(scan.o)
                              ..//addon/wlan/hostap/wpa_supplicant/libwpa_supplicant.a(wpa_supplicant.o) (wpa_supplicant_enabled_networks)
..//addon/wlan/hostap/wpa_supplicant/libwpa_supplicant.a(aes-internal-enc.o)
                              ..//addon/wlan/hostap/wpa_supplicant/libwpa_supplicant.a(aes-omac1.o) (aes_encrypt_init)
..//addon/wlan/hostap/wpa_supplicant/libwpa_supplicant.a(aes-unwrap.o)
                              ..//addon/wlan/hostap/wpa_supplicant/libwpa_supplicant.a(wpa.o) (aes_unwrap)
..//addon/wlan/hostap/wpa_supplicant/libwpa_supplicant.a(md5-internal.o)
                              ..//addon/wlan/hostap/wpa_supplicant/libwpa_supplicant.a(md5.o) (md5_vector)
..//addon/wlan/hostap/wpa_supplicant/libwpa_supplicant.a(rc4.o)
                              ..//addon/wlan/hostap/wpa_supplicant/libwpa_supplicant.a(wpa.o) (rc4_skip)
..//addon/wlan/hostap/wpa_supplicant/libwpa_supplicant.a(sha1-internal.o)
                              ..//addon/wlan/hostap/wpa_supplicant/libwpa_supplicant.a(sha1.o) (sha1_vector)
..//addon/wlan/hostap/wpa_supplicant/libwpa_supplicant.a(sha256-internal.o)
                              ..//addon/wlan/hostap/wpa_supplicant/libwpa_supplicant.a(sha256.o) (sha256_vector)
..//addon/wlan/hostap/wpa_supplicant/libwpa_supplicant.a(driver_circle.o)
                              ..//addon/wlan/hostap/wpa_supplicant/libwpa_supplicant.a(drivers.o) (wpa_driver_circle_ops)
..//addon/wlan/hostap/wpa_supplicant/libwpa_supplicant.a(eap.o)
                              ..//addon/wlan/hostap/wpa_supplicant/libwpa_supplicant.a(eapol_supp_sm.o) (eap_peer_erp_free_keys)
..//addon/wlan/hostap/wpa_supplicant/libwpa_supplicant.a(base64.o)
                              ..//addon/wlan/hostap/wpa_supplicant/libwpa_supplicant.a(config_file.o) (base64_decode)
..//addon/wlan/hostap/wpa_supplicant/libwpa_supplicant.a(bitfield.o)
                              ..//addon/wlan/hostap/wpa_supplicant/libwpa_supplicant.a(rrm.o) (bitfield_alloc)
..//addon/wlan/hostap/wpa_supplicant/libwpa_supplicant.a(config.o)
                              ..//addon/wlan/hostap/wpa_supplicant/libwpa_supplicant.a(config_file.o) (wpa_config_get_line)
..//addon/wlan/hostap/wpa_supplicant/libwpa_supplicant.a(aes-internal.o)
                              ..//addon/wlan/hostap/wpa_supplicant/libwpa_supplicant.a(aes-internal-enc.o) (rijndaelKeySetupEnc)
..//addon/wlan/hostap/wpa_supplicant/libwpa_supplicant.a(aes-internal-dec.o)
                              ..//addon/wlan/hostap/wpa_supplicant/libwpa_supplicant.a(aes-unwrap.o) (aes_decrypt_init)
..//addon/wlan/hostap/wpa_supplicant/libwpa_supplicant.a(tls_none.o)
                              ..//addon/wlan/hostap/wpa_supplicant/libwpa_supplicant.a(eap.o) (tls_init)
..//addon/wlan/hostap/wpa_supplicant/libwpa_supplicant.a(eap_common.o)
                              ..//addon/wlan/hostap/wpa_supplicant/libwpa_supplicant.a(eap.o) (eap_hdr_len_valid)
..//addon/wlan/libwlan.a(bcm4343.o)
                              ..//VT100/build/kernel.o (CBcm4343Device::CBcm4343Device(char const*))
..//addon/wlan/libwlan.a(ether4330.o)
                              ..//addon/wlan/libwlan.a(bcm4343.o) (ether4330link)
..//addon/wlan/libwlan.a(emmc.o)
                              ..//addon/wlan/libwlan.a(ether4330.o) (sdiocardintr)
..//addon/wlan/libwlan.a(p9arch.o)
                              ..//addon/wlan/libwlan.a(ether4330.o) (gpiosel)
..//addon/wlan/libwlan.a(p9chan.o)
                              ..//addon/wlan/libwlan.a(ether4330.o) (cclose)
..//addon/wlan/libwlan.a(p9cmd.o)
                              ..//addon/wlan/libwlan.a(ether4330.o) (cmderror)
..//addon/wlan/libwlan.a(p9error.o)
                              ..//addon/wlan/libwlan.a(ether4330.o) (__p9error)
..//addon/wlan/libwlan.a(p9ether.o)
                              ..//addon/wlan/libwlan.a(bcm4343.o) (allocb)
..//addon/wlan/libwlan.a(p9proc.o)
                              ..//addon/wlan/libwlan.a(ether4330.o) (__p9lock)
..//addon/wlan/libwlan.a(p9util.o)
                              ..//addon/wlan/libwlan.a(ether4330.o) (__p9readstr)
..//lib/usb/libusb.a(usbkeyboard.o)
                              ..//VT100/build/TKeyboard.o (CUSBKeyboardDevice::RegisterKeyPressedHandler(void (*)(char const*)))
..//lib/usb/libusb.a(dwhcidevice.o)
                              ..//VT100/build/kernel.o (CDWHCIDevice::CDWHCIDevice(CInterruptSystem*, CTimer*, bool))
..//lib/usb/libusb.a(dwhciframeschednper.o)
                              ..//lib/usb/libusb.a(dwhcidevice.o) (CDWHCIFrameSchedulerNonPeriodic::InitProtectedAllocator(unsigned int, unsigned int))
..//lib/usb/libusb.a(dwhciframeschednsplit.o)
                              ..//lib/usb/libusb.a(dwhcidevice.o) (CDWHCIFrameSchedulerNoSplit::InitProtectedAllocator(unsigned int, unsigned int))
..//lib/usb/libusb.a(dwhciframeschedper.o)
                              ..//lib/usb/libusb.a(dwhcidevice.o) (CDWHCIFrameSchedulerPeriodic::InitProtectedAllocator(unsigned int, unsigned int))
..//lib/usb/libusb.a(dwhcirootport.o)
                              ..//lib/usb/libusb.a(dwhcidevice.o) (CDWHCIRootPort::~CDWHCIRootPort())
..//lib/usb/libusb.a(dwhcixactqueue.o)
                              ..//lib/usb/libusb.a(dwhcidevice.o) (CDWHCITransactionQueue::CDWHCITransactionQueue(unsigned int, unsigned int))
..//lib/usb/libusb.a(dwhcixferstagedata.o)
                              ..//lib/usb/libusb.a(dwhcidevice.o) (CDWHCITransferStageData::CDWHCITransferStageData(unsigned int, CUSBRequest*, bool, bool, unsigned int))
..//lib/usb/libusb.a(dwhciframeschediso.o)
                              ..//lib/usb/libusb.a(dwhcixferstagedata.o) (CDWHCIFrameSchedulerIsochronous::CDWHCIFrameSchedulerIsochronous(bool))
..//lib/usb/libusb.a(usbdevice.o)
                              ..//lib/usb/libusb.a(dwhcirootport.o) (CUSBDevice::CUSBDevice(CUSBHostController*, TUSBSpeed, CUSBHCIRootPort*))
..//lib/usb/libusb.a(usbdevicefactory.o)
                              ..//lib/usb/libusb.a(usbdevice.o) (CUSBDeviceFactory::GetDevice(CUSBFunction*, CString*))
..//lib/usb/libusb.a(usbendpoint.o)
                              ..//lib/usb/libusb.a(usbdevice.o) (CUSBEndpoint::CUSBEndpoint(CUSBDevice*))
..//lib/usb/libusb.a(usbfunction.o)
                              ..//lib/usb/libusb.a(usbkeyboard.o) (CUSBFunction::Initialize())
..//lib/usb/libusb.a(usbgamepadps3.o)
                              ..//lib/usb/libusb.a(usbdevicefactory.o) (CUSBGamePadPS3Device::CUSBGamePadPS3Device(CUSBFunction*))
..//lib/usb/libusb.a(usbgamepadps4.o)
                              ..//lib/usb/libusb.a(usbdevicefactory.o) (CUSBGamePadPS4Device::CUSBGamePadPS4Device(CUSBFunction*))
..//lib/usb/libusb.a(usbgamepadstandard.o)
                              ..//lib/usb/libusb.a(usbgamepadps3.o) (CUSBGamePadStandardDevice::~CUSBGamePadStandardDevice())
..//lib/usb/libusb.a(usbgamepadswitchpro.o)
                              ..//lib/usb/libusb.a(usbdevicefactory.o) (CUSBGamePadSwitchProDevice::CUSBGamePadSwitchProDevice(CUSBFunction*))
..//lib/usb/libusb.a(usbgamepadxbox360.o)
                              ..//lib/usb/libusb.a(usbdevicefactory.o) (CUSBGamePadXbox360Device::CUSBGamePadXbox360Device(CUSBFunction*))
..//lib/usb/libusb.a(usbgamepadxboxone.o)
                              ..//lib/usb/libusb.a(usbdevicefactory.o) (CUSBGamePadXboxOneDevice::CUSBGamePadXboxOneDevice(CUSBFunction*))
..//lib/usb/libusb.a(usbhiddevice.o)
                              ..//lib/usb/libusb.a(usbkeyboard.o) (CUSBHIDDevice::CUSBHIDDevice(CUSBFunction*, unsigned int))
..//lib/usb/libusb.a(usbhostcontroller.o)
                              ..//lib/usb/libusb.a(dwhcidevice.o) (CUSBHostController::UpdatePlugAndPlay())
..//lib/usb/libusb.a(usbmassdevice.o)
                              ..//lib/usb/libusb.a(usbdevicefactory.o) (CUSBBulkOnlyMassStorageDevice::CUSBBulkOnlyMassStorageDevice(CUSBFunction*))
..//lib/usb/libusb.a(usbmidihost.o)
                              ..//lib/usb/libusb.a(usbdevicefactory.o) (CUSBMIDIHostDevice::CUSBMIDIHostDevice(CUSBFunction*))
..//lib/usb/libusb.a(usbmouse.o)
                              ..//lib/usb/libusb.a(usbdevicefactory.o) (CUSBMouseDevice::CUSBMouseDevice(CUSBFunction*))
..//lib/usb/libusb.a(usbprinter.o)
                              ..//lib/usb/libusb.a(usbdevicefactory.o) (CUSBPrinterDevice::CUSBPrinterDevice(CUSBFunction*))
..//lib/usb/libusb.a(usbrequest.o)
                              ..//lib/usb/libusb.a(usbhiddevice.o) (CUSBRequest::CUSBRequest(CUSBEndpoint*, void*, unsigned int, TSetupData*))
..//lib/usb/libusb.a(usbstandardhub.o)
                              ..//lib/usb/libusb.a(usbdevicefactory.o) (CUSBStandardHub::CUSBStandardHub(CUSBFunction*))
..//lib/usb/libusb.a(usbstring.o)
                              ..//lib/usb/libusb.a(usbdevice.o) (CUSBString::CUSBString(CUSBDevice*))
..//lib/usb/libusb.a(usbserialch341.o)
                              ..//lib/usb/libusb.a(usbdevicefactory.o) (CUSBSerialCH341Device::CUSBSerialCH341Device(CUSBFunction*))
..//lib/usb/libusb.a(usbserialcp210x.o)
                              ..//lib/usb/libusb.a(usbdevicefactory.o) (CUSBSerialCP210xDevice::CUSBSerialCP210xDevice(CUSBFunction*))
..//lib/usb/libusb.a(usbserialpl2303.o)
                              ..//lib/usb/libusb.a(usbdevicefactory.o) (CUSBSerialPL2303Device::CUSBSerialPL2303Device(CUSBFunction*))
..//lib/usb/libusb.a(usbserialft231x.o)
                              ..//lib/usb/libusb.a(usbdevicefactory.o) (CUSBSerialFT231XDevice::CUSBSerialFT231XDevice(CUSBFunction*))
..//lib/usb/libusb.a(usbserialcdc.o)
                              ..//lib/usb/libusb.a(usbdevicefactory.o) (CUSBSerialCDCDevice::CUSBSerialCDCDevice(CUSBFunction*))
..//lib/usb/libusb.a(usbtouchscreen.o)
                              ..//lib/usb/libusb.a(usbdevicefactory.o) (CUSBTouchScreenDevice::CUSBTouchScreenDevice(CUSBFunction*))
..//lib/usb/libusb.a(dwhciregister.o)
                              ..//lib/usb/libusb.a(dwhcidevice.o) (CDWHCIRegister::CDWHCIRegister(unsigned int))
..//lib/usb/libusb.a(lan7800.o)
                              ..//lib/usb/libusb.a(usbdevicefactory.o) (CLAN7800Device::CLAN7800Device(CUSBFunction*))
..//lib/usb/libusb.a(smsc951x.o)
                              ..//lib/usb/libusb.a(usbdevicefactory.o) (CSMSC951xDevice::CSMSC951xDevice(CUSBFunction*))
..//lib/usb/libusb.a(usbbluetooth.o)
                              ..//lib/usb/libusb.a(usbdevicefactory.o) (CUSBBluetoothDevice::CUSBBluetoothDevice(CUSBFunction*))
..//lib/usb/libusb.a(usbcdcethernet.o)
                              ..//lib/usb/libusb.a(usbdevicefactory.o) (CUSBCDCEthernetDevice::CUSBCDCEthernetDevice(CUSBFunction*))
..//lib/usb/libusb.a(usbfloppydevice.o)
                              ..//lib/usb/libusb.a(usbdevicefactory.o) (CUSBFloppyDiskDevice::CUSBFloppyDiskDevice(CUSBFunction*))
..//lib/usb/libusb.a(usbconfigparser.o)
                              ..//lib/usb/libusb.a(usbdevice.o) (CUSBConfigurationParser::CUSBConfigurationParser(void const*, unsigned int))
..//lib/usb/libusb.a(usbgamepad.o)
                              ..//lib/usb/libusb.a(usbgamepadps3.o) (CUSBGamePadDevice::GetInitialState())
..//lib/usb/libusb.a(usbmidi.o)
                              ..//lib/usb/libusb.a(usbmidihost.o) (CUSBMIDIDevice::CUSBMIDIDevice())
..//lib/usb/libusb.a(usbserialhost.o)
                              ..//lib/usb/libusb.a(usbserialch341.o) (CUSBSerialHostDevice::~CUSBSerialHostDevice())
..//lib/usb/libusb.a(usbserial.o)
                              ..//lib/usb/libusb.a(usbserialhost.o) (CUSBSerialDevice::CUSBSerialDevice())
..//addon/fatfs/libfatfs.a(ff.o)
                              ..//VT100/build/kernel.o (f_mount)
..//addon/fatfs/libfatfs.a(diskio.o)
                              ..//addon/fatfs/libfatfs.a(ff.o) (disk_status)
..//addon/fatfs/libfatfs.a(ffsystem.o)
                              ..//addon/fatfs/libfatfs.a(ff.o) (ff_mutex_create)
..//addon/fatfs/libfatfs.a(ffunicode.o)
                              ..//addon/fatfs/libfatfs.a(ff.o) (ff_uni2oem)
..//addon/SDCard/libsdcard.a(emmc.o)
                              ..//VT100/build/kernel.o (CEMMCDevice::CEMMCDevice(CInterruptSystem*, CTimer*, CActLED*))
..//addon/SDCard/libsdcard.a(mmchost.o)
                              ..//addon/SDCard/libsdcard.a(emmc.o) (CMMCHost::SetClock(unsigned int))
..//addon/SDCard/libsdcard.a(sdhost.o)
                              ..//addon/SDCard/libsdcard.a(emmc.o) (CSDHOSTDevice::CSDHOSTDevice(CInterruptSystem*, CTimer*))
..//lib/input/libinput.a(keyboardbehaviour.o)
                              ..//lib/usb/libusb.a(usbkeyboard.o) (CKeyboardBehaviour::CKeyboardBehaviour())
..//lib/input/libinput.a(keymap.o)
                              ..//lib/input/libinput.a(keyboardbehaviour.o) (CKeyMap::CKeyMap())
..//lib/input/libinput.a(mouse.o)
                              ..//lib/usb/libusb.a(usbgamepadps4.o) (CMouseDevice::CMouseDevice(unsigned int, bool))
..//lib/input/libinput.a(touchscreen.o)
                              ..//lib/usb/libusb.a(usbtouchscreen.o) (CTouchScreenDevice::CTouchScreenDevice(void (*)(void*), void*))
..//lib/input/libinput.a(mousebehaviour.o)
                              ..//lib/input/libinput.a(mouse.o) (CMouseBehaviour::CMouseBehaviour())
..//lib/fs/libfs.a(partitionmanager.o)
                              ..//lib/usb/libusb.a(usbmassdevice.o) (CPartitionManager::CPartitionManager(CDevice*, char const*))
..//lib/fs/libfs.a(partition.o)
                              ..//lib/fs/libfs.a(partitionmanager.o) (CPartition::CPartition(CDevice*, unsigned int, unsigned int))
..//lib/net/libnet.a(netsubsystem.o)
                              ..//VT100/build/kernel.o (CNetSubSystem::CNetSubSystem(unsigned char const*, unsigned char const*, unsigned char const*, unsigned char const*, char const*, TNetDeviceType))
..//lib/net/libnet.a(nettask.o)
                              ..//lib/net/libnet.a(netsubsystem.o) (CNetTask::CNetTask(CNetSubSystem*))
..//lib/net/libnet.a(socket.o)
                              ..//VT100/build/TWlanLog.o (CSocket::Bind(unsigned short))
..//lib/net/libnet.a(transportlayer.o)
                              ..//lib/net/libnet.a(netsubsystem.o) (CTransportLayer::CTransportLayer(CNetConfig*, CNetworkLayer*))
..//lib/net/libnet.a(networklayer.o)
                              ..//lib/net/libnet.a(netsubsystem.o) (CNetworkLayer::CNetworkLayer(CNetConfig*, CLinkLayer*))
..//lib/net/libnet.a(linklayer.o)
                              ..//lib/net/libnet.a(netsubsystem.o) (CLinkLayer::CLinkLayer(CNetConfig*, CNetDeviceLayer*))
..//lib/net/libnet.a(netdevlayer.o)
                              ..//lib/net/libnet.a(netsubsystem.o) (CNetDeviceLayer::CNetDeviceLayer(CNetConfig*, TNetDeviceType))
..//lib/net/libnet.a(phytask.o)
                              ..//lib/net/libnet.a(netdevlayer.o) (CPHYTask::CPHYTask(CNetDevice*))
..//lib/net/libnet.a(arphandler.o)
                              ..//lib/net/libnet.a(linklayer.o) (CARPHandler::CARPHandler(CNetConfig*, CNetDeviceLayer*, CLinkLayer*, CNetQueue*))
..//lib/net/libnet.a(icmphandler.o)
                              ..//lib/net/libnet.a(networklayer.o) (CICMPHandler::CICMPHandler(CNetConfig*, CNetworkLayer*, CNetQueue*, CNetQueue*))
..//lib/net/libnet.a(igmphandler.o)
                              ..//lib/net/libnet.a(networklayer.o) (CIGMPHandler::CIGMPHandler(CNetConfig*, CNetworkLayer*, CLinkLayer*, CNetQueue*))
..//lib/net/libnet.a(routecache.o)
                              ..//lib/net/libnet.a(networklayer.o) (CRouteCache::CRouteCache())
..//lib/net/libnet.a(netconnection.o)
                              ..//lib/net/libnet.a(transportlayer.o) (CNetConnection::GetForeignIP() const)
..//lib/net/libnet.a(udpconnection.o)
                              ..//lib/net/libnet.a(transportlayer.o) (CUDPConnection::CUDPConnection(CNetConfig*, CNetworkLayer*, CIPAddress const&, unsigned short, unsigned short))
..//lib/net/libnet.a(tcpconnection.o)
                              ..//lib/net/libnet.a(transportlayer.o) (CTCPConnection::CTCPConnection(CNetConfig*, CNetworkLayer*, unsigned short))
..//lib/net/libnet.a(retransmissionqueue.o)
                              ..//lib/net/libnet.a(tcpconnection.o) (CRetransmissionQueue::CRetransmissionQueue(unsigned int))
..//lib/net/libnet.a(retranstimeoutcalc.o)
                              ..//lib/net/libnet.a(tcpconnection.o) (CRetransmissionTimeoutCalculator::CRetransmissionTimeoutCalculator())
..//lib/net/libnet.a(tcprejector.o)
                              ..//lib/net/libnet.a(transportlayer.o) (CTCPRejector::~CTCPRejector())
..//lib/net/libnet.a(netconfig.o)
                              ..//lib/net/libnet.a(netsubsystem.o) (CNetConfig::CNetConfig())
..//lib/net/libnet.a(ipaddress.o)
                              ..//VT100/build/TWlanLog.o (CIPAddress::CIPAddress())
..//lib/net/libnet.a(netqueue.o)
                              ..//addon/wlan/libwlan.a(bcm4343.o) (CNetQueue::CNetQueue())
..//lib/net/libnet.a(checksumcalculator.o)
                              ..//lib/net/libnet.a(netconnection.o) (CChecksumCalculator::CChecksumCalculator(CIPAddress const&, int))
..//lib/net/libnet.a(dhcpclient.o)
                              ..//lib/net/libnet.a(netsubsystem.o) (CDHCPClient::CDHCPClient(CNetSubSystem*, char const*))
..//lib/net/libnet.a(mdnsdaemon.o)
                              ..//VT100/build/kernel.o (CmDNSDaemon::IsRunning() const)
..//lib/net/libnet.a(netsocket.o)
                              ..//lib/net/libnet.a(socket.o) (CNetSocket::Connect(char const*, char const*))
..//lib/net/libnet.a(dnsclient.o)
                              ..//lib/net/libnet.a(netsocket.o) (CDNSClient::CDNSClient(CNetSubSystem*))
..//lib/sched/libsched.a(task.o)
                              ..//VT100/build/kernel.o (CTask::CTask(unsigned int, bool))
..//lib/sched/libsched.a(scheduler.o)
                              ..//VT100/build/kernel.o (CScheduler::CScheduler())
..//lib/sched/libsched.a(taskswitch.o)
                              ..//lib/sched/libsched.a(scheduler.o) (TaskSwitch)
..//lib/sched/libsched.a(synchronizationevent.o)
                              ..//addon/wlan/hostap/wpa_supplicant/libwpa_supplicant.a(wpasupplicant.o) (CSynchronizationEvent::CSynchronizationEvent(bool))
..//lib/libcircle.a(actled.o)
                              ..//addon/SDCard/libsdcard.a(emmc.o) (CActLED::On())
..//lib/libcircle.a(alloc.o)  ..//addon/wlan/hostap/wpa_supplicant/libwpa_supplicant.a(eloop_circle.o) (malloc)
..//lib/libcircle.a(assert.o)
                              ..//addon/wlan/hostap/wpa_supplicant/libwpa_supplicant.a(wpasupplicant.o) (assertion_failed)
..//lib/libcircle.a(display.o)
                              ..//VT100/build/TRenderer.o (CDisplay::GetColor(CDisplay::TColor) const)
..//lib/libcircle.a(bcmframebuffer.o)
                              ..//VT100/build/TRenderer.o (CBcmFrameBuffer::CBcmFrameBuffer(unsigned int, unsigned int, unsigned int, unsigned int, unsigned int, unsigned int, bool))
..//lib/libcircle.a(bcmpropertytags.o)
                              ..//lib/usb/libusb.a(dwhcidevice.o) (CBcmPropertyTags::CBcmPropertyTags(bool))
..//lib/libcircle.a(chargenerator.o)
                              ..//VT100/build/TRenderer.o (CCharGenerator::CCharGenerator(TFont const&, CCharGenerator::TFontFlags))
..//lib/libcircle.a(classallocator.o)
                              ..//lib/usb/libusb.a(dwhciframeschednper.o) (CClassAllocator::CClassAllocator(unsigned int, unsigned int, char const*))
..//lib/libcircle.a(debug.o)  ..//addon/wlan/hostap/wpa_supplicant/libwpa_supplicant.a(os_circle.o) (debug_hexdump(void const*, unsigned int, char const*))
..//lib/libcircle.a(device.o)
                              ..//VT100/build/TRenderer.o (CDevice::Read(void*, unsigned int))
..//lib/libcircle.a(devicenameservice.o)
                              ..//VT100/build/kernel.o (CDeviceNameService::CDeviceNameService())
..//lib/libcircle.a(dmachannel.o)
                              ..//addon/wlan/libwlan.a(p9arch.o) (CDMAChannel::CDMAChannel(unsigned int, CInterruptSystem*))
..//lib/libcircle.a(koptions.o)
                              ..//VT100/build/kernel.o (CKernelOptions::~CKernelOptions())
..//lib/libcircle.a(logger.o)
                              ..//VT100/build/kernel.o (CLogger::CLogger(unsigned int, CTimer*, bool))
..//lib/libcircle.a(machineinfo.o)
                              ..//lib/libcircle.a(logger.o) (CMachineInfo::GetMachineName() const)
..//lib/libcircle.a(nulldevice.o)
                              ..//VT100/build/kernel.o (CNullDevice::CNullDevice())
..//lib/libcircle.a(ptrarray.o)
                              ..//lib/net/libnet.a(transportlayer.o) (CPtrArray::CPtrArray(unsigned int, unsigned int))
..//lib/libcircle.a(ptrlist.o)
                              ..//lib/usb/libusb.a(usbhostcontroller.o) (CPtrList::CPtrList())
..//lib/libcircle.a(screen.o)
                              ..//VT100/build/kernel.o (CScreenDevice::~CScreenDevice())
..//lib/libcircle.a(serial.o)
                              ..//VT100/build/TUART.o (CSerialDevice::Read(void*, unsigned int))
..//lib/libcircle.a(string.o)
                              ..//VT100/build/kernel.o (CString::~CString())
..//lib/libcircle.a(sysinit.o)
                              ..//lib/usb/libusb.a(usbkeyboard.o) (__aeabi_atexit)
..//lib/libcircle.a(timer.o)  ..//VT100/build/kernel.o (CTimer::CTimer(CInterruptSystem*))
..//lib/libcircle.a(util.o)   ..//VT100/build/VT100_FontConverter.o (memmove)
..//lib/libcircle.a(util_fast.o)
                              ..//VT100/build/kernel.o (memset)
..//lib/libcircle.a(virtualgpiopin.o)
                              ..//lib/libcircle.a(actled.o) (CVirtualGPIOPin::Write(unsigned int))
..//lib/libcircle.a(chainboot.o)
                              ..//lib/libcircle.a(sysinit.o) (IsChainBootEnabled)
..//lib/libcircle.a(macaddress.o)
                              ..//addon/wlan/hostap/wpa_supplicant/libwpa_supplicant.a(l2_packet_circle.o) (CMACAddress::CMACAddress())
..//lib/libcircle.a(netdevice.o)
                              ..//addon/wlan/libwlan.a(bcm4343.o) (CNetDevice::AddNetDevice())
..//lib/libcircle.a(new.o)    ..//lib/libcircle.a(dmachannel.o) (operator new(unsigned int, int))
..//lib/libcircle.a(heapallocator.o)
                              ..//lib/libcircle.a(alloc.o) (CHeapAllocator::Allocate(unsigned int))
..//lib/libcircle.a(pageallocator.o)
                              ..//lib/libcircle.a(alloc.o) (CPageAllocator::Allocate())
..//lib/libcircle.a(setjmp.o)
                              ..//addon/wlan/libwlan.a(bcm4343.o) (setjmp)
..//lib/libcircle.a(numberpool.o)
                              ..//lib/usb/libusb.a(usbkeyboard.o) (CNumberPool::CNumberPool(unsigned int, unsigned int))
..//lib/libcircle.a(ptrlistfiq.o)
                              ..//lib/usb/libusb.a(dwhcixactqueue.o) (CPtrListFIQ::CPtrListFIQ(unsigned int))
..//lib/libcircle.a(font8x16.o)
                              ..//VT100/build/kernel.o (Font8x16)
..//lib/libcircle.a(exceptionhandler.o)
                              ..//VT100/build/kernel.o (CExceptionHandler::~CExceptionHandler())
..//lib/libcircle.a(exceptionstub.o)
                              ..//lib/libcircle.a(exceptionhandler.o) (PrefetchAbortStub)
..//lib/libcircle.a(memory.o)
                              ..//lib/libcircle.a(sysinit.o) (CMemorySystem::Destructor())
..//lib/libcircle.a(pagetable.o)
                              ..//lib/libcircle.a(memory.o) (CPageTable::CPageTable(unsigned int))
..//lib/libcircle.a(startup.o)
                              (_start)
..//lib/libcircle.a(synchronize.o)
                              ..//lib/usb/libusb.a(dwhcidevice.o) (CurrentExecutionLevel)
..//lib/libcircle.a(bcmrandom.o)
                              ..//addon/wlan/hostap/wpa_supplicant/libwpa_supplicant.a(os_circle.o) (CBcmRandomNumberGenerator::CBcmRandomNumberGenerator())
..//lib/libcircle.a(interrupt.o)
                              ..//VT100/build/kernel.o (CInterruptSystem::CInterruptSystem())
..//lib/libcircle.a(gpiopin.o)
                              ..//VT100/build/hal.o (CGPIOPin::~CGPIOPin())
..//lib/libcircle.a(usertimer.o)
                              ..//VT100/build/hal.o (CUserTimer::CUserTimer(CInterruptSystem*, void (*)(CUserTimer*, void*), void*, bool))
..//lib/libcircle.a(cxa_guard.o)
                              ..//VT100/build/TRenderer.o (__cxa_guard_acquire)
..//lib/libcircle.a(bcmmailbox.o)
                              ..//lib/libcircle.a(bcmpropertytags.o) (CBcmMailBox::CBcmMailBox(unsigned int, bool))
..//lib/libcircle.a(delayloop.o)
                              ..//lib/libcircle.a(timer.o) (DelayLoop)
..//lib/libcircle.a(terminal.o)
                              ..//lib/libcircle.a(screen.o) (CTerminalDevice::CTerminalDevice(CDisplay*, unsigned int, TFont const&, CCharGenerator::TFontFlags))
..//lib/libcircle.a(gpiomanager.o)
                              ..//lib/libcircle.a(gpiopin.o) (CGPIOManager::ConnectInterrupt(CGPIOPin*))
/Applications/ArmGNUToolchain/14.2.rel1/arm-none-eabi/bin/../lib/gcc/arm-none-eabi/14.2.1/arm/v5te/hard/libgcc.a(_udivsi3.o)
                              ..//VT100/build/TRenderer.o (__aeabi_uidiv)
/Applications/ArmGNUToolchain/14.2.rel1/arm-none-eabi/bin/../lib/gcc/arm-none-eabi/14.2.1/arm/v5te/hard/libgcc.a(_divsi3.o)
                              ..//addon/wlan/hostap/wpa_supplicant/libwpa_supplicant.a(rrm.o) (__aeabi_idiv)
/Applications/ArmGNUToolchain/14.2.rel1/arm-none-eabi/bin/../lib/gcc/arm-none-eabi/14.2.1/arm/v5te/hard/libgcc.a(_dvmd_tls.o)
                              /Applications/ArmGNUToolchain/14.2.rel1/arm-none-eabi/bin/../lib/gcc/arm-none-eabi/14.2.1/arm/v5te/hard/libgcc.a(_udivsi3.o) (__aeabi_idiv0)
/Applications/ArmGNUToolchain/14.2.rel1/arm-none-eabi/bin/../lib/gcc/arm-none-eabi/14.2.1/arm/v5te/hard/libgcc.a(_aeabi_uldivmod.o)
                              ..//VT100/build/TRenderer.o (__aeabi_uldivmod)
/Applications/ArmGNUToolchain/14.2.rel1/arm-none-eabi/bin/../lib/gcc/arm-none-eabi/14.2.1/arm/v5te/hard/libgcc.a(_udivmoddi4.o)
                              /Applications/ArmGNUToolchain/14.2.rel1/arm-none-eabi/bin/../lib/gcc/arm-none-eabi/14.2.1/arm/v5te/hard/libgcc.a(_aeabi_uldivmod.o) (__udivmoddi4)

Discarded input sections

 .group         0x00000000       0x14 ..//VT100/build/kernel.o
 .group         0x00000000        0xc ..//VT100/build/kernel.o
 .group         0x00000000        0xc ..//VT100/build/kernel.o
 .group         0x00000000       0x14 ..//VT100/build/TUART.o
 .group         0x00000000        0xc ..//VT100/build/TUART.o
 .group         0x00000000       0x14 ..//VT100/build/TSetup.o
 .group         0x00000000        0x8 ..//addon/wlan/libwlan.a(bcm4343.o)
 .group         0x00000000        0x8 ..//addon/wlan/libwlan.a(bcm4343.o)
 .group         0x00000000        0x8 ..//addon/wlan/libwlan.a(bcm4343.o)
 .group         0x00000000        0x8 ..//addon/wlan/libwlan.a(bcm4343.o)
 .group         0x00000000        0xc ..//addon/wlan/libwlan.a(p9proc.o)
 .group         0x00000000       0x14 ..//addon/wlan/libwlan.a(p9proc.o)
 .group         0x00000000        0xc ..//addon/wlan/libwlan.a(p9proc.o)
 .group         0x00000000        0x8 ..//lib/usb/libusb.a(usbdevice.o)
 .group         0x00000000        0x8 ..//lib/usb/libusb.a(usbgamepadps3.o)
 .group         0x00000000        0x8 ..//lib/usb/libusb.a(usbgamepadps3.o)
 .group         0x00000000        0x8 ..//lib/usb/libusb.a(usbgamepadps4.o)
 .group         0x00000000        0x8 ..//lib/usb/libusb.a(usbgamepadstandard.o)
 .group         0x00000000        0x8 ..//lib/usb/libusb.a(usbgamepadstandard.o)
 .group         0x00000000        0x8 ..//lib/usb/libusb.a(usbgamepadstandard.o)
 .group         0x00000000        0x8 ..//lib/usb/libusb.a(usbgamepadstandard.o)
 .text._ZN17CUSBGamePadDevice10SetLEDModeEjhh
                0x00000000        0x8 ..//lib/usb/libusb.a(usbgamepadstandard.o)
 .group         0x00000000        0x8 ..//lib/usb/libusb.a(usbgamepadswitchpro.o)
 .group         0x00000000        0x8 ..//lib/usb/libusb.a(usbgamepadswitchpro.o)
 .text._ZN17CUSBGamePadDevice10SetLEDModeEjhh
                0x00000000        0x8 ..//lib/usb/libusb.a(usbgamepadswitchpro.o)
 .group         0x00000000        0x8 ..//lib/usb/libusb.a(usbgamepadxbox360.o)
 .group         0x00000000        0x8 ..//lib/usb/libusb.a(usbgamepadxbox360.o)
 .text._ZN17CUSBGamePadDevice10SetLEDModeEjhh
                0x00000000        0x8 ..//lib/usb/libusb.a(usbgamepadxbox360.o)
 .group         0x00000000        0x8 ..//lib/usb/libusb.a(usbgamepadxboxone.o)
 .group         0x00000000        0x8 ..//lib/usb/libusb.a(usbgamepadxboxone.o)
 .group         0x00000000        0x8 ..//lib/usb/libusb.a(usbgamepadxboxone.o)
 .text._ZN17CUSBGamePadDevice10SetLEDModeE15TGamePadLEDMode
                0x00000000        0x8 ..//lib/usb/libusb.a(usbgamepadxboxone.o)
 .text._ZN17CUSBGamePadDevice10SetLEDModeEjhh
                0x00000000        0x8 ..//lib/usb/libusb.a(usbgamepadxboxone.o)
 .group         0x00000000        0x8 ..//lib/usb/libusb.a(usbhostcontroller.o)
 .text._ZN18CUSBHostController24CancelDeviceTransactionsEP10CUSBDevice
                0x00000000        0x4 ..//lib/usb/libusb.a(usbhostcontroller.o)
 .group         0x00000000        0x8 ..//lib/usb/libusb.a(lan7800.o)
 .group         0x00000000        0x8 ..//lib/usb/libusb.a(lan7800.o)
 .group         0x00000000        0x8 ..//lib/usb/libusb.a(lan7800.o)
 .text._ZN10CNetDevice20IsSendFrameAdvisableEv
                0x00000000        0x8 ..//lib/usb/libusb.a(lan7800.o)
 .text._ZN10CNetDevice9UpdatePHYEv
                0x00000000        0x8 ..//lib/usb/libusb.a(lan7800.o)
 .group         0x00000000        0x8 ..//lib/usb/libusb.a(smsc951x.o)
 .group         0x00000000        0x8 ..//lib/usb/libusb.a(smsc951x.o)
 .group         0x00000000        0x8 ..//lib/usb/libusb.a(smsc951x.o)
 .text._ZN10CNetDevice7GetTypeEv
                0x00000000        0x8 ..//lib/usb/libusb.a(smsc951x.o)
 .text._ZN10CNetDevice20IsSendFrameAdvisableEv
                0x00000000        0x8 ..//lib/usb/libusb.a(smsc951x.o)
 .text._ZN10CNetDevice9UpdatePHYEv
                0x00000000        0x8 ..//lib/usb/libusb.a(smsc951x.o)
 .group         0x00000000        0x8 ..//lib/usb/libusb.a(usbcdcethernet.o)
 .group         0x00000000        0x8 ..//lib/usb/libusb.a(usbcdcethernet.o)
 .group         0x00000000        0x8 ..//lib/usb/libusb.a(usbcdcethernet.o)
 .group         0x00000000        0x8 ..//lib/usb/libusb.a(usbcdcethernet.o)
 .group         0x00000000        0x8 ..//lib/usb/libusb.a(usbcdcethernet.o)
 .text._ZN10CNetDevice7GetTypeEv
                0x00000000        0x8 ..//lib/usb/libusb.a(usbcdcethernet.o)
 .text._ZN10CNetDevice20IsSendFrameAdvisableEv
                0x00000000        0x8 ..//lib/usb/libusb.a(usbcdcethernet.o)
 .text._ZN10CNetDevice12GetLinkSpeedEv
                0x00000000        0x8 ..//lib/usb/libusb.a(usbcdcethernet.o)
 .text._ZN10CNetDevice9UpdatePHYEv
                0x00000000        0x8 ..//lib/usb/libusb.a(usbcdcethernet.o)
 .group         0x00000000        0x8 ..//lib/usb/libusb.a(usbgamepad.o)
 .group         0x00000000        0x8 ..//lib/usb/libusb.a(usbgamepad.o)
 .group         0x00000000        0x8 ..//lib/usb/libusb.a(usbgamepad.o)
 .group         0x00000000        0x8 ..//lib/usb/libusb.a(usbgamepad.o)
 .text._ZN17CUSBGamePadDevice13GetPropertiesEv
                0x00000000        0x8 ..//lib/usb/libusb.a(usbgamepad.o)
 .text._ZN17CUSBGamePadDevice10SetLEDModeE15TGamePadLEDMode
                0x00000000        0x8 ..//lib/usb/libusb.a(usbgamepad.o)
 .text._ZN17CUSBGamePadDevice10SetLEDModeEjhh
                0x00000000        0x8 ..//lib/usb/libusb.a(usbgamepad.o)
 .text._ZN17CUSBGamePadDevice13SetRumbleModeE18TGamePadRumbleMode
                0x00000000        0x8 ..//lib/usb/libusb.a(usbgamepad.o)
 .group         0x00000000        0x8 ..//lib/net/libnet.a(transportlayer.o)
 .group         0x00000000        0x8 ..//lib/net/libnet.a(transportlayer.o)
 .group         0x00000000        0x8 ..//lib/net/libnet.a(transportlayer.o)
 .group         0x00000000        0x8 ..//lib/net/libnet.a(transportlayer.o)
 .group         0x00000000        0x8 ..//lib/net/libnet.a(transportlayer.o)
 .group         0x00000000        0x8 ..//lib/net/libnet.a(transportlayer.o)
 .group         0x00000000        0x8 ..//lib/net/libnet.a(transportlayer.o)
 .group         0x00000000        0x8 ..//lib/net/libnet.a(transportlayer.o)
 .group         0x00000000        0x8 ..//lib/net/libnet.a(transportlayer.o)
 .group         0x00000000        0x8 ..//lib/net/libnet.a(transportlayer.o)
 .group         0x00000000        0x8 ..//lib/net/libnet.a(transportlayer.o)
 .group         0x00000000        0x8 ..//lib/net/libnet.a(transportlayer.o)
 .group         0x00000000        0x8 ..//lib/net/libnet.a(transportlayer.o)
 .group         0x00000000        0x8 ..//lib/net/libnet.a(transportlayer.o)
 .group         0x00000000        0x8 ..//lib/net/libnet.a(netdevlayer.o)
 .group         0x00000000        0x8 ..//lib/net/libnet.a(netdevlayer.o)
 .group         0x00000000        0x8 ..//lib/net/libnet.a(netdevlayer.o)
 .group         0x00000000        0x8 ..//lib/net/libnet.a(netdevlayer.o)
 .text._ZN10CNetDevice20IsSendFrameAdvisableEv
                0x00000000        0x8 ..//lib/net/libnet.a(netdevlayer.o)
 .text._ZN10CNetDevice8IsLinkUpEv
                0x00000000        0x8 ..//lib/net/libnet.a(netdevlayer.o)
 .text._ZN10CNetDevice12GetLinkSpeedEv
                0x00000000        0x8 ..//lib/net/libnet.a(netdevlayer.o)
 .group         0x00000000        0x8 ..//lib/net/libnet.a(phytask.o)
 .text._ZN10CNetDevice9UpdatePHYEv
                0x00000000        0x8 ..//lib/net/libnet.a(phytask.o)
 .group         0x00000000        0x8 ..//lib/net/libnet.a(tcprejector.o)
 .group         0x00000000        0x8 ..//lib/net/libnet.a(tcprejector.o)
 .group         0x00000000        0x8 ..//lib/net/libnet.a(tcprejector.o)
 .group         0x00000000        0x8 ..//lib/net/libnet.a(tcprejector.o)
 .group         0x00000000        0x8 ..//lib/net/libnet.a(tcprejector.o)
 .group         0x00000000        0x8 ..//lib/net/libnet.a(tcprejector.o)
 .group         0x00000000        0x8 ..//lib/net/libnet.a(tcprejector.o)
 .group         0x00000000        0x8 ..//lib/net/libnet.a(tcprejector.o)
 .group         0x00000000        0x8 ..//lib/net/libnet.a(tcprejector.o)
 .group         0x00000000        0x8 ..//lib/net/libnet.a(tcprejector.o)
 .group         0x00000000        0x8 ..//lib/net/libnet.a(tcprejector.o)
 .group         0x00000000        0x8 ..//lib/net/libnet.a(tcprejector.o)
 .group         0x00000000        0x8 ..//lib/net/libnet.a(tcprejector.o)
 .group         0x00000000        0x8 ..//lib/net/libnet.a(tcprejector.o)
 .text._ZN12CTCPRejector7ConnectEv
                0x00000000        0x8 ..//lib/net/libnet.a(tcprejector.o)
 .text._ZN12CTCPRejector6AcceptEP10CIPAddressPt
                0x00000000        0x8 ..//lib/net/libnet.a(tcprejector.o)
 .text._ZN12CTCPRejector5CloseEv
                0x00000000        0x8 ..//lib/net/libnet.a(tcprejector.o)
 .text._ZN12CTCPRejector4SendEPKvji
                0x00000000        0x8 ..//lib/net/libnet.a(tcprejector.o)
 .text._ZN12CTCPRejector7ReceiveEPvi
                0x00000000        0x8 ..//lib/net/libnet.a(tcprejector.o)
 .text._ZN12CTCPRejector6SendToEPKvjiRK10CIPAddresst
                0x00000000        0x8 ..//lib/net/libnet.a(tcprejector.o)
 .text._ZN12CTCPRejector11ReceiveFromEPviP10CIPAddressPt
                0x00000000        0x8 ..//lib/net/libnet.a(tcprejector.o)
 .text._ZN12CTCPRejector18SetOptionBroadcastEb
                0x00000000        0x8 ..//lib/net/libnet.a(tcprejector.o)
 .text._ZN12CTCPRejector22SetOptionAddMembershipERK10CIPAddress
                0x00000000        0x8 ..//lib/net/libnet.a(tcprejector.o)
 .text._ZN12CTCPRejector23SetOptionDropMembershipERK10CIPAddress
                0x00000000        0x8 ..//lib/net/libnet.a(tcprejector.o)
 .text._ZNK12CTCPRejector11IsConnectedEv
                0x00000000        0x8 ..//lib/net/libnet.a(tcprejector.o)
 .text._ZNK12CTCPRejector12IsTerminatedEv
                0x00000000        0x8 ..//lib/net/libnet.a(tcprejector.o)
 .text._ZN12CTCPRejector7ProcessEv
                0x00000000        0x4 ..//lib/net/libnet.a(tcprejector.o)
 .text._ZN12CTCPRejector20NotificationReceivedE21TICMPNotificationTypeR10CIPAddressS2_tti
                0x00000000        0x8 ..//lib/net/libnet.a(tcprejector.o)
 .group         0x00000000        0x8 ..//lib/net/libnet.a(netsocket.o)
 .group         0x00000000        0x8 ..//lib/net/libnet.a(netsocket.o)
 .group         0x00000000        0x8 ..//lib/net/libnet.a(netsocket.o)
 .group         0x00000000        0x8 ..//lib/net/libnet.a(netsocket.o)
 .group         0x00000000        0x8 ..//lib/net/libnet.a(netsocket.o)
 .group         0x00000000        0x8 ..//lib/net/libnet.a(netsocket.o)
 .group         0x00000000        0x8 ..//lib/net/libnet.a(netsocket.o)
 .group         0x00000000        0x8 ..//lib/net/libnet.a(netsocket.o)
 .group         0x00000000        0x8 ..//lib/libcircle.a(netdevice.o)
 .text._ZN10CNetDevice7GetTypeEv
                0x00000000        0x8 ..//lib/libcircle.a(netdevice.o)

Memory Configuration

Name             Origin             Length             Attributes
*default*        0x00000000         0xffffffff

Linker script and memory map

Address of section .init set to 0x8000

.init           0x00008000       0x64
 *(.init)
 .init          0x00008000       0x64 ..//lib/libcircle.a(startup.o)
                0x00008000                _start

.text           0x00008068    0x9e17c
 *(.text*)
 .text          0x00008068        0x0 ..//VT100/build/main.o
 .text.startup  0x00008068       0x30 ..//VT100/build/main.o
                0x00008068                main
 .text          0x00008098     0x1374 ..//VT100/build/kernel.o
                0x000081c0                CKernel::CKernel()
                0x000081c0                CKernel::CKernel()
                0x000083f8                CKernel::Get()
                0x00008438                CKernel::IsLocalModeEnabled() const
                0x00008444                CKernel::ToggleLocalMode()
                0x000084c8                CKernel::EnsureSerialTaskStarted()
                0x000084fc                CKernel::ToggleSetupDialog()
                0x00008510                CKernel::ShowModernSetupDialog()
                0x00008524                CKernel::RunVTTestTick()
                0x00008538                CKernel::HandleVTTestKey(char const*)
                0x00008574                CKernel::initFilesystem()
                0x00008628                CKernel::IsTelnetReady() const
                0x00008634                CKernel::MarkTelnetReady()
                0x000086b0                CKernel::ApplyRuntimeConfig()
                0x0000878c                CKernel::SendHostOutput(char const*, unsigned int)
                0x000088c0                CKernel::HandleWlanHostRx(char const*, unsigned int)
                0x00008918                CKernel::ProcessSerial()
                0x000089d0                CKernel::MarkTelnetWaiting()
                0x00008a5c                CKernel::~CKernel()
                0x00008a5c                CKernel::~CKernel()
                0x00008b00                CKernel::Initialize()
                0x00009234                CKernel::Run()
 .text._ZN13CPeriodicTaskD2Ev
                0x0000940c       0x20 ..//VT100/build/kernel.o
                0x0000940c                CPeriodicTask::~CPeriodicTask()
                0x0000940c                CPeriodicTask::~CPeriodicTask()
 .text._ZN13CPeriodicTaskD0Ev
                0x0000942c       0x2c ..//VT100/build/kernel.o
                0x0000942c                CPeriodicTask::~CPeriodicTask()
 .text._ZN13CPeriodicTask3RunEv
                0x00009458       0xcc ..//VT100/build/kernel.o
                0x00009458                CPeriodicTask::Run()
 .text          0x00009524      0x79c ..//VT100/build/hal.o
                0x00009524                CHAL::UserTimerHandler(CUserTimer*, void*)
                0x000095b4                CHAL::Get()
                0x000095c4                CHAL::CHAL(CInterruptSystem*, CTimer*)
                0x000095c4                CHAL::CHAL(CInterruptSystem*, CTimer*)
                0x0000963c                CHAL::Initialize()
                0x000097cc                CHAL::StartBuzzer(unsigned int, unsigned int)
                0x000098fc                CHAL::BEEP()
                0x00009908                CHAL::Click()
                0x00009914                CHAL::StopBuzzer()
                0x00009940                CHAL::StopInternal(bool)
                0x0000996c                CHAL::Update()
                0x000099fc                CHAL::HandleTimerTick()
                0x00009a88                CHAL::ConfigureRxTxSwap(bool)
                0x00009b84                CHAL::SwitchRxTx()
                0x00009bcc                CHAL::ConfigureBuzzerVolume(unsigned int)
                0x00009c40                CHAL::~CHAL()
                0x00009c40                CHAL::~CHAL()
 .text          0x00009cc0      0x188 ..//VT100/build/TFontConverter.o
                0x00009cc0                CTFontConverter::~CTFontConverter()
                0x00009cc0                CTFontConverter::~CTFontConverter()
                0x00009ce0                CTFontConverter::~CTFontConverter()
                0x00009d0c                CTFontConverter::Run()
                0x00009d3c                CTFontConverter::Get()
                0x00009dac                CTFontConverter::CTFontConverter()
                0x00009dac                CTFontConverter::CTFontConverter()
                0x00009df4                CTFontConverter::Initialize()
                0x00009e44                CTFontConverter::GetFont(EFontSelection)
 .text          0x00009e48      0x508 ..//VT100/build/VT100_FontConverter.o
                0x00009f9c                ConvertVT100FontToCircle()
                0x0000a038                ConvertVT100FontToCircle_SolidDoubling()
                0x0000a0cc                ConvertVT100FontToCircle_8x20()
                0x0000a120                ConvertVT100GraphicsToCircle()
                0x0000a1c8                ConvertVT100GraphicsToCircle_SolidDoubling()
                0x0000a268                ConvertVT100GraphicsToCircle_8x20()
                0x0000a2cc                GetVT100Font(EFontSelection)
                0x0000a330                ConvertVT100Font()
 .text          0x0000a350     0x500c ..//VT100/build/TRenderer.o
                0x0000a350                CTRenderer::~CTRenderer()
                0x0000a350                CTRenderer::~CTRenderer()
                0x0000a454                non-virtual thunk to CTRenderer::~CTRenderer()
                0x0000a45c                CTRenderer::~CTRenderer()
                0x0000a558                non-virtual thunk to CTRenderer::~CTRenderer()
                0x0000a8b4                CTRenderer::CTRenderer()
                0x0000a8b4                CTRenderer::CTRenderer()
                0x0000aa48                CTRenderer::Get()
                0x0000aa84                CTRenderer::SetFont(TFont const&, CCharGenerator::TFontFlags)
                0x0000ad6c                CTRenderer::SetFont(EFontSelection, CCharGenerator::TFontFlags)
                0x0000ada4                CTRenderer::MapColor(EColorSelection)
                0x0000adc4                CTRenderer::SetColors(EColorSelection, EColorSelection)
                0x0000ae8c                CTRenderer::Goto(unsigned int, unsigned int)
                0x0000af78                CTRenderer::GetWidth() const
                0x0000af80                CTRenderer::GetHeight() const
                0x0000af88                CTRenderer::GetColumns() const
                0x0000afb0                CTRenderer::GetRows() const
                0x0000afd8                CTRenderer::GetCursorColumn() const
                0x0000b048                CTRenderer::GetCursorRow() const
                0x0000b0b8                CTRenderer::GetDisplay()
                0x0000b0c0                CTRenderer::SetColors(CDisplay::TColor, CDisplay::TColor)
                0x0000b134                CTRenderer::ResetParserState()
                0x0000b198                CTRenderer::AdjustBrightness(CDisplay::TColor, float)
                0x0000b204                CTRenderer::AdjustBrightness565(unsigned int, float)
                0x0000b4b0                CTRenderer::SetPixel(unsigned int, unsigned int, CDisplay::TColor)
                0x0000b598                CTRenderer::SetPixel(unsigned int, unsigned int, unsigned int)
                0x0000b64c                CTRenderer::GetPixel(unsigned int, unsigned int)
                0x0000b700                CTRenderer::SetCursorBlock(bool)
                0x0000b708                CTRenderer::SetBlinkingCursor(bool, unsigned int)
                0x0000b7b4                CTRenderer::Update()
                0x0000b948                CTRenderer::Run()
                0x0000bc70                non-virtual thunk to CTRenderer::Run()
                0x0000bc78                CTRenderer::BeginSmoothScrollAnimation(unsigned int, unsigned int, bool)
                0x0000bdd4                CTRenderer::RenderSmoothScrollFrame()
                0x0000bde4                CTRenderer::CarriageReturn()
                0x0000bdf0                CTRenderer::CursorHome()
                0x0000be04                CTRenderer::CursorLeft()
                0x0000be58                CTRenderer::CursorMove(unsigned int, unsigned int)
                0x0000be94                CTRenderer::CursorUp()
                0x0000beb4                CTRenderer::DeleteChars(unsigned int)
                0x0000c140                CTRenderer::DeleteLines(unsigned int)
                0x0000c334                CTRenderer::GetTextBackgroundColor()
                0x0000c354                CTRenderer::GetTextColor()
                0x0000c374                CTRenderer::InsertLines(unsigned int)
                0x0000c564                CTRenderer::InsertMode(bool)
                0x0000c56c                CTRenderer::SetSmoothScrollEnabled(bool)
                0x0000c57c                CTRenderer::ReverseScroll()
                0x0000c594                CTRenderer::SetAutoPageMode(bool)
                0x0000c59c                CTRenderer::SetBrightnessScaling(float, float, float)
                0x0000c5d8                CTRenderer::SetCursorMode(bool)
                0x0000c5e0                CTRenderer::SetVT52Mode(bool)
                0x0000c5e8                CTRenderer::ForceHideCursor()
                0x0000c644                CTRenderer::SetScrollRegion(unsigned int, unsigned int)
                0x0000c69c                CTRenderer::SetStandoutMode(unsigned int)
                0x0000c720                CTRenderer::BackTabulator()
                0x0000c7d8                CTRenderer::SaveCursor()
                0x0000c860                CTRenderer::RestoreCursor()
                0x0000c918                CTRenderer::Scroll()
                0x0000cadc                CTRenderer::CursorDown()
                0x0000cb38                CTRenderer::NewLine()
                0x0000cb9c                CTRenderer::CursorRight()
                0x0000cc1c                CTRenderer::Tabulator()
                0x0000cd40                CTRenderer::DisplayChar(char, unsigned int, unsigned int, unsigned int)
                0x0000d1e0                CTRenderer::DisplayChar(char)
                0x0000d37c                CTRenderer::EraseChar(unsigned int, unsigned int)
                0x0000d4c4                CTRenderer::ClearLineEnd()
                0x0000d5ec                CTRenderer::ClearDisplayEnd()
                0x0000d72c                CTRenderer::ClearDisplay()
                0x0000d73c                CTRenderer::Initialize()
                0x0000da34                CTRenderer::Write(char)
                0x0000e73c                CTRenderer::Write(void const*, unsigned int)
                0x0000e890                CTRenderer::EraseChars(unsigned int)
                0x0000e8e4                CTRenderer::InvertCursor()
                0x0000e8f4                CTRenderer::doRenderTest()
                0x0000ef0c                CTRenderer::SaveState(CTRenderer::TRendererState&)
                0x0000f028                CTRenderer::RestoreState(CTRenderer::TRendererState const&)
                0x0000f218                CTRenderer::GetBufferSize() const
                0x0000f220                CTRenderer::SaveScreenBuffer(void*, unsigned int)
                0x0000f284                CTRenderer::RestoreScreenBuffer(void const*, unsigned int)
 .text          0x0000f35c     0x2b28 ..//VT100/build/TConfig.o
                0x0000f35c                CTConfig::~CTConfig()
                0x0000f35c                CTConfig::~CTConfig()
                0x0000f37c                CTConfig::~CTConfig()
                0x0000f458                CTConfig::CTConfig()
                0x0000f458                CTConfig::CTConfig()
                0x0000f5b8                CTConfig::Get()
                0x0000f5f4                CTConfig::LoadDefaults()
                0x0000f6ac                CTConfig::Initialize()
                0x0000f6e4                CTConfig::IsTabStop(unsigned int) const
                0x0000f6f8                CTConfig::SetTabStop(unsigned int, bool)
                0x0000f708                CTConfig::InitDefaultTabStops(unsigned int)
                0x0000f76c                CTConfig::ParseConfigLine(char const*)
                0x0001016c                CTConfig::LoadConfigFromFile()
                0x0001059c                CTConfig::LoadFromFile()
                0x00010614                CTConfig::Run()
                0x00010668                CTConfig::SetBaudRate(unsigned int)
                0x000106a8                CTConfig::SetLineEndingMode(unsigned int)
                0x000106ec                CTConfig::SetCursorBlock(bool)
                0x00010738                CTConfig::SetCursorBlinking(bool)
                0x00010784                CTConfig::SetVTTestEnabled(bool)
                0x000107cc                CTConfig::SetVT52ModeEnabled(bool)
                0x00010814                CTConfig::SetLogOutput(unsigned int)
                0x00010858                CTConfig::ResolveLogOutputs(bool&, bool&, bool&) const
                0x00010918                CTConfig::logConfig() const
                0x00010dac                CTConfig::SetTextColor(EColorSelection)
                0x00010df4                CTConfig::SetBackgroundColor(EColorSelection)
                0x00010e38                CTConfig::SetLogFileName(char const*)
                0x00010ea8                CTConfig::SetFontSelection(EFontSelection)
                0x00010f10                CTConfig::SetBuzzerVolume(unsigned int)
                0x00010f58                CTConfig::SetKeyClick(bool)
                0x00010fa0                CTConfig::SetSwitchTxRx(bool)
                0x00010fec                CTConfig::SetWlanHostAutoStart(bool)
                0x00011034                CTConfig::SetKeyAutoRepeatEnabled(bool)
                0x0001107c                CTConfig::SetKeyRepeatDelayMs(unsigned int)
                0x000110cc                CTConfig::SetKeyRepeatRateCps(unsigned int)
                0x0001111c                CTConfig::SetScreenInverted(bool)
                0x00011168                CTConfig::SetSmoothScrollEnabled(bool)
                0x000111b4                CTConfig::SetWrapAroundEnabled(bool)
                0x000111fc                CTConfig::SetSerialDataBits(unsigned int)
                0x00011240                CTConfig::SetSerialParityMode(unsigned int)
                0x00011284                CTConfig::SetSoftwareFlowControl(bool)
                0x000112cc                CTConfig::SetMarginBellEnabled(bool)
                0x00011318                CTConfig::TrimWhitespace(char*)
                0x00011324                CTConfig::GetLineEndingModeString() const
                0x00011348                CTConfig::SaveToFile()
 .text          0x00011e84      0xdac ..//VT100/build/TKeyboard.o
                0x00011e84                CTKeyboard::~CTKeyboard()
                0x00011e84                CTKeyboard::~CTKeyboard()
                0x00011ed8                CTKeyboard::~CTKeyboard()
                0x00011f38                CTKeyboard::CTKeyboard()
                0x00011f38                CTKeyboard::CTKeyboard()
                0x00011ff8                CTKeyboard::Get()
                0x00012034                CTKeyboard::Configure(void (*)(char const*), void (*)(unsigned char, unsigned char const*), CDWHCIDevice*, unsigned int, unsigned int)
                0x00012068                CTKeyboard::SetKeyPressedHandler(void (*)(char const*))
                0x00012070                CTKeyboard::SetKeyStatusHandlerRaw(void (*)(unsigned char, unsigned char const*))
                0x00012078                CTKeyboard::GetKeyPressedHandler() const
                0x00012080                CTKeyboard::GetKeyStatusHandlerRaw() const
                0x00012088                CTKeyboard::UpdateLEDs()
                0x0001209c                CTKeyboard::IsKeyboardConnected() const
                0x000120ac                CTKeyboard::OnConfigUpdated()
                0x000120e4                CTKeyboard::OnKeyboardRemoved()
                0x0001214c                CTKeyboard::KeyboardRemovedHandler(CDevice*, void*)
                0x00012190                CTKeyboard::ShouldQueueAutoRepeat(char const*) const
                0x00012298                CTKeyboard::QueueAutoRepeat(char const*)
                0x000123c8                CTKeyboard::TryActivateAutoRepeat()
                0x00012420                CTKeyboard::StopAutoRepeat()
                0x00012458                CTKeyboard::HandleRawKeyStatus(unsigned char, unsigned char const*)
                0x000125f0                CTKeyboard::KeyStatusTrampoline(unsigned char, unsigned char const*)
                0x00012648                CTKeyboard::HandleKeyPressed(char const*, bool)
                0x0001291c                CTKeyboard::KeyPressedTrampoline(char const*)
                0x00012970                CTKeyboard::ServiceAutoRepeat()
                0x00012a6c                CTKeyboard::UpdateKeyboard(bool)
                0x00012b58                CTKeyboard::Initialize()
                0x00012bc4                CTKeyboard::Run()
 .text          0x00012c30      0x4e8 ..//VT100/build/TUART.o
                0x00012c30                CTUART::~CTUART()
                0x00012c30                CTUART::~CTUART()
                0x00012c50                CTUART::~CTUART()
                0x00012c7c                CTUART::Run()
                0x00012ca8                CTUART::CTUART()
                0x00012ca8                CTUART::CTUART()
                0x00012d1c                CTUART::Get()
                0x00012d58                CTUART::Initialize(CInterruptSystem*, void (*)(char const*, unsigned int))
                0x00012f28                CTUART::EnsureStarted()
                0x00012fd8                CTUART::SuspendTask()
                0x00013018                CTUART::Send(char const*, unsigned int)
                0x00013030                CTUART::DrainSerialInput(char*, unsigned int)
 .text._ZN6CTUART23CSerialDeviceWithAccessD2Ev
                0x00013118       0x20 ..//VT100/build/TUART.o
                0x00013118                CTUART::CSerialDeviceWithAccess::~CSerialDeviceWithAccess()
                0x00013118                CTUART::CSerialDeviceWithAccess::~CSerialDeviceWithAccess()
 .text._ZN6CTUART23CSerialDeviceWithAccessD0Ev
                0x00013138       0x30 ..//VT100/build/TUART.o
                0x00013138                CTUART::CSerialDeviceWithAccess::~CSerialDeviceWithAccess()
 .text          0x00013168      0x648 ..//VT100/build/TFileLog.o
                0x00013168                CTFileLog::Write(void const*, unsigned int)
                0x00013280                CTFileLog::Get()
                0x000132f0                CTFileLog::CTFileLog()
                0x000132f0                CTFileLog::CTFileLog()
                0x00013338                CTFileLog::SetFallback(CDevice*)
                0x00013340                CTFileLog::Start()
                0x00013390                CTFileLog::Stop()
                0x00013400                CTFileLog::OpenFile(char const*)
                0x00013444                CTFileLog::CloseFile()
                0x00013494                CTFileLog::Flush()
                0x000134cc                CTFileLog::~CTFileLog()
                0x000134cc                CTFileLog::~CTFileLog()
                0x000135b4                CTFileLog::~CTFileLog()
                0x0001368c                CTFileLog::WriteHeader()
                0x0001369c                CTFileLog::Initialize(CLogger&, char const*, CDevice*)
 .text          0x000137b0     0x1c48 ..//VT100/build/TWlanLog.o
                0x0001381c                CTWlanLog::CTWlanLog()
                0x0001381c                CTWlanLog::CTWlanLog()
                0x000138b8                CTWlanLog::Get()
                0x000138f4                CTWlanLog::SetFallback(CDevice*)
                0x000138fc                CTWlanLog::Start()
                0x00013990                CTWlanLog::Initialize(CBcm4343Device&, CNetSubSystem&, CWPASupplicant&, CLogger&, unsigned int, CDevice*)
                0x00013b2c                CTWlanLog::Stop()
                0x00013b8c                CTWlanLog::IsClientConnected() const
                0x00013bdc                CTWlanLog::IsHostModeActive() const
                0x00013be4                CTWlanLog::CloseClient(char const*, bool)
                0x00013e68                CTWlanLog::Send(char const*, unsigned int)
                0x00013f08                CTWlanLog::Write(void const*, unsigned int)
                0x00013f5c                CTWlanLog::SendHostData(char const*, unsigned int)
                0x00013fdc                CTWlanLog::HandleTelnetByte(unsigned char)
                0x000140f8                CTWlanLog::SendTelnetCommand(unsigned char, unsigned char)
                0x0001412c                CTWlanLog::SendTelnetNegotiation()
                0x0001413c                CTWlanLog::ResetConnectionState()
                0x00014170                CTWlanLog::~CTWlanLog()
                0x00014170                CTWlanLog::~CTWlanLog()
                0x000141ec                non-virtual thunk to CTWlanLog::~CTWlanLog()
                0x000141f4                CTWlanLog::~CTWlanLog()
                0x00014214                non-virtual thunk to CTWlanLog::~CTWlanLog()
                0x0001429c                CTWlanLog::SendLine(char const*)
                0x000146fc                CTWlanLog::ProcessLine(char const*)
                0x00014720                CTWlanLog::HandleCommandChar(char)
                0x00014900                CTWlanLog::HandleIncomingByte(unsigned char)
                0x000149a8                CTWlanLog::HandleIncomingData()
                0x00014b0c                CTWlanLog::AnnounceConnection(CIPAddress const&, unsigned short)
                0x00014bd8                CTWlanLog::AcceptClient()
                0x00014d78                CTWlanLog::EnsureListenSocket()
                0x000153bc                CTWlanLog::Run()
                0x000153d8                non-virtual thunk to CTWlanLog::Run()
 .text          0x000153f8     0x2f40 ..//VT100/build/TSetup.o
                0x000153f8                CTSetup::CTSetup()
                0x000153f8                CTSetup::CTSetup()
                0x000154d8                CTSetup::Get()
                0x00015514                CTSetup::Initialize(CTRenderer*, CTConfig*, CTKeyboard*)
                0x00015528                CTSetup::IsVisible() const
                0x00015530                CTSetup::Hide()
                0x000155d8                CTSetup::RenderHeader(char const*, unsigned int)
                0x00015820                CTSetup::RenderPageA()
                0x00015b5c                CTSetup::InitializeSetupBFromConfig()
                0x00015c8c                CTSetup::ApplySetupBToConfig()
                0x00015da4                CTSetup::MoveSetupBFieldLeft()
                0x00015e20                CTSetup::MoveSetupBFieldRight()
                0x00015e7c                CTSetup::ChangeSetupBSpeed(bool)
                0x00015f28                CTSetup::ToggleSetupBFieldBit(bool)
                0x00015f80                CTSetup::GetSetupBSpeedFieldPosition(CTSetup::TSetupBField, unsigned int&, unsigned int&) const
                0x00016050                CTSetup::InitializeModernFromConfig()
                0x000161b4                CTSetup::ApplyModernToConfig()
                0x000162b8                CTSetup::Run()
                0x00016408                CTSetup::ComputeModernLayout(CTSetup::TModernLayoutState&) const
                0x000164cc                CTSetup::MoveModernSelection(int)
                0x00016514                CTSetup::ChangeModernValue(int)
                0x00016904                CTSetup::UpdateTabCursor()
                0x00016938                CTSetup::UpdateTabCell()
                0x000169f8                CTSetup::RenderPageB()
                0x00017360                CTSetup::FormatModernValue(CTSetup::TModernField, char*, unsigned int) const
                0x00017370                CTSetup::RenderModernFieldRow(CTSetup::TModernLayoutState const&, unsigned int, bool, CDisplay::TColor const&, CDisplay::TColor const&)
                0x000174d0                CTSetup::RenderModernFieldRows(CTSetup::TModernLayoutState const&, CDisplay::TColor const&, CDisplay::TColor const&)
                0x000175ec                CTSetup::RenderModernSelectionDelta(CTSetup::TModernField, unsigned int)
                0x00017778                CTSetup::RenderModernValueDelta()
                0x000178a4                CTSetup::RenderModernDialog()
                0x00017df0                CTSetup::Render()
                0x00017e20                CTSetup::HandleModernKeyPress(char const*)
                0x00017fbc                CTSetup::OnKeyPressed(char const*)
                0x00017ff0                CTSetup::KeyPressedHandler(char const*)
                0x00018070                CTSetup::Show()
                0x00018188                CTSetup::Toggle()
                0x0001819c                CTSetup::ShowModern()
                0x000181fc                CTSetup::OnRawKeyStatus(unsigned char, unsigned char const*)
                0x000182e0                CTSetup::KeyStatusHandlerRaw(unsigned char, unsigned char const*)
 .text._ZN7CTSetupD2Ev
                0x00018338       0x20 ..//VT100/build/TSetup.o
                0x00018338                CTSetup::~CTSetup()
                0x00018338                CTSetup::~CTSetup()
 .text._ZN7CTSetupD0Ev
                0x00018358       0x2c ..//VT100/build/TSetup.o
                0x00018358                CTSetup::~CTSetup()
 .text          0x00018384     0x25c8 ..//VT100/build/VTTest.o
                0x00018384                CVTTest::CVTTest()
                0x00018384                CVTTest::CVTTest()
                0x00018454                CVTTest::Initialize(CTRenderer*)
                0x0001845c                CVTTest::IsActive() const
                0x00018464                CVTTest::StartBoundaryAnimation(bool, bool)
                0x000187a4                CVTTest::ShowPrompt()
                0x000187f4                CVTTest::ServiceBoundaryAnimation(unsigned int)
                0x00018900                CVTTest::LogSummary()
                0x00018a80                CVTTest::StartSuite(unsigned int)
                0x00018bf0                CVTTest::Start()
                0x00018d44                CVTTest::OnKeyPress(char const*)
                0x00018fd0                CVTTest::Stop()
                0x000191b4                CVTTest::ShowIntro()
                0x000192cc                CVTTest::ShowSummary()
                0x00019ac4                CVTTest::DrawTestFrame(CVTTest::TVTTestStep const&)
                0x00019d54                CVTTest::RunStep(CVTTest::TVTTestStep const&)
                0x0001a348                CVTTest::Tick()
                0x0001a7bc                CVTTest::ShowHint(CVTTest::TVTTestStep const&, bool)
 .text          0x0001a94c      0x104 ..//addon/wlan/hostap/wpa_supplicant/libwpa_supplicant.a(wpasupplicant.o)
                0x0001a94c                CWPASupplicant::IsConnected()
                0x0001a960                CWPASupplicant::ProcEntry(void*)
                0x0001a998                CWPASupplicant::CWPASupplicant(char const*)
                0x0001a998                CWPASupplicant::CWPASupplicant(char const*)
                0x0001a9c4                CWPASupplicant::Initialize()
                0x0001aa20                CWPASupplicant::~CWPASupplicant()
                0x0001aa20                CWPASupplicant::~CWPASupplicant()
 .text          0x0001aa50      0x704 ..//addon/wlan/hostap/wpa_supplicant/libwpa_supplicant.a(eloop_circle.o)
                0x0001aa50                eloop_init
                0x0001aa70                eloop_register_read_sock
                0x0001aaf0                eloop_unregister_read_sock
                0x0001ab94                eloop_sock_requeue
                0x0001ab9c                eloop_register_timeout
                0x0001acc0                eloop_cancel_timeout
                0x0001ad9c                eloop_cancel_timeout_one
                0x0001aeb0                eloop_deplete_timeout
                0x0001afa4                eloop_is_timeout_registered
                0x0001affc                eloop_register_signal_terminate
                0x0001b004                eloop_register_signal_reconfig
                0x0001b00c                eloop_run
                0x0001b108                eloop_terminate
                0x0001b11c                eloop_destroy
 .text          0x0001b154      0x73c ..//addon/wlan/hostap/wpa_supplicant/libwpa_supplicant.a(os_circle.o)
                0x0001b154                __wpa_abs
                0x0001b160                __wpa_isblank
                0x0001b174                __wpa_isprint
                0x0001b188                __wpa_isspace
                0x0001b1c4                __wpa_strrchr
                0x0001b204                __wpa_strdup
                0x0001b244                __wpa_strtol
                0x0001b248                __wpa_sscanf
                0x0001b258                __wpa_qsort
                0x0001b398                __wpa_abort
                0x0001b3a0                os_daemonize
                0x0001b3a8                os_daemonize_terminate
                0x0001b3c4                os_get_random
                0x0001b488                os_random
                0x0001b4b4                os_rel2abs_path
                0x0001b4f8                os_get_time
                0x0001b528                os_get_reltime
                0x0001b558                os_sleep
                0x0001b598                os_strlcpy
                0x0001b5e0                os_memcmp_const
                0x0001b628                os_memdup
                0x0001b668                os_zalloc
                0x0001b6ac                os_hexdump
                0x0001b6c0                __wpa_vsnprintf
                0x0001b748                __wpa_snprintf
                0x0001b774                __wpa_vprintf
                0x0001b864                __wpa_printf
 .text          0x0001b890       0xe8 ..//addon/wlan/hostap/wpa_supplicant/libwpa_supplicant.a(main_circle.o)
                0x0001b890                wpa_supplicant_is_connected()
                0x0001b8c0                wpa_supplicant_main(char const*)
 .text          0x0001b978     0xa628 ..//addon/wlan/hostap/wpa_supplicant/libwpa_supplicant.a(wpa_supplicant.o)
                0x0001be00                wpas_clear_disabled_interface
                0x0001c0b8                wpa_supplicant_set_wpa_none_key
                0x0001c260                wpa_supplicant_req_auth_timeout
                0x0001c2e8                wpas_auth_timeout_restart
                0x0001c36c                wpa_supplicant_cancel_auth_timeout
                0x0001c3bc                wpa_supplicant_initiate_eapol
                0x0001c4b8                wpa_supplicant_set_non_wpa_policy
                0x0001c5e4                free_hw_features
                0x0001c5f4                free_bss_tmp_disallowed
                0x0001c658                wpas_flush_fils_hlp_req
                0x0001c6b4                wpa_clear_keys
                0x0001c8b4                wpa_supplicant_state_txt
                0x0001c8d0                wpa_supplicant_reinit_autoscan
                0x0001c8d4                wpa_supplicant_terminate_proc
                0x0001c8d8                wpas_set_mgmt_group_cipher
                0x0001caa8                wpas_build_ext_capab
                0x0001cbdc                wpas_valid_bss_ssid
                0x0001cc4c                wpas_connect_work_free
                0x0001cc58                wpa_s_setup_sae_pt
                0x0001cc5c                wpa_s_clear_sae_rejected
                0x0001cc60                ibss_mesh_setup_freq
                0x0001d668                wpa_is_non_eht_scs_traffic_desc_supported
                0x0001d6cc                wpa_supplicant_add_network
                0x0001d708                wpa_supplicant_enable_network
                0x0001d8dc                wpas_set_pkcs11_engine_and_module_path
                0x0001d9c0                wpa_supplicant_set_ap_scan
                0x0001da34                wpa_supplicant_set_bss_expiration_age
                0x0001da88                wpa_supplicant_set_bss_expiration_count
                0x0001dad8                wpa_supplicant_set_scan_interval
                0x0001db2c                wpa_supplicant_set_debug_params
                0x0001dbc0                wpa_supplicant_get_ssid
                0x0001dd98                wpa_supplicant_rx_eapol
                0x0001e22c                wpa_supplicant_update_mac_addr
                0x0001e3a4                wpas_update_random_addr
                0x0001e5e8                wpas_update_random_addr_disassoc
                0x0001e618                wpas_restore_permanent_mac_addr
                0x0001e6b0                wpa_supplicant_update_bridge_ifname
                0x0001e7e8                wpa_supplicant_apply_eht_overrides
                0x0001e7f8                wpas_init_ext_pw
                0x0001e898                wpas_freq_to_band
                0x0001e8c8                wpas_get_bands
                0x0001e938                radio_remove_pending_work
                0x0001e9b8                radio_work_check_next
                0x0001ea2c                radio_remove_works
                0x0001eee8                radio_add_work
                0x0001f0c4                wpa_supplicant_associate
                0x0001f388                radio_work_done
                0x0001f454                wpas_connect_work_done
                0x0001f490                wpa_supplicant_deauthenticate
                0x0001f9b0                wpa_supplicant_reconnect
                0x0001f9c4                wpa_supplicant_remove_network
                0x0001fac0                wpas_remove_cred
                0x0001fba0                wpas_remove_all_creds
                0x0001fc1c                wpa_supplicant_remove_all_networks
                0x0001fcfc                wpa_supplicant_disable_network
                0x0001fe24                wpa_supplicant_set_state
                0x00020364                wpa_supplicant_clear_status
                0x000203f0                wpa_supplicant_driver_init
                0x00020670                radio_work_pending
                0x000206d0                wpa_supplicant_remove_iface
                0x00020e50                wpa_supplicant_get_eap_mode
                0x00020ea4                wpa_supplicant_get_iface
                0x00020ef0                wpa_supplicant_init
                0x0002116c                wpa_supplicant_run
                0x00021208                wpa_supplicant_deinit
                0x00021214                wpa_supplicant_update_config
                0x00021398                wpa_supplicant_reload_configuration
                0x00021628                add_freq
                0x0002166c                wpas_driver_bss_selection
                0x0002168c                wpas_network_disabled
                0x00021734                wpas_get_ssid_pmf
                0x000217a8                pmf_in_use
                0x0002187c                wpas_is_p2p_prioritized
                0x000218a0                wpas_auth_failed
                0x00021a00                wpa_supplicant_set_suites
                0x00022a1c                wpas_connection_failed
                0x000241dc                wpas_clear_temp_disabled
                0x000242bc                wpa_supplicant_select_network
                0x0002456c                disallowed_bssid
                0x000245e0                disallowed_ssid
                0x00024670                wpas_request_connection
                0x000246c8                wpas_request_disconnection
                0x00024744                dump_freq_data
                0x000247b4                get_shared_radio_freqs_data
                0x00024964                get_shared_radio_freqs
                0x000249f4                wpas_vendor_elem
                0x000249f8                wpas_vendor_elem_update
                0x00024a94                wpas_vendor_elem_remove
                0x00024b58                get_mode
                0x00024bd0                get_mode_with_freq
                0x00024c38                wpa_bss_tmp_disallow
                0x00024d1c                wpa_is_bss_tmp_disallowed
                0x00024dcc                wpas_enable_mac_addr_randomization
                0x00024f08                wpas_disable_mac_addr_randomization
                0x00024f6c                wpa_drv_signal_poll
                0x00024f8c                wpa_drv_get_scan_results
                0x00024fc0                wpas_ap_link_address
                0x00025030                wpa_drv_send_action
                0x00025208                wpas_is_6ghz_supported
                0x000252d4                wpa_supplicant_add_iface
 .text          0x00025fa0     0x18d4 ..//addon/wlan/hostap/wpa_supplicant/libwpa_supplicant.a(wpas_glue.o)
                0x00026d14                wpa_ether_send
                0x00027068                wpa_supplicant_ctrl_req_from_string
                0x0002718c                wpa_supplicant_ctrl_req_to_string
                0x0002736c                wpas_send_ctrl_req
                0x000273b8                wpa_supplicant_init_eapol
                0x00027510                wpas_transition_disable
                0x000275f4                wpa_supplicant_init_wpa
                0x00027798                wpa_supplicant_rsn_supp_set_config
 .text          0x00027874     0x1674 ..//addon/wlan/hostap/wpa_supplicant/libwpa_supplicant.a(hw_features_common.o)
                0x000278fc                hw_get_channel_chan
                0x00027960                hw_mode_get_channel
                0x000279b0                hw_get_channel_freq
                0x00027a4c                hw_get_freq
                0x00027a98                hw_get_chan
                0x00027ac4                allowed_ht40_channel_pair
                0x00027c18                get_pri_sec_chan
                0x00027c94                check_40mhz_5g
                0x00027e40                check_40mhz_2g4
                0x00028274                punct_update_legacy_bw
                0x00028338                hostapd_set_freq_params
                0x00028d34                set_disable_ht40
                0x00028d60                num_chan_to_bw
                0x00028d90                chan_bw_allowed
                0x00028e18                chan_pri_allowed
                0x00028e34                is_punct_bitmap_valid
 .text          0x00028ee8     0x3a88 ..//addon/wlan/hostap/wpa_supplicant/libwpa_supplicant.a(ieee802_11_common.o)
                0x00029994                ieee802_11_parse_elems
                0x000299e0                ieee802_11_elems_clear_ids
                0x00029d74                ieee802_11_elems_clear_ext_ids
                0x00029fc0                ieee802_11_parse_link_assoc_req
                0x0002a284                ieee802_11_ie_count
                0x0002a2d4                ieee802_11_vendor_ie_concat
                0x0002a3e8                get_hdr_bssid
                0x0002a468                hostapd_config_wmm_ac
                0x0002a6a8                hostapd_config_tx_queue
                0x0002a8c8                ieee80211_freq_to_channel_ext
                0x0002add0                ieee80211_freq_to_chan
                0x0002adf4                ieee80211_chaninfo_to_channel
                0x0002ae64                ieee80211_chan_to_freq
                0x0002b3c0                ieee80211_is_dfs
                0x0002b460                is_dfs_global_op_class
                0x0002b474                is_80plus_op_class
                0x0002b488                supp_rates_11b_only
                0x0002b578                fc2str
                0x0002b74c                reason2str
                0x0002b774                status2str
                0x0002b794                mb_ies_info_by_ies
                0x0002b880                mb_ies_by_info
                0x0002b954                ieee80211_get_phy_type
                0x0002b9ac                get_ie
                0x0002ba04                get_ie_ext
                0x0002ba8c                get_vendor_ie
                0x0002bb10                mbo_add_ie
                0x0002bb94                check_multi_ap_ie
                0x0002bd70                add_multi_ap_ie
                0x0002be54                country_to_global_op_class
                0x0002bf7c                get_oper_class
                0x0002bfe8                oper_class_bw_to_int
                0x0002c008                center_idx_to_bw_6ghz
                0x0002c074                is_6ghz_freq
                0x0002c114                is_6ghz_op_class
                0x0002c12c                is_6ghz_psc_frequency
                0x0002c1c4                get_6ghz_sec_channel
                0x0002c1dc                is_same_band
                0x0002c2a8                ieee802_11_parse_candidate_list
                0x0002c518                ieee802_11_ext_capab
                0x0002c548                ieee802_11_rsnx_capab_len
                0x0002c5c0                ieee802_11_rsnx_capab
                0x0002c5d8                hostapd_encode_edmg_chan
                0x0002c670                ieee802_edmg_is_allowed
                0x0002c6c4                op_class_to_bandwidth
                0x0002c6e8                op_class_to_ch_width
                0x0002c708                chwidth_freq2_to_ch_width
                0x0002c798                ieee802_11_defrag
                0x0002c8a0                get_ml_ie
                0x0002c94c                get_basic_mle_mld_addr
 .text          0x0002c970       0x28 ..//addon/wlan/hostap/wpa_supplicant/libwpa_supplicant.a(ptksa_cache.o)
                0x0002c970                ptksa_cache_init
                0x0002c978                ptksa_cache_deinit
                0x0002c97c                ptksa_cache_get
                0x0002c984                ptksa_cache_list
                0x0002c98c                ptksa_cache_add
                0x0002c994                ptksa_cache_flush
 .text          0x0002c998     0x2eb0 ..//addon/wlan/hostap/wpa_supplicant/libwpa_supplicant.a(wpa_common.o)
                0x0002c998                wpa_mic_len
                0x0002ca2c                wpa_use_akm_defined
                0x0002ca6c                wpa_use_cmac
                0x0002cac0                wpa_use_aes_key_wrap
                0x0002cafc                wpa_eapol_key_mic
                0x0002cc30                wpa_cipher_valid_group
                0x0002cc6c                wpa_cipher_valid_mgmt_group
                0x0002cc9c                wpa_parse_wpa_ie_rsn
                0x0002d2c4                wpa_parse_wpa_ie_wpa
                0x0002d608                wpa_default_rsn_cipher
                0x0002d620                rsn_pmkid
                0x0002d6f4                wpa_cipher_txt
                0x0002d810                wpa_key_mgmt_txt
                0x0002da64                wpa_akm_to_suite
                0x0002dc20                wpa_compare_rsn_ie
                0x0002dc78                wpa_insert_pmkid
                0x0002decc                wpa_cipher_key_len
                0x0002df5c                wpa_pmk_to_ptk
                0x0002e4a4                wpa_cipher_rsc_len
                0x0002e4e0                wpa_cipher_to_alg
                0x0002e57c                wpa_cipher_valid_pairwise
                0x0002e5ac                wpa_cipher_to_suite
                0x0002e6bc                rsn_cipher_put_suites
                0x0002e738                wpa_cipher_put_suites
                0x0002e784                wpa_pick_pairwise_cipher
                0x0002e7f0                wpa_pick_group_cipher
                0x0002e850                wpa_parse_cipher
                0x0002ea58                wpa_write_ciphers
                0x0002edb0                wpa_select_ap_group_cipher
                0x0002ee18                wpa_parse_kde_ies
 .text          0x0002f848      0x338 ..//addon/wlan/hostap/wpa_supplicant/libwpa_supplicant.a(aes-omac1.o)
                0x0002f848                omac1_aes_vector
                0x0002fad8                omac1_aes_128_vector
                0x0002fb10                omac1_aes_128
                0x0002fb48                omac1_aes_256
 .text          0x0002fb80      0x1dc ..//addon/wlan/hostap/wpa_supplicant/libwpa_supplicant.a(md5.o)
                0x0002fb80                hmac_md5_vector
                0x0002fd2c                hmac_md5
 .text          0x0002fd5c      0x184 ..//addon/wlan/hostap/wpa_supplicant/libwpa_supplicant.a(sha1-pbkdf2.o)
                0x0002fd5c                pbkdf2_sha1
 .text          0x0002fee0      0x114 ..//addon/wlan/hostap/wpa_supplicant/libwpa_supplicant.a(sha1-prf.o)
                0x0002fee0                sha1_prf
 .text          0x0002fff4      0x1d4 ..//addon/wlan/hostap/wpa_supplicant/libwpa_supplicant.a(sha1.o)
                0x0002fff4                hmac_sha1_vector
                0x00030198                hmac_sha1
 .text          0x000301c8      0x164 ..//addon/wlan/hostap/wpa_supplicant/libwpa_supplicant.a(sha256-prf.o)
                0x000301c8                sha256_prf_bits
                0x0003031c                sha256_prf
 .text          0x0003032c      0x1d4 ..//addon/wlan/hostap/wpa_supplicant/libwpa_supplicant.a(sha256.o)
                0x0003032c                hmac_sha256_vector
                0x000304d0                hmac_sha256
 .text          0x00030500      0xc08 ..//addon/wlan/hostap/wpa_supplicant/libwpa_supplicant.a(driver_common.o)
                0x00030500                wpa_scan_results_free
                0x0003054c                event_to_string
                0x00030568                channel_width_to_string
                0x00030588                channel_width_to_int
                0x000305a4                ht_supported
                0x000305c4                vht_supported
                0x000305ec                he_supported
                0x0003061c                wpa_get_wowlan_triggers
                0x0003086c                driver_flag_to_string
                0x00030f44                driver_flag2_to_string
 .text          0x00031108        0x0 ..//addon/wlan/hostap/wpa_supplicant/libwpa_supplicant.a(drivers.o)
 .text          0x00031108      0x424 ..//addon/wlan/hostap/wpa_supplicant/libwpa_supplicant.a(eap_methods.o)
                0x00031108                eap_peer_get_eap_method
                0x0003114c                eap_peer_get_type
                0x000311b0                eap_get_name
                0x00031210                eap_get_names
                0x000312d0                eap_get_names_as_string_array
                0x000313c0                eap_peer_get_methods
                0x00031404                eap_peer_method_alloc
                0x00031438                eap_peer_method_register
                0x000314f0                eap_peer_unregister_methods
 .text          0x0003152c     0x19b4 ..//addon/wlan/hostap/wpa_supplicant/libwpa_supplicant.a(eapol_supp_sm.o)
                0x00031ab0                eapol_sm_step
                0x0003260c                eapol_sm_configure
                0x0003263c                eapol_sm_get_method_name
                0x00032664                eapol_sm_rx_eapol
                0x000328f8                eapol_sm_notify_tx_eapol_key
                0x0003290c                eapol_sm_notify_portEnabled
                0x00032950                eapol_sm_notify_portValid
                0x00032984                eapol_sm_notify_eap_success
                0x000329d8                eapol_sm_notify_eap_fail
                0x00032a10                eapol_sm_notify_config
                0x00032a84                eapol_sm_get_key
                0x00032b40                eapol_sm_get_session_id
                0x00032b88                eapol_sm_notify_logoff
                0x00032ba0                eapol_sm_notify_cached
                0x00032bd8                eapol_sm_notify_pmkid_attempt
                0x00032c00                eapol_sm_register_scard_ctx
                0x00032c18                eapol_sm_notify_portControl
                0x00032c60                eapol_sm_notify_ctrl_attached
                0x00032c70                eapol_sm_notify_ctrl_response
                0x00032cbc                eapol_sm_request_reauth
                0x00032cd4                eapol_sm_notify_lower_layer_success
                0x00032d00                eapol_sm_invalidate_cached_session
                0x00032d10                eapol_sm_init
                0x00032e20                eapol_sm_deinit
                0x00032e80                eapol_sm_set_ext_pw_ctx
                0x00032e98                eapol_sm_failed
                0x00032eb4                eapol_sm_erp_flush
                0x00032ec4                eapol_sm_build_erp_reauth_start
                0x00032ecc                eapol_sm_process_erp_finish
                0x00032ed0                eapol_sm_update_erp_next_seq_num
                0x00032ed8                eapol_sm_get_erp_info
 .text          0x00032ee0      0x460 ..//addon/wlan/hostap/wpa_supplicant/libwpa_supplicant.a(l2_packet_circle.o)
                0x00032fec                l2_packet_init
                0x0003312c                l2_packet_init_bridge
                0x00033148                l2_packet_deinit
                0x00033168                l2_packet_get_own_addr
                0x000331c0                l2_packet_send
                0x000332b4                l2_packet_notify_auth_start
                0x00033320                l2_packet_get_ip_addr
                0x00033328                l2_packet_set_packet_filter
                0x00033330                l2_packet_auth_active
 .text          0x00033340     0x1528 ..//addon/wlan/hostap/wpa_supplicant/libwpa_supplicant.a(pmksa_cache.o)
                0x00033784                pmksa_cache_remove
                0x000337dc                pmksa_cache_flush
                0x0003391c                pmksa_cache_add_entry
                0x00033c64                pmksa_cache_add
                0x00033e10                pmksa_cache_deinit
                0x00033e58                pmksa_cache_get
                0x00033f64                pmksa_cache_get_opportunistic
                0x00034170                pmksa_cache_get_current
                0x0003417c                pmksa_cache_clear_current
                0x000341b0                pmksa_cache_set_current
                0x00034548                pmksa_cache_list
                0x00034758                pmksa_cache_head
                0x00034760                pmksa_cache_init
                0x00034798                pmksa_cache_reconfig
 .text          0x00034868      0xc70 ..//addon/wlan/hostap/wpa_supplicant/libwpa_supplicant.a(preauth.o)
                0x00034a88                pmksa_candidate_free
                0x00034adc                rsn_preauth_init
                0x00034d54                rsn_preauth_deinit
                0x00034d6c                rsn_preauth_candidate_process
                0x000351c0                pmksa_candidate_add
                0x00035370                rsn_preauth_scan_results
                0x000353d8                rsn_preauth_scan_result
                0x000354c8                rsn_preauth_in_progress
 .text          0x000354d8     0x70d4 ..//addon/wlan/hostap/wpa_supplicant/libwpa_supplicant.a(wpa.o)
                0x000372a4                wpa_eapol_key_send
                0x00037cbc                wpa_sm_key_request
                0x00037f30                wpa_supplicant_send_2_of_4
                0x00038144                wpa_supplicant_send_4_of_4
                0x0003949c                wpa_sm_aborted_cached
                0x000394d8                wpa_sm_aborted_external_cached
                0x00039520                wpa_sm_init
                0x000395e4                wpa_sm_deinit
                0x000396b8                wpa_sm_notify_assoc
                0x00039764                wpa_sm_notify_disassoc
                0x00039824                wpa_sm_set_pmk
                0x000398c8                wpa_sm_set_pmk_from_pmksa
                0x0003a5bc                wpa_sm_rx_eapol
                0x0003b738                wpa_sm_set_fast_reauth
                0x0003b744                wpa_sm_set_scard_ctx
                0x0003b760                wpa_sm_set_config
                0x0003b828                wpa_sm_set_ssid
                0x0003b85c                wpa_sm_set_mlo_params
                0x0003bac0                wpa_sm_set_own_addr
                0x0003bad8                wpa_sm_set_ifname
                0x0003bae8                wpa_sm_set_eapol
                0x0003baf4                wpa_sm_set_param
                0x0003bc1c                wpa_sm_get_status
                0x0003bd24                wpa_sm_pmf_enabled
                0x0003bd80                wpa_sm_ext_key_id
                0x0003bd8c                wpa_sm_ext_key_id_active
                0x0003bd98                wpa_sm_ocv_enabled
                0x0003bdec                wpa_sm_set_assoc_wpa_ie_default
                0x0003be80                wpa_sm_set_assoc_wpa_ie
                0x0003bf18                wpa_sm_set_assoc_rsnxe_default
                0x0003bfb4                wpa_sm_set_assoc_rsnxe
                0x0003c0a0                wpa_sm_set_ap_wpa_ie
                0x0003c138                wpa_sm_set_ap_rsn_ie
                0x0003c1d0                wpa_sm_set_ap_rsnxe
                0x0003c268                wpa_sm_parse_own_wpa_ie
                0x0003c2c0                wpa_sm_pmksa_cache_list
                0x0003c2c8                wpa_sm_pmksa_cache_head
                0x0003c2d0                wpa_sm_pmksa_cache_add_entry
                0x0003c2d8                wpa_sm_pmksa_cache_add
                0x0003c330                wpa_sm_pmksa_exists
                0x0003c360                wpa_sm_pmksa_cache_get
                0x0003c394                wpa_sm_pmksa_cache_remove
                0x0003c3ac                wpa_sm_drop_sa
                0x0003c3ec                wpa_sm_has_ptk_installed
                0x0003c418                wpa_sm_update_replay_ctr
                0x0003c424                wpa_sm_pmksa_cache_flush
                0x0003c448                wpa_sm_external_pmksa_cache_flush
                0x0003c470                wpa_sm_set_rx_replay_ctr
                0x0003c4a8                wpa_sm_set_ptk_kck_kek
                0x0003c540                wpa_sm_get_key_mgmt
                0x0003c548                wpa_sm_get_auth_addr
                0x0003c568                wpa_fils_is_completed
                0x0003c570                wpa_sm_set_fils_cache_id
                0x0003c574                wpa_sm_pmksa_cache_reconfig
                0x0003c584                wpa_sm_get_pmksa_cache
                0x0003c590                wpa_sm_set_cur_pmksa
                0x0003c59c                wpa_sm_set_driver_bss_selection
 .text          0x0003c5ac      0x4e8 ..//addon/wlan/hostap/wpa_supplicant/libwpa_supplicant.a(wpa_ie.o)
                0x0003c5ac                wpa_parse_wpa_ie
                0x0003c604                rsn_supp_capab
                0x0003c650                wpa_gen_wpa_ie
                0x0003c9ac                wpa_gen_rsnxe
 .text          0x0003ca94     0x1944 ..//addon/wlan/hostap/wpa_supplicant/libwpa_supplicant.a(common.o)
                0x0003cb70                hex2num
                0x0003cbb0                hex2byte
                0x0003cc30                hwaddr_aton
                0x0003cc48                hwaddr_masked_aton
                0x0003cccc                hwaddr_compact_aton
                0x0003cd6c                hwaddr_aton2
                0x0003ce38                hexstr2bin
                0x0003cee8                hwaddr_mask_txt
                0x0003cfd4                inc_byte_array
                0x0003d00c                buf_shift_right
                0x0003d064                wpa_get_ntp_timestamp
                0x0003d0e0                wpa_scnprintf
                0x0003d138                wpa_snprintf_hex_sep
                0x0003d1e8                wpa_snprintf_hex
                0x0003d284                wpa_snprintf_hex_uppercase
                0x0003d320                printf_encode
                0x0003d428                printf_decode
                0x0003d648                wpa_ssid_txt
                0x0003d680                __hide_aliasing_typecast
                0x0003d684                wpa_config_parse_string
                0x0003d7e4                is_hex
                0x0003d824                has_ctrl_char
                0x0003d86c                has_newline
                0x0003d8a4                merge_byte_arrays
                0x0003d950                dup_binstr
                0x0003d990                freq_range_list_parse
                0x0003daa0                freq_range_list_includes
                0x0003daf8                freq_range_list_str
                0x0003dbf0                int_array_len
                0x0003dc28                int_array_concat
                0x0003dd34                int_array_sort_unique
                0x0003dddc                int_array_add_unique
                0x0003de6c                int_array_includes
                0x0003dea8                str_clear_free
                0x0003dee0                bin_clear_free
                0x0003df10                random_mac_addr
                0x0003df40                random_mac_addr_keep_oui
                0x0003df74                cstr_token
                0x0003e02c                str_token
                0x0003e060                utf8_unescape
                0x0003e14c                utf8_escape
                0x0003e208                is_ctrl_char
                0x0003e220                ssid_parse
                0x0003e2dc                str_starts
                0x0003e30c                rssi_to_rcpi
                0x0003e34c                get_param
                0x0003e3c0                forced_memzero
 .text          0x0003e3d8      0x18c ..//addon/wlan/hostap/wpa_supplicant/libwpa_supplicant.a(wpa_debug_circle.o)
                0x0003e3d8                wpa_debug_open_file
                0x0003e3e0                wpa_debug_reopen_file
                0x0003e3e8                wpa_debug_close_file
                0x0003e3ec                wpa_debug_setup_stdout
                0x0003e3f0                wpa_debug_stop_log
                0x0003e3f4                wpa_printf
                0x0003e444                wpa_hexdump
                0x0003e468                wpa_hexdump_key
                0x0003e4a4                wpa_hexdump_ascii
                0x0003e4c8                wpa_hexdump_ascii_key
                0x0003e504                wpa_msg
                0x0003e554                wpa_msg_ctrl
                0x0003e560                wpa_msg_register_ifname_cb
 .text          0x0003e564      0x78c ..//addon/wlan/hostap/wpa_supplicant/libwpa_supplicant.a(wpabuf.o)
                0x0003e564                wpabuf_resize
                0x0003e644                wpabuf_alloc
                0x0003e668                wpabuf_alloc_ext_data
                0x0003e698                wpabuf_alloc_copy
                0x0003e724                wpabuf_dup
                0x0003e7bc                wpabuf_free
                0x0003e7f4                wpabuf_clear_free
                0x0003e83c                wpabuf_put
                0x0003e898                wpabuf_concat
                0x0003ea80                wpabuf_zeropad
                0x0003eba0                wpabuf_printf
                0x0003ec28                wpabuf_parse_bin
 .text          0x0003ecf0     0x2560 ..//addon/wlan/hostap/wpa_supplicant/libwpa_supplicant.a(bss.o)
                0x0003eedc                wpa_bss_anqp_alloc
                0x0003eef8                wpa_bss_anqp_unshare_alloc
                0x0003ef84                wpa_bss_remove
                0x0003f160                wpa_bss_get
                0x0003f224                calculate_update_time
                0x0003f278                notify_bss_changes
                0x0003f398                wpa_bss_update_start
                0x0003f3c8                wpa_bss_update_end
                0x0003f54c                wpa_bss_flush_by_age
                0x0003f64c                wpa_bss_init
                0x0003f670                wpa_bss_flush
                0x0003f6dc                wpa_bss_deinit
                0x0003f6e0                wpa_bss_get_bssid
                0x0003f744                wpa_bss_get_bssid_latest
                0x0003f7dc                wpa_bss_get_id
                0x0003f80c                wpa_bss_get_id_range
                0x0003f85c                wpa_bss_get_ie
                0x0003f86c                wpa_bss_get_ie_beacon
                0x0003f898                wpa_bss_get_ie_ext
                0x0003f8a8                wpa_bss_get_vendor_ie
                0x0003f934                wpa_bss_get_vendor_ie_beacon
                0x0003f9c8                wpa_bss_get_vendor_ie_multi
                0x0003fc00                wpa_bss_update_scan_res
                0x00040760                wpa_bss_get_vendor_ie_multi_beacon
                0x00040840                wpa_bss_get_max_rate
                0x000408f8                wpa_bss_get_bit_rates
                0x00040a3c                wpa_bss_ext_capab
                0x00040a68                wpa_bss_parse_basic_ml_element
                0x000410f4                wpa_bss_parse_reconf_ml_element
 .text          0x00041250      0x4e0 ..//addon/wlan/hostap/wpa_supplicant/libwpa_supplicant.a(bssid_ignore.o)
                0x0004133c                wpa_bssid_ignore_del
                0x0004140c                wpa_bssid_ignore_clear
                0x0004148c                wpa_bssid_ignore_get
                0x00041520                wpa_bssid_ignore_add
                0x000416a4                wpa_bssid_ignore_is_listed
                0x00041724                wpa_bssid_ignore_update
 .text          0x00041730     0x4c54 ..//addon/wlan/hostap/wpa_supplicant/libwpa_supplicant.a(config.o)
                0x00043bcc                wpa_config_add_prio_network
                0x00043cd8                wpa_config_update_prio_list
                0x00043d3c                wpa_config_free_ssid
                0x00043ed0                wpa_config_free_cred
                0x00044004                wpa_config_flush_blobs
                0x00044048                wpa_config_free
                0x00044228                wpa_config_foreach_network
                0x0004425c                wpa_config_get_network
                0x00044278                wpa_config_add_network
                0x00044348                wpa_config_remove_network
                0x000443f0                wpa_config_set_network_defaults
                0x0004445c                wpa_config_set
                0x000445a0                wpa_config_set_quoted
                0x00044620                wpa_config_get_all
                0x00044628                wpa_config_update_psk
                0x000446a0                wpa_config_set_cred
                0x000452f0                wpa_config_get_cred_no_key
                0x00045c94                wpa_config_get_cred
                0x00045cbc                wpa_config_add_cred
                0x00045d3c                wpa_config_remove_cred
                0x00045da4                wpa_config_get_blob
                0x00045df0                wpa_config_free_blob
                0x00045e18                wpa_config_remove_blob
                0x00045e98                wpa_config_set_blob
                0x00045ebc                wpa_config_alloc_empty
                0x00046080                wpa_config_debug_dump_networks
                0x000460f8                wpa_config_dump_values
                0x0004617c                wpa_config_get_value
                0x0004620c                wpa_config_get_num_global_field_names
                0x00046214                wpa_config_get_global_field_name
                0x00046260                wpa_config_process_global
 .text          0x00046384      0x934 ..//addon/wlan/hostap/wpa_supplicant/libwpa_supplicant.a(config_file.o)
                0x00046384                wpa_config_read
                0x00046cb0                wpa_config_write
 .text          0x00046cb8        0x8 ..//addon/wlan/hostap/wpa_supplicant/libwpa_supplicant.a(eap_register.o)
                0x00046cb8                eap_register_methods
 .text          0x00046cc0     0x79a8 ..//addon/wlan/hostap/wpa_supplicant/libwpa_supplicant.a(events.o)
                0x000477f0                wpa_supplicant_stop_countermeasures
                0x00047f18                wpas_temp_disabled
                0x00047f74                wpas_reset_mlo_info
                0x00047fbc                wpa_supplicant_mark_disassoc
                0x0004897c                wpa_supplicant_scard_init
                0x00048984                disabled_freq
                0x00048a08                wpa_scan_res_match
                0x0004a0c0                wpa_supplicant_pick_network
                0x0004a2a0                wpa_supplicant_connect
                0x0004ab64                wpa_supplicant_need_to_roam_within_ess
                0x0004bbb0                wpa_supplicant_fast_associate
                0x0004bc88                wpas_network_reenabled
                0x0004bce4                wpa_wps_supplicant_fast_associate
                0x0004bd08                wnm_bss_keep_alive_deinit
                0x0004bd0c                wpa_supplicant_update_channel_list
                0x0004bf10                wpa_supplicant_event
                0x0004e5e4                wpa_supplicant_event_global
 .text          0x0004e668      0x5f0 ..//addon/wlan/hostap/wpa_supplicant/libwpa_supplicant.a(notify.o)
                0x0004e668                wpas_notify_supplicant_initialized
                0x0004e670                wpas_notify_supplicant_deinitialized
                0x0004e674                wpas_notify_iface_added
                0x0004e67c                wpas_notify_iface_removed
                0x0004e680                wpas_notify_state_changed
                0x0004e684                wpas_notify_disconnect_reason
                0x0004e688                wpas_notify_auth_status_code
                0x0004e68c                wpas_notify_assoc_status_code
                0x0004e690                wpas_notify_roam_time
                0x0004e694                wpas_notify_roam_complete
                0x0004e698                wpas_notify_session_length
                0x0004e69c                wpas_notify_bss_tm_status
                0x0004e6a0                wpas_notify_network_changed
                0x0004e6a4                wpas_notify_ap_scan_changed
                0x0004e6a8                wpas_notify_bssid_changed
                0x0004e6ac                wpas_notify_mac_address_changed
                0x0004e6b0                wpas_notify_auth_changed
                0x0004e6b4                wpas_notify_network_enabled_changed
                0x0004e6b8                wpas_notify_network_selected
                0x0004e6bc                wpas_notify_network_request
                0x0004e6c0                wpas_notify_scanning
                0x0004e6c4                wpas_notify_scan_done
                0x0004e6c8                wpas_notify_scan_results
                0x0004e6cc                wpas_notify_wps_credential
                0x0004e6d0                wpas_notify_wps_event_m2d
                0x0004e6d4                wpas_notify_wps_event_fail
                0x0004e6d8                wpas_notify_wps_event_success
                0x0004e6dc                wpas_notify_wps_event_pbc_overlap
                0x0004e6e0                wpas_notify_network_added
                0x0004e720                wpas_notify_persistent_group_added
                0x0004e724                wpas_notify_persistent_group_removed
                0x0004e728                wpas_notify_network_removed
                0x0004e86c                wpas_notify_bss_added
                0x0004e8c8                wpas_notify_bss_removed
                0x0004e924                wpas_notify_bss_freq_changed
                0x0004e928                wpas_notify_bss_signal_changed
                0x0004e92c                wpas_notify_bss_privacy_changed
                0x0004e930                wpas_notify_bss_mode_changed
                0x0004e934                wpas_notify_bss_wpaie_changed
                0x0004e938                wpas_notify_bss_rsnie_changed
                0x0004e93c                wpas_notify_bss_wps_changed
                0x0004e940                wpas_notify_bss_ies_changed
                0x0004e944                wpas_notify_bss_rates_changed
                0x0004e948                wpas_notify_bss_seen
                0x0004e94c                wpas_notify_bss_anqp_changed
                0x0004e950                wpas_notify_blob_added
                0x0004e954                wpas_notify_blob_removed
                0x0004e958                wpas_notify_debug_level_changed
                0x0004e95c                wpas_notify_debug_timestamp_changed
                0x0004e960                wpas_notify_debug_show_keys_changed
                0x0004e964                wpas_notify_suspend
                0x0004e9b8                wpas_notify_resume
                0x0004ea60                wpas_notify_sta_authorized
                0x0004ea64                wpas_notify_certification
                0x0004eb94                wpas_notify_preq
                0x0004eb98                wpas_notify_eap_status
                0x0004ebc4                wpas_notify_eap_error
                0x0004ebd8                wpas_notify_psk_mismatch
                0x0004ebdc                wpas_notify_network_bssid_set_changed
                0x0004ec4c                wpas_notify_network_type_changed
                0x0004ec50                wpas_notify_pmk_cache_added
                0x0004ec54                wpas_notify_signal_change
 .text          0x0004ec58      0xcb8 ..//addon/wlan/hostap/wpa_supplicant/libwpa_supplicant.a(op_classes.o)
                0x0004ee38                verify_channel
                0x0004f588                wpas_supp_op_class_ie
                0x0004f878                wpas_supp_op_classes
 .text          0x0004f910     0x266c ..//addon/wlan/hostap/wpa_supplicant/libwpa_supplicant.a(rrm.o)
                0x0004ff44                wpas_rrm_reset
                0x0004fff0                wpas_rrm_process_neighbor_rep
                0x0005012c                wpas_rrm_send_neighbor_rep_request
                0x00050588                wpas_get_op_chan_phy
                0x00050b60                wpas_rrm_refuse_request
                0x00050cb4                wpas_rrm_handle_radio_measurement_request
                0x000519b4                wpas_rrm_handle_link_measurement_request
                0x00051b70                wpas_beacon_rep_scan_process
                0x00051f30                wpas_clear_beacon_rep_data
 .text          0x00051f7c     0x5264 ..//addon/wlan/hostap/wpa_supplicant/libwpa_supplicant.a(scan.o)
                0x00052718                wpa_supplicant_enabled_networks
                0x000527f8                wpa_supplicant_set_default_scan_ies
                0x0005291c                wpa_add_scan_freqs_list
                0x00052afc                wpa_supplicant_update_scan_int
                0x00052b78                wpa_supplicant_req_scan
                0x00052f78                wpa_supplicant_delayed_sched_scan
                0x00052fc0                wpa_supplicant_req_sched_scan
                0x00053850                wpa_supplicant_cancel_scan
                0x00053880                wpa_supplicant_cancel_delayed_sched_scan
                0x000538bc                wpa_supplicant_cancel_sched_scan
                0x000538cc                wpa_supplicant_notify_scanning
                0x000538e0                wpa_scan_get_ie
                0x000538f8                wpa_scan_get_ml_ie
                0x00053910                wpa_scan_get_vendor_ie
                0x00053e04                wpa_scan_get_vendor_ie_beacon
                0x00053e98                wpa_scan_get_vendor_ie_multi
                0x00053f64                wpas_channel_width_rssi_bump
                0x00053fac                wpas_adjust_snr_by_chanwidth
                0x00054014                wpa_supplicant_filter_bssid_match
                0x00054088                scan_snr
                0x000540f4                wpas_get_est_tpt
                0x00054c24                scan_est_throughput
                0x00054d30                wpa_supplicant_get_scan_results
                0x000551f4                wpa_supplicant_update_scan_results
                0x00055224                scan_only_handler
                0x000552d4                wpas_scan_scheduled
                0x000552e8                wpa_scan_clone_params
                0x00055578                wpa_supplicant_trigger_scan
                0x00056758                wpa_scan_free_params
                0x00056764                wpas_start_pno
                0x00056be4                wpas_stop_pno
                0x00056c70                wpas_mac_addr_rand_scan_clear
                0x00056ce8                wpas_mac_addr_rand_scan_set
                0x00056dbc                wpas_mac_addr_rand_scan_get_mask
                0x00056e30                wpas_abort_ongoing_scan
                0x00056ef4                wpas_sched_scan_plans_set
                0x000571a0                wpas_scan_reset_sched_scan
                0x000571c0                wpas_scan_restart_sched_scan
 .text          0x000571e0      0x448 ..//addon/wlan/hostap/wpa_supplicant/libwpa_supplicant.a(aes-internal-enc.o)
                0x000571e0                aes_encrypt_init
                0x00057230                aes_encrypt
                0x00057608                aes_encrypt_deinit
 .text          0x00057628      0x140 ..//addon/wlan/hostap/wpa_supplicant/libwpa_supplicant.a(aes-unwrap.o)
                0x00057628                aes_unwrap
 .text          0x00057768      0xcb0 ..//addon/wlan/hostap/wpa_supplicant/libwpa_supplicant.a(md5-internal.o)
                0x000581a8                MD5Init
                0x000581e8                MD5Update
                0x000582cc                MD5Final
                0x00058388                md5_vector
 .text          0x00058418      0x134 ..//addon/wlan/hostap/wpa_supplicant/libwpa_supplicant.a(rc4.o)
                0x00058418                rc4_skip
 *fill*         0x0005854c        0x4 
 .text          0x00058550     0x1540 ..//addon/wlan/hostap/wpa_supplicant/libwpa_supplicant.a(sha1-internal.o)
                0x00058550                SHA1Transform
                0x000597e4                SHA1Init
                0x00059830                SHA1Update
                0x000598f0                SHA1Final
                0x000599f4                sha1_vector
 .text          0x00059a90      0x528 ..//addon/wlan/hostap/wpa_supplicant/libwpa_supplicant.a(sha256-internal.o)
                0x00059d28                sha256_init
                0x00059d90                sha256_process
                0x00059db4                sha256_done
                0x00059ed0                sha256_vector
 .text          0x00059fb8      0xd8c ..//addon/wlan/hostap/wpa_supplicant/libwpa_supplicant.a(driver_circle.o)
 .text          0x0005ad44     0x2edc ..//addon/wlan/hostap/wpa_supplicant/libwpa_supplicant.a(eap.o)
                0x0005b980                eap_allowed_method
                0x0005b9ec                eap_peer_erp_free_keys
                0x0005b9f0                eap_peer_erp_init
                0x0005b9f4                eap_sm_buildIdentity
                0x0005bcb8                eap_peer_finish
                0x0005bcbc                eap_peer_sm_init
                0x0005bdcc                eap_peer_sm_step
                0x0005d150                eap_sm_abort
                0x0005d1b4                eap_peer_sm_deinit
                0x0005d200                eap_sm_get_method_name
                0x0005d218                eap_sm_request_identity
                0x0005d270                eap_sm_request_password
                0x0005d2c8                eap_sm_request_new_password
                0x0005d320                eap_sm_request_pin
                0x0005d378                eap_sm_request_otp
                0x0005d38c                eap_sm_request_passphrase
                0x0005d3e4                eap_sm_request_sim
                0x0005d44c                eap_sm_notify_ctrl_attached
                0x0005d540                eap_get_phase2_type
                0x0005d5ac                eap_get_phase2_types
                0x0005d688                eap_set_fast_reauth
                0x0005d690                eap_set_workaround
                0x0005d698                eap_get_config
                0x0005d6a8                eap_get_config_identity
                0x0005d6e8                eap_get_config_password
                0x0005d778                eap_get_config_password2
                0x0005d83c                eap_get_config_new_password
                0x0005d868                eap_get_config_otp
                0x0005d894                eap_clear_config_otp
                0x0005d8d8                eap_get_config_phase1
                0x0005d8f8                eap_get_config_phase2
                0x0005d918                eap_get_config_fragment_size
                0x0005d93c                eap_key_available
                0x0005d948                eap_notify_success
                0x0005d960                eap_notify_lower_layer_success
                0x0005d9e4                eap_get_eapSessionId
                0x0005da14                eap_get_eapKeyData
                0x0005da44                eap_get_eapRespData
                0x0005da68                eap_register_scard_ctx
                0x0005da74                eap_set_config_blob
                0x0005da84                eap_get_config_blob
                0x0005da94                eap_set_force_disabled
                0x0005da9c                eap_set_external_sim
                0x0005daa4                eap_notify_pending
                0x0005dab4                eap_invalidate_cached_session
                0x0005db2c                eap_is_wps_pbc_enrollee
                0x0005db8c                eap_is_wps_pin_enrollee
                0x0005dbec                eap_sm_set_ext_pw_ctx
                0x0005dbfc                eap_set_anon_id
                0x0005dc14                eap_peer_was_failure_expected
 .text          0x0005dc20      0x460 ..//addon/wlan/hostap/wpa_supplicant/libwpa_supplicant.a(base64.o)
                0x0005dffc                base64_encode
                0x0005e020                base64_encode_no_lf
                0x0005e044                base64_url_encode
                0x0005e068                base64_decode
                0x0005e074                base64_url_decode
 .text          0x0005e080      0x124 ..//addon/wlan/hostap/wpa_supplicant/libwpa_supplicant.a(bitfield.o)
                0x0005e080                bitfield_alloc
                0x0005e0a8                bitfield_free
                0x0005e0ac                bitfield_set
                0x0005e0d4                bitfield_clear
                0x0005e0fc                bitfield_is_set
                0x0005e120                bitfield_get_first_zero
 .text          0x0005e1a4      0x23c ..//addon/wlan/hostap/wpa_supplicant/libwpa_supplicant.a(config.o)
                0x0005e1a4                wpa_config_get_line
 .text          0x0005e3e0      0x2f8 ..//addon/wlan/hostap/wpa_supplicant/libwpa_supplicant.a(aes-internal.o)
                0x0005e3e0                rijndaelKeySetupEnc
 .text          0x0005e6d8      0x5d8 ..//addon/wlan/hostap/wpa_supplicant/libwpa_supplicant.a(aes-internal-dec.o)
                0x0005e6d8                aes_decrypt_init
                0x0005e82c                aes_decrypt
                0x0005ec90                aes_decrypt_deinit
 .text          0x0005ecb0       0xfc ..//addon/wlan/hostap/wpa_supplicant/libwpa_supplicant.a(tls_none.o)
                0x0005ecb0                tls_init
                0x0005ecb8                tls_deinit
                0x0005ecbc                tls_get_errors
                0x0005ecc4                tls_connection_init
                0x0005eccc                tls_connection_deinit
                0x0005ecd0                tls_connection_established
                0x0005ecd8                tls_connection_peer_serial_num
                0x0005ece0                tls_connection_shutdown
                0x0005ece8                tls_connection_set_params
                0x0005ecf0                tls_global_set_params
                0x0005ecf8                tls_global_set_verify
                0x0005ed00                tls_connection_set_verify
                0x0005ed08                tls_connection_get_random
                0x0005ed10                tls_connection_export_key
                0x0005ed18                tls_connection_get_eap_fast_key
                0x0005ed20                tls_connection_handshake
                0x0005ed28                tls_connection_server_handshake
                0x0005ed30                tls_connection_encrypt
                0x0005ed38                tls_connection_decrypt
                0x0005ed40                tls_connection_resumed
                0x0005ed48                tls_connection_set_cipher_list
                0x0005ed50                tls_get_version
                0x0005ed58                tls_get_cipher
                0x0005ed60                tls_connection_enable_workaround
                0x0005ed68                tls_connection_client_hello_ext
                0x0005ed70                tls_connection_get_failed
                0x0005ed78                tls_connection_get_read_alerts
                0x0005ed80                tls_connection_get_write_alerts
                0x0005ed88                tls_get_library_version
                0x0005ed94                tls_connection_set_success_data
                0x0005ed9c                tls_connection_set_success_data_resumed
                0x0005eda0                tls_connection_get_success_data
                0x0005eda8                tls_connection_remove_session
 .text          0x0005edac      0x2f8 ..//addon/wlan/hostap/wpa_supplicant/libwpa_supplicant.a(eap_common.o)
                0x0005edac                eap_hdr_len_valid
                0x0005ee2c                eap_hdr_validate
                0x0005ef54                eap_msg_alloc
                0x0005f04c                eap_update_len
                0x0005f074                eap_get_id
                0x0005f08c                eap_get_type
 .text          0x0005f0a4      0x95c ..//addon/wlan/libwlan.a(bcm4343.o)
                0x0005f0a4                CBcm4343Device::GetMACAddress() const
                0x0005f0ac                CBcm4343Device::SendFrame(void const*, unsigned int)
                0x0005f19c                CBcm4343Device::SetMulticastFilter(unsigned char const (*) [6])
                0x0005f2a0                CBcm4343Device::OpenNetEventHandler(ether_event_type_t, ether_event_params_t const*, void*)
                0x0005f2f0                CBcm4343Device::ReceiveFrame(void*, unsigned int*)
                0x0005f354                CBcm4343Device::IsLinkUp()
                0x0005f37c                CBcm4343Device::CBcm4343Device(char const*)
                0x0005f37c                CBcm4343Device::CBcm4343Device(char const*)
                0x0005f3d4                CBcm4343Device::Initialize()
                0x0005f4b0                CBcm4343Device::RegisterEventHandler(void (*)(ether_event_type_t, ether_event_params_t const*, void*), void*)
                0x0005f4e0                CBcm4343Device::RegisterConnectedProvider(bool (*)())
                0x0005f4e8                CBcm4343Device::ReceiveScanResult(void*, unsigned int*)
                0x0005f54c                CBcm4343Device::GetBSSID()
                0x0005f5ac                CBcm4343Device::DumpStatus()
                0x0005f610                CBcm4343Device::FrameReceived(void const*, unsigned int)
                0x0005f654                CBcm4343Device::ScanResultReceived(void const*, unsigned int)
                0x0005f694                etheriq
                0x0005f704                etherscanresult
                0x0005f75c                addethercard
                0x0005f790                CBcm4343Device::~CBcm4343Device()
                0x0005f790                CBcm4343Device::~CBcm4343Device()
                0x0005f81c                CBcm4343Device::~CBcm4343Device()
                0x0005f83c                CBcm4343Device::Control(char const*, ...)
                0x0005f900                CBcm4343Device::JoinOpenNet(char const*)
                0x0005f988                CBcm4343Device::CreateOpenNet(char const*, int, bool)
                0x0005f9ec                CBcm4343Device::DestroyOpenNet()
 .text._ZN10CNetDevice20IsSendFrameAdvisableEv
                0x0005fa00        0x8 ..//addon/wlan/libwlan.a(bcm4343.o)
                0x0005fa00                CNetDevice::IsSendFrameAdvisable()
 .text._ZN10CNetDevice12GetLinkSpeedEv
                0x0005fa08        0x8 ..//addon/wlan/libwlan.a(bcm4343.o)
                0x0005fa08                CNetDevice::GetLinkSpeed()
 .text._ZN10CNetDevice9UpdatePHYEv
                0x0005fa10        0x8 ..//addon/wlan/libwlan.a(bcm4343.o)
                0x0005fa10                CNetDevice::UpdatePHY()
 .text._ZN14CBcm4343Device7GetTypeEv
                0x0005fa18        0x8 ..//addon/wlan/libwlan.a(bcm4343.o)
                0x0005fa18                CBcm4343Device::GetType()
 .text          0x0005fa20     0x43cc ..//addon/wlan/libwlan.a(ether4330.o)
                0x00063dd8                ether4330link
 .text          0x00063dec      0xcec ..//addon/wlan/libwlan.a(emmc.o)
                0x00064a08                sdiocardintr
 .text          0x00064ad8      0x27c ..//addon/wlan/libwlan.a(p9arch.o)
                0x00064b0c                gpiosel
                0x00064b5c                gpiopulloff
                0x00064bb4                gpiopullup
                0x00064c10                getclkrate
                0x00064c28                __p9delay
                0x00064c40                __p9microdelay
                0x00064c58                coherence
                0x00064c64                intrenable
                0x00064c98                dmastart
                0x00064cf8                dmawait
                0x00064d14                cachedinvse
                0x00064d18                p9arch_init
 .text          0x00064d54      0x248 ..//addon/wlan/libwlan.a(p9chan.o)
                0x00064e18                cclose
                0x00064e5c                p9chan_init
                0x00064eac                namec
 .text          0x00064f9c      0x214 ..//addon/wlan/libwlan.a(p9cmd.o)
                0x00064f9c                cmderror
                0x00065044                lookupcmd
                0x000650c4                parsecmd
 .text          0x000651b0      0x1a4 ..//addon/wlan/libwlan.a(p9error.o)
                0x000651b0                __p9error
                0x00065244                pusherror
                0x00065288                nexterror
                0x000652f8                poperror
                0x00065350                okay
 .text          0x00065354      0x310 ..//addon/wlan/libwlan.a(p9ether.o)
                0x00065354                allocb
                0x0006538c                freeb
                0x00065398                padblock
                0x0006540c                qlen
                0x00065414                qget
                0x000654a4                qpass
                0x00065554                __p9nhgets
                0x00065564                __p9nhgetl
                0x00065570                parseether
 .text          0x00065664      0x23c ..//addon/wlan/libwlan.a(p9proc.o)
                0x00065664                __p9lock
                0x0006566c                __p9unlock
                0x00065670                qlock
                0x00065698                qunlock
                0x000656d4                canqlock
                0x00065708                __p9sleep
                0x00065730                tsleep
                0x00065798                __p9wakeup
                0x0006579c                return0
                0x000657a4                __p9kproc
                0x000657f4                p9proc_init
                0x00065854                get_error_stack
 .text._ZN6CKProc3RunEv
                0x000658a0       0x2c ..//addon/wlan/libwlan.a(p9proc.o)
                0x000658a0                CKProc::Run()
 .text._ZN6CKProcD2Ev
                0x000658cc       0x20 ..//addon/wlan/libwlan.a(p9proc.o)
                0x000658cc                CKProc::~CKProc()
                0x000658cc                CKProc::~CKProc()
 .text._ZN6CKProcD0Ev
                0x000658ec       0x30 ..//addon/wlan/libwlan.a(p9proc.o)
                0x000658ec                CKProc::~CKProc()
 .text          0x0006591c      0x328 ..//addon/wlan/libwlan.a(p9util.o)
                0x0006591c                __p9readstr
                0x00065994                __p9hexdump
                0x00065998                __p9print
                0x00065a88                __p9sprint
                0x00065af4                __p9snprint
                0x00065b88                __p9seprint
 .text          0x00065c44      0x51c ..//lib/usb/libusb.a(usbkeyboard.o)
                0x00065c48                CUSBKeyboardDevice::~CUSBKeyboardDevice()
                0x00065c48                CUSBKeyboardDevice::~CUSBKeyboardDevice()
                0x00065cb0                CUSBKeyboardDevice::~CUSBKeyboardDevice()
                0x00065cd4                CUSBKeyboardDevice::ReportHandler(unsigned char const*, unsigned int)
                0x00065e48                CUSBKeyboardDevice::CUSBKeyboardDevice(CUSBFunction*)
                0x00065e48                CUSBKeyboardDevice::CUSBKeyboardDevice(CUSBFunction*)
                0x00065ea4                CUSBKeyboardDevice::RegisterKeyPressedHandler(void (*)(char const*))
                0x00065eac                CUSBKeyboardDevice::RegisterSelectConsoleHandler(void (*)(unsigned int))
                0x00065eb4                CUSBKeyboardDevice::RegisterShutdownHandler(void (*)())
                0x00065ebc                CUSBKeyboardDevice::GetLEDStatus() const
                0x00065ee4                CUSBKeyboardDevice::RegisterKeyStatusHandlerRaw(void (*)(unsigned char, unsigned char const*, void*), bool, void*)
                0x00065f14                CUSBKeyboardDevice::RegisterKeyStatusHandlerRaw(void (*)(unsigned char, unsigned char const*), bool)
                0x00065f2c                CUSBKeyboardDevice::UnregisterKeyStatusHandlerRaw()
                0x00065f3c                CUSBKeyboardDevice::SetLEDs(unsigned char)
                0x00065fc8                CUSBKeyboardDevice::Configure()
                0x000660bc                CUSBKeyboardDevice::UpdateLEDs()
                0x00066134                CUSBKeyboardDevice::FindByte(unsigned char const*, unsigned char, unsigned int)
 .text.startup  0x00066160       0x34 ..//lib/usb/libusb.a(usbkeyboard.o)
 .text          0x00066194     0x3028 ..//lib/usb/libusb.a(dwhcidevice.o)
                0x00066194                CDWHCIDevice::CancelDeviceTransactions(CUSBDevice*)
                0x0006619c                CDWHCIDevice::CompletionRoutine(CUSBRequest*, void*, void*)
                0x000661e8                CDWHCIDevice::CDWHCIDevice(CInterruptSystem*, CTimer*, bool)
                0x000661e8                CDWHCIDevice::CDWHCIDevice(CInterruptSystem*, CTimer*, bool)
                0x000662c8                CDWHCIDevice::DeviceConnected()
                0x00066300                CDWHCIDevice::GetPortSpeed()
                0x0006634c                CDWHCIDevice::OvercurrentDetected()
                0x00066388                CDWHCIDevice::DisableRootPort(bool)
                0x000663fc                CDWHCIDevice::PowerOn()
                0x00066468                CDWHCIDevice::Reset()
                0x00066540                CDWHCIDevice::InitCore()
                0x000667b8                CDWHCIDevice::EnableGlobalInterrupts()
                0x000667fc                CDWHCIDevice::EnableCommonInterrupts()
                0x00066834                CDWHCIDevice::EnableHostInterrupts()
                0x000668d4                CDWHCIDevice::EnableChannelInterrupt(unsigned int)
                0x00066958                CDWHCIDevice::DisableChannelInterrupt(unsigned int)
                0x000669dc                CDWHCIDevice::FlushTxFIFO(unsigned int)
                0x00066a9c                CDWHCIDevice::FlushRxFIFO()
                0x00066b40                CDWHCIDevice::InitHost()
                0x00066d40                CDWHCIDevice::QueueTransaction(CDWHCITransferStageData*)
                0x00066dd8                CDWHCIDevice::TransferStageAsync(CUSBRequest*, bool, bool, unsigned int)
                0x00066e94                CDWHCIDevice::SubmitAsyncRequest(CUSBRequest*, unsigned int)
                0x00066f6c                CDWHCIDevice::QueueDelayedTransaction(CDWHCITransferStageData*)
                0x000670e8                CDWHCIDevice::StartChannel(CDWHCITransferStageData*)
                0x00067500                CDWHCIDevice::StartTransaction(CDWHCITransferStageData*)
                0x00067608                CDWHCIDevice::AllocateChannel()
                0x00067774                CDWHCIDevice::SOFInterruptHandler()
                0x00067784                CDWHCIDevice::FreeChannel(unsigned int)
                0x00067e7c                CDWHCIDevice::ChannelInterruptHandler(unsigned int)
                0x00067e8c                CDWHCIDevice::InterruptHandler()
                0x00068070                CDWHCIDevice::InterruptStub(void*)
                0x00068098                CDWHCIDevice::AllocateWaitBlock()
                0x0006810c                CDWHCIDevice::FreeWaitBlock(unsigned int)
                0x00068190                CDWHCIDevice::TransferStage(CUSBRequest*, bool, bool, unsigned int)
                0x00068274                CDWHCIDevice::SubmitBlockingRequest(CUSBRequest*, unsigned int)
                0x000684e0                CDWHCIDevice::WaitForBit(CDWHCIRegister*, unsigned int, bool, unsigned int)
                0x000685a8                CDWHCIDevice::EnableRootPort()
                0x000686c8                CDWHCIDevice::LogTransactionFailed(unsigned int)
                0x00068714                CDWHCIDevice::DumpRegister(char const*, unsigned int)
                0x0006877c                CDWHCIDevice::DumpStatus(unsigned int)
                0x00068df8                CDWHCIDevice::~CDWHCIDevice()
                0x00068df8                CDWHCIDevice::~CDWHCIDevice()
                0x00068ed8                CDWHCIDevice::~CDWHCIDevice()
                0x00068ef8                CDWHCIDevice::ReScanDevices()
                0x00068f8c                CDWHCIDevice::Initialize(bool)
 .text          0x000691bc      0x43c ..//lib/usb/libusb.a(dwhciframeschednper.o)
                0x000691bc                CDWHCIFrameSchedulerNonPeriodic::~CDWHCIFrameSchedulerNonPeriodic()
                0x000691bc                CDWHCIFrameSchedulerNonPeriodic::~CDWHCIFrameSchedulerNonPeriodic()
                0x000691c0                CDWHCIFrameSchedulerNonPeriodic::StartSplit()
                0x000691dc                CDWHCIFrameSchedulerNonPeriodic::IsOddFrame() const
                0x000691e4                CDWHCIFrameSchedulerNonPeriodic::PeriodicDelay(unsigned short)
                0x00069200                CDWHCIFrameSchedulerNonPeriodic::CompleteSplit()
                0x00069274                CDWHCIFrameSchedulerNonPeriodic::TransactionComplete(unsigned int)
                0x00069370                CDWHCIFrameSchedulerNonPeriodic::GetFrameNumber()
                0x000693ec                CDWHCIFrameSchedulerNonPeriodic::~CDWHCIFrameSchedulerNonPeriodic()
                0x00069430                CDWHCIFrameSchedulerNonPeriodic::CDWHCIFrameSchedulerNonPeriodic()
                0x00069430                CDWHCIFrameSchedulerNonPeriodic::CDWHCIFrameSchedulerNonPeriodic()
                0x00069484                CDWHCIFrameSchedulerNonPeriodic::operator new(unsigned int)
                0x000694d8                CDWHCIFrameSchedulerNonPeriodic::operator delete(void*, unsigned int)
                0x00069530                CDWHCIFrameSchedulerNonPeriodic::InitAllocator(unsigned int)
                0x0006958c                CDWHCIFrameSchedulerNonPeriodic::InitProtectedAllocator(unsigned int, unsigned int)
 .text          0x000695f8      0x2cc ..//lib/usb/libusb.a(dwhciframeschednsplit.o)
                0x000695f8                CDWHCIFrameSchedulerNoSplit::~CDWHCIFrameSchedulerNoSplit()
                0x000695f8                CDWHCIFrameSchedulerNoSplit::~CDWHCIFrameSchedulerNoSplit()
                0x000695fc                CDWHCIFrameSchedulerNoSplit::StartSplit()
                0x00069618                CDWHCIFrameSchedulerNoSplit::CompleteSplit()
                0x00069634                CDWHCIFrameSchedulerNoSplit::TransactionComplete(unsigned int)
                0x00069650                CDWHCIFrameSchedulerNoSplit::PeriodicDelay(unsigned short)
                0x0006966c                CDWHCIFrameSchedulerNoSplit::GetFrameNumber()
                0x000696b8                CDWHCIFrameSchedulerNoSplit::IsOddFrame() const
                0x000696f0                CDWHCIFrameSchedulerNoSplit::~CDWHCIFrameSchedulerNoSplit()
                0x00069734                CDWHCIFrameSchedulerNoSplit::CDWHCIFrameSchedulerNoSplit(bool)
                0x00069734                CDWHCIFrameSchedulerNoSplit::CDWHCIFrameSchedulerNoSplit(bool)
                0x00069750                CDWHCIFrameSchedulerNoSplit::operator new(unsigned int)
                0x000697a4                CDWHCIFrameSchedulerNoSplit::operator delete(void*, unsigned int)
                0x000697fc                CDWHCIFrameSchedulerNoSplit::InitAllocator(unsigned int)
                0x00069858                CDWHCIFrameSchedulerNoSplit::InitProtectedAllocator(unsigned int, unsigned int)
 .text          0x000698c4      0x4a4 ..//lib/usb/libusb.a(dwhciframeschedper.o)
                0x000698c4                CDWHCIFrameSchedulerPeriodic::~CDWHCIFrameSchedulerPeriodic()
                0x000698c4                CDWHCIFrameSchedulerPeriodic::~CDWHCIFrameSchedulerPeriodic()
                0x000698c8                CDWHCIFrameSchedulerPeriodic::StartSplit()
                0x000698e8                CDWHCIFrameSchedulerPeriodic::PeriodicDelay(unsigned short)
                0x00069900                CDWHCIFrameSchedulerPeriodic::CompleteSplit()
                0x0006999c                CDWHCIFrameSchedulerPeriodic::GetFrameNumber()
                0x00069a2c                CDWHCIFrameSchedulerPeriodic::IsOddFrame() const
                0x00069a64                CDWHCIFrameSchedulerPeriodic::TransactionComplete(unsigned int)
                0x00069b58                CDWHCIFrameSchedulerPeriodic::~CDWHCIFrameSchedulerPeriodic()
                0x00069b9c                CDWHCIFrameSchedulerPeriodic::CDWHCIFrameSchedulerPeriodic()
                0x00069b9c                CDWHCIFrameSchedulerPeriodic::CDWHCIFrameSchedulerPeriodic()
                0x00069bf4                CDWHCIFrameSchedulerPeriodic::operator new(unsigned int)
                0x00069c48                CDWHCIFrameSchedulerPeriodic::operator delete(void*, unsigned int)
                0x00069ca0                CDWHCIFrameSchedulerPeriodic::InitAllocator(unsigned int)
                0x00069cfc                CDWHCIFrameSchedulerPeriodic::InitProtectedAllocator(unsigned int, unsigned int)
 .text          0x00069d68      0x320 ..//lib/usb/libusb.a(dwhcirootport.o)
                0x00069d68                CDWHCIRootPort::~CDWHCIRootPort()
                0x00069d68                CDWHCIRootPort::~CDWHCIRootPort()
                0x00069d9c                CDWHCIRootPort::RemoveDevice()
                0x00069df4                CDWHCIRootPort::ReScanDevices()
                0x00069e30                CDWHCIRootPort::HandlePortStatusChange()
                0x00069e98                CDWHCIRootPort::~CDWHCIRootPort()
                0x00069ed8                CDWHCIRootPort::CDWHCIRootPort(CDWHCIDevice*)
                0x00069ed8                CDWHCIRootPort::CDWHCIRootPort(CDWHCIDevice*)
                0x00069f08                CDWHCIRootPort::Initialize()
 .text          0x0006a088      0x760 ..//lib/usb/libusb.a(dwhcixactqueue.o)
                0x0006a088                TQueueEntry::operator new(unsigned int)
                0x0006a0d4                TQueueEntry::operator delete(void*, unsigned int)
                0x0006a124                TQueueEntry::InitAllocator(unsigned int)
                0x0006a17c                TQueueEntry::InitProtectedAllocator(unsigned int, unsigned int)
                0x0006a1e8                CDWHCITransactionQueue::CDWHCITransactionQueue(unsigned int, unsigned int)
                0x0006a1e8                CDWHCITransactionQueue::CDWHCITransactionQueue(unsigned int, unsigned int)
                0x0006a268                CDWHCITransactionQueue::Flush()
                0x0006a394                CDWHCITransactionQueue::~CDWHCITransactionQueue()
                0x0006a394                CDWHCITransactionQueue::~CDWHCITransactionQueue()
                0x0006a3b0                CDWHCITransactionQueue::FlushDevice(CUSBDevice*)
                0x0006a534                CDWHCITransactionQueue::Enqueue(CDWHCITransferStageData*, unsigned short)
                0x0006a6b0                CDWHCITransactionQueue::Dequeue(unsigned short)
 .text          0x0006a7e8      0xd68 ..//lib/usb/libusb.a(dwhcixferstagedata.o)
                0x0006a7e8                CDWHCITransferStageData::CDWHCITransferStageData(unsigned int, CUSBRequest*, bool, bool, unsigned int)
                0x0006a7e8                CDWHCITransferStageData::CDWHCITransferStageData(unsigned int, CUSBRequest*, bool, bool, unsigned int)
                0x0006ac18                CDWHCITransferStageData::~CDWHCITransferStageData()
                0x0006ac18                CDWHCITransferStageData::~CDWHCITransferStageData()
                0x0006ac40                CDWHCITransferStageData::SetChannelNumber(unsigned int)
                0x0006ac48                CDWHCITransferStageData::TransactionComplete(unsigned int, unsigned int, unsigned int)
                0x0006aeac                CDWHCITransferStageData::SetSplitComplete(bool)
                0x0006aedc                CDWHCITransferStageData::SetState(unsigned int)
                0x0006aee4                CDWHCITransferStageData::GetState() const
                0x0006aeec                CDWHCITransferStageData::SetSubState(unsigned int)
                0x0006aef4                CDWHCITransferStageData::GetSubState() const
                0x0006aefc                CDWHCITransferStageData::GetChannelNumber() const
                0x0006af04                CDWHCITransferStageData::IsPeriodic() const
                0x0006af48                CDWHCITransferStageData::IsIsochronous() const
                0x0006af84                CDWHCITransferStageData::GetDeviceAddress() const
                0x0006afb0                CDWHCITransferStageData::GetEndpointType() const
                0x0006b004                CDWHCITransferStageData::GetEndpointNumber() const
                0x0006b02c                CDWHCITransferStageData::GetMaxPacketSize() const
                0x0006b034                CDWHCITransferStageData::GetSpeed() const
                0x0006b03c                CDWHCITransferStageData::GetPID() const
                0x0006b098                CDWHCITransferStageData::IsDirectionIn() const
                0x0006b0a0                CDWHCITransferStageData::IsStatusStage() const
                0x0006b0a8                CDWHCITransferStageData::GetDMAAddress() const
                0x0006b0d0                CDWHCITransferStageData::GetBytesToTransfer() const
                0x0006b0d8                CDWHCITransferStageData::GetPacketsToTransfer() const
                0x0006b0e0                CDWHCITransferStageData::IsSplit() const
                0x0006b0e8                CDWHCITransferStageData::IsSplitComplete() const
                0x0006b114                CDWHCITransferStageData::GetHubAddress() const
                0x0006b164                CDWHCITransferStageData::GetHubPortAddress() const
                0x0006b1b4                CDWHCITransferStageData::GetSplitPosition() const
                0x0006b23c                CDWHCITransferStageData::GetStatusMask() const
                0x0006b29c                CDWHCITransferStageData::GetTransactionStatus() const
                0x0006b2c4                CDWHCITransferStageData::GetUSBError() const
                0x0006b328                CDWHCITransferStageData::IsStageComplete() const
                0x0006b338                CDWHCITransferStageData::GetResultLen() const
                0x0006b34c                CDWHCITransferStageData::IsTimeout() const
                0x0006b384                CDWHCITransferStageData::IsRetryOK() const
                0x0006b398                CDWHCITransferStageData::GetURB() const
                0x0006b3c0                CDWHCITransferStageData::GetDevice() const
                0x0006b3e8                CDWHCITransferStageData::GetFrameScheduler() const
                0x0006b3f0                CDWHCITransferStageData::operator new(unsigned int)
                0x0006b43c                CDWHCITransferStageData::operator delete(void*, unsigned int)
                0x0006b48c                CDWHCITransferStageData::InitAllocator(unsigned int)
                0x0006b4e4                CDWHCITransferStageData::InitProtectedAllocator(unsigned int, unsigned int)
 .text          0x0006b550      0x558 ..//lib/usb/libusb.a(dwhciframeschediso.o)
                0x0006b550                CDWHCIFrameSchedulerIsochronous::~CDWHCIFrameSchedulerIsochronous()
                0x0006b550                CDWHCIFrameSchedulerIsochronous::~CDWHCIFrameSchedulerIsochronous()
                0x0006b554                CDWHCIFrameSchedulerIsochronous::CompleteSplit()
                0x0006b614                CDWHCIFrameSchedulerIsochronous::TransactionComplete(unsigned int)
                0x0006b6d8                CDWHCIFrameSchedulerIsochronous::GetFrameNumber()
                0x0006b778                CDWHCIFrameSchedulerIsochronous::IsOddFrame() const
                0x0006b7b0                CDWHCIFrameSchedulerIsochronous::StartSplit()
                0x0006b880                CDWHCIFrameSchedulerIsochronous::PeriodicDelay(unsigned short)
                0x0006b8c0                CDWHCIFrameSchedulerIsochronous::~CDWHCIFrameSchedulerIsochronous()
                0x0006b904                CDWHCIFrameSchedulerIsochronous::CDWHCIFrameSchedulerIsochronous(bool)
                0x0006b904                CDWHCIFrameSchedulerIsochronous::CDWHCIFrameSchedulerIsochronous(bool)
                0x0006b934                CDWHCIFrameSchedulerIsochronous::operator new(unsigned int)
                0x0006b988                CDWHCIFrameSchedulerIsochronous::operator delete(void*, unsigned int)
                0x0006b9e0                CDWHCIFrameSchedulerIsochronous::InitAllocator(unsigned int)
                0x0006ba3c                CDWHCIFrameSchedulerIsochronous::InitProtectedAllocator(unsigned int, unsigned int)
 .text          0x0006baa8     0x11b0 ..//lib/usb/libusb.a(usbdevice.o)
                0x0006baa8                CUSBDevice::Configure()
                0x0006bb58                CUSBDevice::CUSBDevice(CUSBHostController*, TUSBSpeed, CUSBHCIRootPort*)
                0x0006bb58                CUSBDevice::CUSBDevice(CUSBHostController*, TUSBSpeed, CUSBHCIRootPort*)
                0x0006bc00                CUSBDevice::CUSBDevice(CUSBHostController*, TUSBSpeed, CUSBStandardHub*, unsigned int)
                0x0006bc00                CUSBDevice::CUSBDevice(CUSBHostController*, TUSBSpeed, CUSBStandardHub*, unsigned int)
                0x0006bd4c                CUSBDevice::ReScanDevices()
                0x0006bd8c                CUSBDevice::RemoveDevice()
                0x0006bdd8                CUSBDevice::GetName(TDeviceNameSelector) const
                0x0006beec                CUSBDevice::GetNames() const
                0x0006bfb4                CUSBDevice::SetAddress(unsigned char)
                0x0006bfe0                CUSBDevice::GetAddress() const
                0x0006bfe8                CUSBDevice::GetSpeed() const
                0x0006bff0                CUSBDevice::IsSplit() const
                0x0006bff8                CUSBDevice::GetHubAddress() const
                0x0006c000                CUSBDevice::GetHubPortNumber() const
                0x0006c008                CUSBDevice::GetTTHubDevice() const
                0x0006c010                CUSBDevice::GetEndpoint0() const
                0x0006c038                CUSBDevice::GetHost() const
                0x0006c060                CUSBDevice::GetDeviceDescriptor() const
                0x0006c088                CUSBDevice::GetConfigurationDescriptor() const
                0x0006c0b0                CUSBDevice::GetDescriptor(unsigned char)
                0x0006c0dc                CUSBDevice::ConfigurationError(char const*) const
                0x0006c108                CUSBDevice::GetFunction(unsigned int)
                0x0006c11c                CUSBDevice::LogWrite(TLogSeverity, char const*, ...)
                0x0006c1c8                CUSBDevice::~CUSBDevice()
                0x0006c1c8                CUSBDevice::~CUSBDevice()
                0x0006c334                CUSBDevice::~CUSBDevice()
                0x0006c354                CUSBDevice::Initialize()
 .text._ZN18CUSBHostController24CancelDeviceTransactionsEP10CUSBDevice
                0x0006cc58        0x4 ..//lib/usb/libusb.a(usbdevice.o)
                0x0006cc58                CUSBHostController::CancelDeviceTransactions(CUSBDevice*)
 .text.startup  0x0006cc5c       0x34 ..//lib/usb/libusb.a(usbdevice.o)
 .text          0x0006cc90      0x974 ..//lib/usb/libusb.a(usbdevicefactory.o)
                0x0006cc90                CUSBDeviceFactory::GetGenericHIDDevice(CUSBFunction*)
                0x0006ce6c                CUSBDeviceFactory::FindDeviceID(CString*, TUSBDeviceID const*)
                0x0006cefc                CUSBDeviceFactory::GetDevice(CUSBFunction*, CString*)
 .text          0x0006d604      0x3a8 ..//lib/usb/libusb.a(usbendpoint.o)
                0x0006d604                CUSBEndpoint::CUSBEndpoint(CUSBDevice*)
                0x0006d604                CUSBEndpoint::CUSBEndpoint(CUSBDevice*)
                0x0006d648                CUSBEndpoint::CUSBEndpoint(CUSBDevice*, TUSBEndpointDescriptor const*)
                0x0006d648                CUSBEndpoint::CUSBEndpoint(CUSBDevice*, TUSBEndpointDescriptor const*)
                0x0006d824                CUSBEndpoint::~CUSBEndpoint()
                0x0006d824                CUSBEndpoint::~CUSBEndpoint()
                0x0006d828                CUSBEndpoint::GetDevice() const
                0x0006d84c                CUSBEndpoint::GetNumber() const
                0x0006d854                CUSBEndpoint::GetType() const
                0x0006d85c                CUSBEndpoint::IsDirectionIn() const
                0x0006d864                CUSBEndpoint::SetMaxPacketSize(unsigned int)
                0x0006d874                CUSBEndpoint::GetMaxPacketSize() const
                0x0006d87c                CUSBEndpoint::GetInterval() const
                0x0006d8ac                CUSBEndpoint::GetNextPID(bool)
                0x0006d8e8                CUSBEndpoint::SkipPID(unsigned int, bool)
                0x0006d97c                CUSBEndpoint::ResetPID()
 .text          0x0006d9ac      0x66c ..//lib/usb/libusb.a(usbfunction.o)
                0x0006d9ac                CUSBFunction::Initialize()
                0x0006d9b4                CUSBFunction::ReScanDevices()
                0x0006d9bc                CUSBFunction::~CUSBFunction()
                0x0006d9bc                CUSBFunction::~CUSBFunction()
                0x0006da14                CUSBFunction::RemoveDevice()
                0x0006da3c                CUSBFunction::~CUSBFunction()
                0x0006daa0                CUSBFunction::Configure()
                0x0006db88                CUSBFunction::CUSBFunction(CUSBDevice*, CUSBConfigurationParser*)
                0x0006db88                CUSBFunction::CUSBFunction(CUSBDevice*, CUSBConfigurationParser*)
                0x0006dc2c                CUSBFunction::CUSBFunction(CUSBFunction*)
                0x0006dc2c                CUSBFunction::CUSBFunction(CUSBFunction*)
                0x0006dcf0                CUSBFunction::GetInterfaceName() const
                0x0006dd68                CUSBFunction::GetNumEndpoints() const
                0x0006dd94                CUSBFunction::GetDevice() const
                0x0006ddb8                CUSBFunction::GetEndpoint0() const
                0x0006dde0                CUSBFunction::GetHost() const
                0x0006de08                CUSBFunction::GetDescriptor(unsigned char)
                0x0006de30                CUSBFunction::ConfigurationError(char const*) const
                0x0006de74                CUSBFunction::SelectInterfaceByClass(unsigned char, unsigned char, unsigned char, unsigned int)
                0x0006df44                CUSBFunction::GetInterfaceNumber() const
                0x0006df70                CUSBFunction::GetInterfaceClass() const
                0x0006df9c                CUSBFunction::GetInterfaceSubClass() const
                0x0006dfc8                CUSBFunction::GetInterfaceProtocol() const
                0x0006dff4                CUSBFunction::GetInterfaceDescriptor() const
 .text          0x0006e018      0x574 ..//lib/usb/libusb.a(usbgamepadps3.o)
                0x0006e018                CUSBGamePadPS3Device::~CUSBGamePadPS3Device()
                0x0006e018                CUSBGamePadPS3Device::~CUSBGamePadPS3Device()
                0x0006e038                CUSBGamePadPS3Device::~CUSBGamePadPS3Device()
                0x0006e064                CUSBGamePadPS3Device::SetRumbleMode(TGamePadRumbleMode)
                0x0006e158                CUSBGamePadPS3Device::SetLEDMode(TGamePadLEDMode)
                0x0006e1ec                CUSBGamePadPS3Device::CUSBGamePadPS3Device(CUSBFunction*)
                0x0006e1ec                CUSBGamePadPS3Device::CUSBGamePadPS3Device(CUSBFunction*)
                0x0006e248                CUSBGamePadPS3Device::PS3Enable()
                0x0006e300                CUSBGamePadPS3Device::Configure()
                0x0006e41c                CUSBGamePadPS3Device::DecodeReport(unsigned char const*)
 .text._ZN17CUSBGamePadDevice10SetLEDModeEjhh
                0x0006e58c        0x8 ..//lib/usb/libusb.a(usbgamepadps3.o)
                0x0006e58c                CUSBGamePadDevice::SetLEDMode(unsigned int, unsigned char, unsigned char)
 .text._ZN20CUSBGamePadPS3Device13GetPropertiesEv
                0x0006e594        0x8 ..//lib/usb/libusb.a(usbgamepadps3.o)
                0x0006e594                CUSBGamePadPS3Device::GetProperties()
 .text          0x0006e59c      0xa54 ..//lib/usb/libusb.a(usbgamepadps4.o)
                0x0006e59c                CUSBGamePadPS4Device::DecodeReport(unsigned char const*)
                0x0006e74c                CUSBGamePadPS4Device::~CUSBGamePadPS4Device()
                0x0006e74c                CUSBGamePadPS4Device::~CUSBGamePadPS4Device()
                0x0006e798                CUSBGamePadPS4Device::~CUSBGamePadPS4Device()
                0x0006e7f0                CUSBGamePadPS4Device::SetLEDMode(unsigned int, unsigned char, unsigned char)
                0x0006e8bc                CUSBGamePadPS4Device::SetRumbleMode(TGamePadRumbleMode)
                0x0006e9ac                CUSBGamePadPS4Device::SetLEDMode(TGamePadLEDMode)
                0x0006eb40                CUSBGamePadPS4Device::CUSBGamePadPS4Device(CUSBFunction*)
                0x0006eb40                CUSBGamePadPS4Device::CUSBGamePadPS4Device(CUSBFunction*)
                0x0006eb98                CUSBGamePadPS4Device::HandleTouchpad(unsigned char const*)
                0x0006ed74                CUSBGamePadPS4Device::ReportHandler(unsigned char const*, unsigned int)
                0x0006eddc                CUSBGamePadPS4Device::SendLedRumbleCommand()
                0x0006ee80                CUSBGamePadPS4Device::DisableTouchpad()
                0x0006ee94                CUSBGamePadPS4Device::Configure()
 .text._ZN20CUSBGamePadPS4Device13GetPropertiesEv
                0x0006eff0        0x8 ..//lib/usb/libusb.a(usbgamepadps4.o)
                0x0006eff0                CUSBGamePadPS4Device::GetProperties()
 .text          0x0006eff8      0x818 ..//lib/usb/libusb.a(usbgamepadstandard.o)
                0x0006eff8                CUSBGamePadStandardDevice::~CUSBGamePadStandardDevice()
                0x0006eff8                CUSBGamePadStandardDevice::~CUSBGamePadStandardDevice()
                0x0006f034                CUSBGamePadStandardDevice::~CUSBGamePadStandardDevice()
                0x0006f07c                CUSBGamePadStandardDevice::CUSBGamePadStandardDevice(CUSBFunction*, bool)
                0x0006f07c                CUSBGamePadStandardDevice::CUSBGamePadStandardDevice(CUSBFunction*, bool)
                0x0006f0b4                CUSBGamePadStandardDevice::BitGetUnsigned(void const*, unsigned int, unsigned int)
                0x0006f140                CUSBGamePadStandardDevice::BitGetSigned(void const*, unsigned int, unsigned int)
                0x0006f1f4                CUSBGamePadStandardDevice::DecodeReport(unsigned char const*)
                0x0006f68c                CUSBGamePadStandardDevice::Configure()
 .text._ZN17CUSBGamePadDevice13GetPropertiesEv
                0x0006f810        0x8 ..//lib/usb/libusb.a(usbgamepadstandard.o)
                0x0006f810                CUSBGamePadDevice::GetProperties()
 .text._ZN17CUSBGamePadDevice10SetLEDModeE15TGamePadLEDMode
                0x0006f818        0x8 ..//lib/usb/libusb.a(usbgamepadstandard.o)
                0x0006f818                CUSBGamePadDevice::SetLEDMode(TGamePadLEDMode)
 .text._ZN17CUSBGamePadDevice13SetRumbleModeE18TGamePadRumbleMode
                0x0006f820        0x8 ..//lib/usb/libusb.a(usbgamepadstandard.o)
                0x0006f820                CUSBGamePadDevice::SetRumbleMode(TGamePadRumbleMode)
 .text          0x0006f828      0x70c ..//lib/usb/libusb.a(usbgamepadswitchpro.o)
                0x0006f828                CUSBGamePadSwitchProDevice::~CUSBGamePadSwitchProDevice()
                0x0006f828                CUSBGamePadSwitchProDevice::~CUSBGamePadSwitchProDevice()
                0x0006f848                CUSBGamePadSwitchProDevice::~CUSBGamePadSwitchProDevice()
                0x0006f874                CUSBGamePadSwitchProDevice::SetRumbleMode(TGamePadRumbleMode)
                0x0006f960                CUSBGamePadSwitchProDevice::DecodeReport(unsigned char const*)
                0x0006fb58                CUSBGamePadSwitchProDevice::SetLEDMode(TGamePadLEDMode)
                0x0006fbf8                CUSBGamePadSwitchProDevice::CUSBGamePadSwitchProDevice(CUSBFunction*)
                0x0006fbf8                CUSBGamePadSwitchProDevice::CUSBGamePadSwitchProDevice(CUSBFunction*)
                0x0006fc44                CUSBGamePadSwitchProDevice::Configure()
 .text._ZN26CUSBGamePadSwitchProDevice13GetPropertiesEv
                0x0006ff34        0x8 ..//lib/usb/libusb.a(usbgamepadswitchpro.o)
                0x0006ff34                CUSBGamePadSwitchProDevice::GetProperties()
 .text          0x0006ff3c      0x3f8 ..//lib/usb/libusb.a(usbgamepadxbox360.o)
                0x0006ff3c                CUSBGamePadXbox360Device::~CUSBGamePadXbox360Device()
                0x0006ff3c                CUSBGamePadXbox360Device::~CUSBGamePadXbox360Device()
                0x0006ff5c                CUSBGamePadXbox360Device::~CUSBGamePadXbox360Device()
                0x0006ff88                CUSBGamePadXbox360Device::DecodeReport(unsigned char const*)
                0x0007009c                CUSBGamePadXbox360Device::ReportHandler(unsigned char const*, unsigned int)
                0x00070108                CUSBGamePadXbox360Device::SetLEDMode(TGamePadLEDMode)
                0x00070164                CUSBGamePadXbox360Device::SetRumbleMode(TGamePadRumbleMode)
                0x000701f4                CUSBGamePadXbox360Device::CUSBGamePadXbox360Device(CUSBFunction*)
                0x000701f4                CUSBGamePadXbox360Device::CUSBGamePadXbox360Device(CUSBFunction*)
                0x00070214                CUSBGamePadXbox360Device::Configure()
 .text._ZN24CUSBGamePadXbox360Device13GetPropertiesEv
                0x00070334        0x8 ..//lib/usb/libusb.a(usbgamepadxbox360.o)
                0x00070334                CUSBGamePadXbox360Device::GetProperties()
 .text          0x0007033c      0x4cc ..//lib/usb/libusb.a(usbgamepadxboxone.o)
                0x0007033c                CUSBGamePadXboxOneDevice::DecodeReport(unsigned char const*)
                0x000704e4                CUSBGamePadXboxOneDevice::~CUSBGamePadXboxOneDevice()
                0x000704e4                CUSBGamePadXboxOneDevice::~CUSBGamePadXboxOneDevice()
                0x00070504                CUSBGamePadXboxOneDevice::~CUSBGamePadXboxOneDevice()
                0x00070530                CUSBGamePadXboxOneDevice::ReportHandler(unsigned char const*, unsigned int)
                0x00070628                CUSBGamePadXboxOneDevice::SetRumbleMode(TGamePadRumbleMode)
                0x000706d4                CUSBGamePadXboxOneDevice::CUSBGamePadXboxOneDevice(CUSBFunction*)
                0x000706d4                CUSBGamePadXboxOneDevice::CUSBGamePadXboxOneDevice(CUSBFunction*)
                0x000706fc                CUSBGamePadXboxOneDevice::Configure()
 .text._ZN24CUSBGamePadXboxOneDevice13GetPropertiesEv
                0x00070808        0x8 ..//lib/usb/libusb.a(usbgamepadxboxone.o)
                0x00070808                CUSBGamePadXboxOneDevice::GetProperties()
 .text          0x00070810      0x79c ..//lib/usb/libusb.a(usbhiddevice.o)
                0x00070810                CUSBHIDDevice::SendCompletionRoutine(CUSBRequest*, void*, void*)
                0x00070894                CUSBHIDDevice::CUSBHIDDevice(CUSBFunction*, unsigned int)
                0x00070894                CUSBHIDDevice::CUSBHIDDevice(CUSBFunction*, unsigned int)
                0x000708e8                CUSBHIDDevice::~CUSBHIDDevice()
                0x000708e8                CUSBHIDDevice::~CUSBHIDDevice()
                0x00070974                CUSBHIDDevice::~CUSBHIDDevice()
                0x00070994                CUSBHIDDevice::ConfigureHID(unsigned int)
                0x00070be8                CUSBHIDDevice::SendToEndpointOut(void const*, unsigned int, unsigned int)
                0x00070c70                CUSBHIDDevice::SendToEndpointOutAsync(void const*, unsigned int, unsigned int)
                0x00070d48                CUSBHIDDevice::ReceiveFromEndpointIn(void*, unsigned int, unsigned int)
                0x00070dd0                CUSBHIDDevice::StartRequest()
                0x00070e94                CUSBHIDDevice::CompletionRoutine(CUSBRequest*)
                0x00070f80                CUSBHIDDevice::CompletionStub(CUSBRequest*, void*, void*)
 .text          0x00070fac      0x5bc ..//lib/usb/libusb.a(usbhostcontroller.o)
                0x00070fac                CUSBHostController::UpdatePlugAndPlay()
                0x000710e4                CUSBHostController::CUSBHostController(bool)
                0x000710e4                CUSBHostController::CUSBHostController(bool)
                0x00071124                CUSBHostController::~CUSBHostController()
                0x00071124                CUSBHostController::~CUSBHostController()
                0x00071154                CUSBHostController::~CUSBHostController()
                0x00071190                CUSBHostController::ControlMessage(CUSBEndpoint*, unsigned char, unsigned char, unsigned short, unsigned short, void*, unsigned short)
                0x0007127c                CUSBHostController::GetDescriptor(CUSBEndpoint*, unsigned char, unsigned char, void*, unsigned int, unsigned char, unsigned short)
                0x000712b0                CUSBHostController::SetAddress(CUSBEndpoint*, unsigned char)
                0x000712f8                CUSBHostController::SetConfiguration(CUSBEndpoint*, unsigned char)
                0x00071340                CUSBHostController::Transfer(CUSBEndpoint*, void*, unsigned int, unsigned int)
                0x000713a4                CUSBHostController::IsPlugAndPlay() const
                0x000713ac                CUSBHostController::PortStatusChanged(CUSBHCIRootPort*)
                0x00071474                CUSBHostController::PortStatusChanged(CUSBStandardHub*)
                0x0007153c                CUSBHostController::Get()
 .text          0x00071568      0xe24 ..//lib/usb/libusb.a(usbmassdevice.o)
                0x00071568                CUSBBulkOnlyMassStorageDevice::Seek(unsigned long long)
                0x0007157c                CUSBBulkOnlyMassStorageDevice::~CUSBBulkOnlyMassStorageDevice()
                0x0007157c                CUSBBulkOnlyMassStorageDevice::~CUSBBulkOnlyMassStorageDevice()
                0x00071654                CUSBBulkOnlyMassStorageDevice::~CUSBBulkOnlyMassStorageDevice()
                0x00071674                CUSBBulkOnlyMassStorageDevice::GetSize() const
                0x000716c0                CUSBBulkOnlyMassStorageDevice::CUSBBulkOnlyMassStorageDevice(CUSBFunction*)
                0x000716c0                CUSBBulkOnlyMassStorageDevice::CUSBBulkOnlyMassStorageDevice(CUSBFunction*)
                0x00071708                CUSBBulkOnlyMassStorageDevice::GetCapacity() const
                0x00071710                CUSBBulkOnlyMassStorageDevice::Command(void*, unsigned int, void*, unsigned int, bool)
                0x00071b10                CUSBBulkOnlyMassStorageDevice::TryRead(void*, unsigned int)
                0x00071bf8                CUSBBulkOnlyMassStorageDevice::TryWrite(void const*, unsigned int)
                0x00071ce0                CUSBBulkOnlyMassStorageDevice::Reset()
                0x00071e60                CUSBBulkOnlyMassStorageDevice::Read(void*, unsigned int)
                0x00071ec8                CUSBBulkOnlyMassStorageDevice::Write(void const*, unsigned int)
                0x00071f30                CUSBBulkOnlyMassStorageDevice::Configure()
 .text.startup  0x0007238c       0x34 ..//lib/usb/libusb.a(usbmassdevice.o)
 .text          0x000723c0      0x76c ..//lib/usb/libusb.a(usbmidihost.o)
                0x000723c0                CUSBMIDIHostDevice::~CUSBMIDIHostDevice()
                0x000723c0                CUSBMIDIHostDevice::~CUSBMIDIHostDevice()
                0x00072490                CUSBMIDIHostDevice::~CUSBMIDIHostDevice()
                0x000724b0                CUSBMIDIHostDevice::SendEventsHandler(unsigned char const*, unsigned int, void*)
                0x0007258c                CUSBMIDIHostDevice::CUSBMIDIHostDevice(CUSBFunction*)
                0x0007258c                CUSBMIDIHostDevice::CUSBMIDIHostDevice(CUSBFunction*)
                0x000725c4                CUSBMIDIHostDevice::StartRequest()
                0x00072690                CUSBMIDIHostDevice::TimerStub(unsigned int, void*, void*)
                0x000726e4                CUSBMIDIHostDevice::CompletionRoutine(CUSBRequest*)
                0x0007289c                CUSBMIDIHostDevice::CompletionStub(CUSBRequest*, void*, void*)
                0x000728c8                CUSBMIDIHostDevice::TimerHandler(unsigned int)
                0x000728f8                CUSBMIDIHostDevice::Configure()
 .text          0x00072b2c      0x744 ..//lib/usb/libusb.a(usbmouse.o)
                0x00072b2c                CUSBMouseDevice::~CUSBMouseDevice()
                0x00072b2c                CUSBMouseDevice::~CUSBMouseDevice()
                0x00072b88                CUSBMouseDevice::~CUSBMouseDevice()
                0x00072ba8                CUSBMouseDevice::CUSBMouseDevice(CUSBFunction*)
                0x00072ba8                CUSBMouseDevice::CUSBMouseDevice(CUSBFunction*)
                0x00072bd8                CUSBMouseDevice::ExtractUnsigned(void const*, unsigned int, unsigned int)
                0x00072c5c                CUSBMouseDevice::ExtractSigned(void const*, unsigned int, unsigned int)
                0x00072d08                CUSBMouseDevice::ReportHandler(unsigned char const*, unsigned int)
                0x00072df4                CUSBMouseDevice::DecodeReport()
                0x00073120                CUSBMouseDevice::Configure()
 .text          0x00073270      0x35c ..//lib/usb/libusb.a(usbprinter.o)
                0x00073270                CUSBPrinterDevice::~CUSBPrinterDevice()
                0x00073270                CUSBPrinterDevice::~CUSBPrinterDevice()
                0x00073318                CUSBPrinterDevice::~CUSBPrinterDevice()
                0x00073338                CUSBPrinterDevice::Write(void const*, unsigned int)
                0x000733c4                CUSBPrinterDevice::CUSBPrinterDevice(CUSBFunction*)
                0x000733c4                CUSBPrinterDevice::CUSBPrinterDevice(CUSBFunction*)
                0x000733f8                CUSBPrinterDevice::Configure()
 .text.startup  0x000735cc       0x34 ..//lib/usb/libusb.a(usbprinter.o)
 .text          0x00073600      0x440 ..//lib/usb/libusb.a(usbrequest.o)
                0x00073600                CUSBRequest::CUSBRequest(CUSBEndpoint*, void*, unsigned int, TSetupData*)
                0x00073600                CUSBRequest::CUSBRequest(CUSBEndpoint*, void*, unsigned int, TSetupData*)
                0x00073684                CUSBRequest::~CUSBRequest()
                0x00073684                CUSBRequest::~CUSBRequest()
                0x00073688                CUSBRequest::GetEndpoint() const
                0x000736ac                CUSBRequest::SetStatus(int)
                0x000736b4                CUSBRequest::SetResultLen(unsigned int)
                0x000736bc                CUSBRequest::SetUSBError(TUSBError)
                0x000736c4                CUSBRequest::GetStatus() const
                0x000736cc                CUSBRequest::GetResultLength() const
                0x000736f8                CUSBRequest::GetUSBError() const
                0x00073724                CUSBRequest::GetSetupData()
                0x0007376c                CUSBRequest::GetBuffer()
                0x000737a0                CUSBRequest::GetBufLen() const
                0x000737a8                CUSBRequest::AddIsoPacket(unsigned short)
                0x00073814                CUSBRequest::GetNumIsoPackets() const
                0x00073838                CUSBRequest::GetIsoPacketSize(unsigned int) const
                0x00073868                CUSBRequest::SetCompletionRoutine(void (*)(CUSBRequest*, void*, void*), void*, void*)
                0x00073894                CUSBRequest::CallCompletionRoutine()
                0x000738cc                CUSBRequest::SetCompleteOnNAK()
                0x000738d8                CUSBRequest::IsCompleteOnNAK() const
                0x000738e0                CUSBRequest::operator new(unsigned int)
                0x0007392c                CUSBRequest::operator delete(void*, unsigned int)
                0x0007397c                CUSBRequest::InitAllocator(unsigned int)
                0x000739d4                CUSBRequest::InitProtectedAllocator(unsigned int, unsigned int)
 .text          0x00073a40     0x10c0 ..//lib/usb/libusb.a(usbstandardhub.o)
                0x00073a40                CUSBStandardHub::~CUSBStandardHub()
                0x00073a40                CUSBStandardHub::~CUSBStandardHub()
                0x00073b5c                CUSBStandardHub::~CUSBStandardHub()
                0x00073b7c                CUSBStandardHub::CUSBStandardHub(CUSBFunction*)
                0x00073b7c                CUSBStandardHub::CUSBStandardHub(CUSBFunction*)
                0x00073bd8                CUSBStandardHub::DisablePort(unsigned int)
                0x00073c90                CUSBStandardHub::RemoveDeviceAt(unsigned int)
                0x00073cd4                CUSBStandardHub::StartStatusChangeRequest()
                0x00073da8                CUSBStandardHub::CompletionRoutine(CUSBRequest*)
                0x00073e48                CUSBStandardHub::CompletionStub(CUSBRequest*, void*, void*)
                0x00073e78                CUSBStandardHub::Initialize()
                0x00073fac                CUSBStandardHub::EnumeratePorts()
                0x000745f4                CUSBStandardHub::ReScanDevices()
                0x000745f8                CUSBStandardHub::Configure()
                0x0007475c                CUSBStandardHub::HandlePortStatusChange()
 .text.startup  0x00074b00       0x34 ..//lib/usb/libusb.a(usbstandardhub.o)
 .text          0x00074b34      0x504 ..//lib/usb/libusb.a(usbstring.o)
                0x00074b34                CUSBString::CUSBString(CUSBDevice*)
                0x00074b34                CUSBString::CUSBString(CUSBDevice*)
                0x00074b80                CUSBString::CUSBString(CUSBString*)
                0x00074b80                CUSBString::CUSBString(CUSBString*)
                0x00074c30                CUSBString::~CUSBString()
                0x00074c30                CUSBString::~CUSBString()
                0x00074c70                CUSBString::GetFromDescriptor(unsigned char, unsigned short)
                0x00074eac                CUSBString::Get() const
                0x00074eb4                CUSBString::GetLanguageID()
 .text          0x00075038      0x548 ..//lib/usb/libusb.a(usbserialch341.o)
                0x00075038                CUSBSerialCH341Device::~CUSBSerialCH341Device()
                0x00075038                CUSBSerialCH341Device::~CUSBSerialCH341Device()
                0x00075058                CUSBSerialCH341Device::~CUSBSerialCH341Device()
                0x00075084                CUSBSerialCH341Device::SetBaudRate(unsigned int)
                0x00075198                CUSBSerialCH341Device::CUSBSerialCH341Device(CUSBFunction*)
                0x00075198                CUSBSerialCH341Device::CUSBSerialCH341Device(CUSBFunction*)
                0x000751bc                CUSBSerialCH341Device::GetDeviceIDTable()
                0x000751c8                CUSBSerialCH341Device::Configure()
                0x00075348                CUSBSerialCH341Device::SetLineProperties(TUSBSerialDataBits, TUSBSerialParity, TUSBSerialStopBits)
 .text          0x00075580      0x5d4 ..//lib/usb/libusb.a(usbserialcp210x.o)
                0x00075580                CUSBSerialCP210xDevice::~CUSBSerialCP210xDevice()
                0x00075580                CUSBSerialCP210xDevice::~CUSBSerialCP210xDevice()
                0x000755a0                CUSBSerialCP210xDevice::~CUSBSerialCP210xDevice()
                0x000755cc                CUSBSerialCP210xDevice::SetBaudRate(unsigned int)
                0x000756e0                CUSBSerialCP210xDevice::CUSBSerialCP210xDevice(CUSBFunction*)
                0x000756e0                CUSBSerialCP210xDevice::CUSBSerialCP210xDevice(CUSBFunction*)
                0x0007570c                CUSBSerialCP210xDevice::GetDeviceIDTable()
                0x00075718                CUSBSerialCP210xDevice::Configure()
                0x00075904                CUSBSerialCP210xDevice::SetLineProperties(TUSBSerialDataBits, TUSBSerialParity, TUSBSerialStopBits)
 .text          0x00075b54      0x94c ..//lib/usb/libusb.a(usbserialpl2303.o)
                0x00075b54                CUSBSerialPL2303Device::~CUSBSerialPL2303Device()
                0x00075b54                CUSBSerialPL2303Device::~CUSBSerialPL2303Device()
                0x00075b74                CUSBSerialPL2303Device::~CUSBSerialPL2303Device()
                0x00075ba0                CUSBSerialPL2303Device::SetBaudRate(unsigned int)
                0x00075cc0                CUSBSerialPL2303Device::CUSBSerialPL2303Device(CUSBFunction*)
                0x00075cc0                CUSBSerialPL2303Device::CUSBSerialPL2303Device(CUSBFunction*)
                0x00075ce4                CUSBSerialPL2303Device::GetDeviceIDTable()
                0x00075cf0                CUSBSerialPL2303Device::Configure()
                0x00076230                CUSBSerialPL2303Device::SetLineProperties(TUSBSerialDataBits, TUSBSerialParity, TUSBSerialStopBits)
 .text          0x000764a0      0x5c4 ..//lib/usb/libusb.a(usbserialft231x.o)
                0x000764a0                CUSBSerialFT231XDevice::~CUSBSerialFT231XDevice()
                0x000764a0                CUSBSerialFT231XDevice::~CUSBSerialFT231XDevice()
                0x000764c0                CUSBSerialFT231XDevice::~CUSBSerialFT231XDevice()
                0x000764ec                CUSBSerialFT231XDevice::SetBaudRate(unsigned int)
                0x00076618                CUSBSerialFT231XDevice::CUSBSerialFT231XDevice(CUSBFunction*)
                0x00076618                CUSBSerialFT231XDevice::CUSBSerialFT231XDevice(CUSBFunction*)
                0x0007663c                CUSBSerialFT231XDevice::GetDeviceIDTable()
                0x00076648                CUSBSerialFT231XDevice::Configure()
                0x0007685c                CUSBSerialFT231XDevice::SetLineProperties(TUSBSerialDataBits, TUSBSerialParity, TUSBSerialStopBits)
 .text          0x00076a64      0x278 ..//lib/usb/libusb.a(usbserialcdc.o)
                0x00076a64                CUSBSerialCDCDevice::~CUSBSerialCDCDevice()
                0x00076a64                CUSBSerialCDCDevice::~CUSBSerialCDCDevice()
                0x00076a84                CUSBSerialCDCDevice::~CUSBSerialCDCDevice()
                0x00076ab0                CUSBSerialCDCDevice::CUSBSerialCDCDevice(CUSBFunction*)
                0x00076ab0                CUSBSerialCDCDevice::CUSBSerialCDCDevice(CUSBFunction*)
                0x00076b0c                CUSBSerialCDCDevice::SetLineCoding()
                0x00076bf0                CUSBSerialCDCDevice::SetBaudRate(unsigned int)
                0x00076bf8                CUSBSerialCDCDevice::SetLineProperties(TUSBSerialDataBits, TUSBSerialParity, TUSBSerialStopBits)
                0x00076c08                CUSBSerialCDCDevice::Configure()
 .text          0x00076cdc      0x9e4 ..//lib/usb/libusb.a(usbtouchscreen.o)
                0x00076cdc                CUSBTouchScreenDevice::~CUSBTouchScreenDevice()
                0x00076cdc                CUSBTouchScreenDevice::~CUSBTouchScreenDevice()
                0x00076d20                CUSBTouchScreenDevice::~CUSBTouchScreenDevice()
                0x00076d70                CUSBTouchScreenDevice::CUSBTouchScreenDevice(CUSBFunction*)
                0x00076d70                CUSBTouchScreenDevice::CUSBTouchScreenDevice(CUSBFunction*)
                0x00076dc8                CUSBTouchScreenDevice::DecodeReportDescriptor(unsigned char const*, unsigned int)
                0x000771bc                CUSBTouchScreenDevice::Configure()
                0x0007734c                CUSBTouchScreenDevice::GetValue(void const*, CUSBTouchScreenDevice::TReportItem const&, unsigned int)
                0x000773d8                CUSBTouchScreenDevice::ReportHandler(unsigned char const*, unsigned int)
 .text          0x000776c0      0x2b8 ..//lib/usb/libusb.a(dwhciregister.o)
                0x000776c0                CDWHCIRegister::CDWHCIRegister(unsigned int)
                0x000776c0                CDWHCIRegister::CDWHCIRegister(unsigned int)
                0x000776d0                CDWHCIRegister::CDWHCIRegister(unsigned int, unsigned int)
                0x000776d0                CDWHCIRegister::CDWHCIRegister(unsigned int, unsigned int)
                0x000776e0                CDWHCIRegister::~CDWHCIRegister()
                0x000776e0                CDWHCIRegister::~CDWHCIRegister()
                0x000776e4                CDWHCIRegister::Read()
                0x00077700                CDWHCIRegister::Write()
                0x00077738                CDWHCIRegister::Get() const
                0x00077768                CDWHCIRegister::Set(unsigned int)
                0x00077778                CDWHCIRegister::IsSet(unsigned int) const
                0x000777b4                CDWHCIRegister::And(unsigned int)
                0x000777ec                CDWHCIRegister::Or(unsigned int)
                0x00077824                CDWHCIRegister::ClearBit(unsigned int)
                0x0007787c                CDWHCIRegister::SetBit(unsigned int)
                0x000778d4                CDWHCIRegister::ClearAll()
                0x000778e8                CDWHCIRegister::SetAll()
                0x000778fc                CDWHCIRegister::Dump() const
 .text          0x00077978     0x1020 ..//lib/usb/libusb.a(lan7800.o)
                0x00077978                CLAN7800Device::GetMACAddress() const
                0x00077980                CLAN7800Device::~CLAN7800Device()
                0x00077980                CLAN7800Device::~CLAN7800Device()
                0x00077a04                non-virtual thunk to CLAN7800Device::~CLAN7800Device()
                0x00077a0c                CLAN7800Device::~CLAN7800Device()
                0x00077a2c                CLAN7800Device::ReceiveFrame(void*, unsigned int*)
                0x00077b7c                non-virtual thunk to CLAN7800Device::ReceiveFrame(void*, unsigned int*)
                0x00077c08                CLAN7800Device::SendFrame(void const*, unsigned int)
                0x00077c40                non-virtual thunk to CLAN7800Device::GetMACAddress() const
                0x00077c48                non-virtual thunk to CLAN7800Device::~CLAN7800Device()
                0x00077c6c                non-virtual thunk to CLAN7800Device::SendFrame(void const*, unsigned int)
                0x00077ca8                CLAN7800Device::CLAN7800Device(CUSBFunction*)
                0x00077ca8                CLAN7800Device::CLAN7800Device(CUSBFunction*)
                0x00077ce8                CLAN7800Device::SetAddressFilter(int, unsigned char const*)
                0x00077d50                CLAN7800Device::WriteReg(unsigned int, unsigned int)
                0x00077de4                CLAN7800Device::ReadReg(unsigned int, unsigned int*)
                0x00077e74                CLAN7800Device::SetMulticastFilter(unsigned char const (*) [6])
                0x00077fc0                non-virtual thunk to CLAN7800Device::SetMulticastFilter(unsigned char const (*) [6])
                0x00077fc8                CLAN7800Device::WaitReg(unsigned int, unsigned int, unsigned int, unsigned int, unsigned int)
                0x00078074                CLAN7800Device::PHYWrite(unsigned char, unsigned short)
                0x0007812c                CLAN7800Device::PHYRead(unsigned char, unsigned short*)
                0x0007820c                CLAN7800Device::IsLinkUp()
                0x00078238                CLAN7800Device::GetLinkSpeed()
                0x000782f8                non-virtual thunk to CLAN7800Device::GetLinkSpeed()
                0x00078300                CLAN7800Device::InitPHY()
                0x00078364                non-virtual thunk to CLAN7800Device::IsLinkUp()
                0x00078394                CLAN7800Device::ReadWriteReg(unsigned int, unsigned int, unsigned int)
                0x000783e0                CLAN7800Device::InitMACAddress()
                0x00078504                CLAN7800Device::Configure()
 .text._ZN10CNetDevice7GetTypeEv
                0x00078998        0x8 ..//lib/usb/libusb.a(lan7800.o)
                0x00078998                CNetDevice::GetType()
 .text          0x000789a0     0x12c0 ..//lib/usb/libusb.a(smsc951x.o)
                0x000789a0                CSMSC951xDevice::GetMACAddress() const
                0x000789a8                CSMSC951xDevice::~CSMSC951xDevice()
                0x000789a8                CSMSC951xDevice::~CSMSC951xDevice()
                0x00078a2c                non-virtual thunk to CSMSC951xDevice::~CSMSC951xDevice()
                0x00078a34                CSMSC951xDevice::~CSMSC951xDevice()
                0x00078a54                CSMSC951xDevice::ReceiveFrame(void*, unsigned int*)
                0x00078bc0                non-virtual thunk to CSMSC951xDevice::ReceiveFrame(void*, unsigned int*)
                0x00078c44                CSMSC951xDevice::SendFrame(void const*, unsigned int)
                0x00078c78                non-virtual thunk to CSMSC951xDevice::GetMACAddress() const
                0x00078c80                non-virtual thunk to CSMSC951xDevice::~CSMSC951xDevice()
                0x00078ca4                non-virtual thunk to CSMSC951xDevice::SendFrame(void const*, unsigned int)
                0x00078cdc                CSMSC951xDevice::SetMulticastFilter(unsigned char const (*) [6])
                0x00078e44                non-virtual thunk to CSMSC951xDevice::SetMulticastFilter(unsigned char const (*) [6])
                0x00078e4c                CSMSC951xDevice::CSMSC951xDevice(CUSBFunction*)
                0x00078e4c                CSMSC951xDevice::CSMSC951xDevice(CUSBFunction*)
                0x00078e8c                CSMSC951xDevice::Hash(unsigned char const*)
                0x00078ea4                CSMSC951xDevice::PHYWaitNotBusy()
                0x00078f64                CSMSC951xDevice::PHYWrite(unsigned char, unsigned short)
                0x00079064                CSMSC951xDevice::PHYRead(unsigned char, unsigned short*)
                0x00079190                CSMSC951xDevice::IsLinkUp()
                0x0007927c                non-virtual thunk to CSMSC951xDevice::IsLinkUp()
                0x0007936c                CSMSC951xDevice::GetLinkSpeed()
                0x000794a8                non-virtual thunk to CSMSC951xDevice::GetLinkSpeed()
                0x000795e8                CSMSC951xDevice::WriteReg(unsigned int, unsigned int)
                0x00079650                CSMSC951xDevice::ReadReg(unsigned int, unsigned int*)
                0x000796b4                CSMSC951xDevice::DumpReg(char const*, unsigned int)
                0x00079768                CSMSC951xDevice::DumpRegs()
                0x000798b8                CSMSC951xDevice::Configure()
 .text          0x00079c60      0x5a0 ..//lib/usb/libusb.a(usbbluetooth.o)
                0x00079c60                CUSBBluetoothDevice::~CUSBBluetoothDevice()
                0x00079c60                CUSBBluetoothDevice::~CUSBBluetoothDevice()
                0x00079d50                CUSBBluetoothDevice::~CUSBBluetoothDevice()
                0x00079d70                CUSBBluetoothDevice::CUSBBluetoothDevice(CUSBFunction*)
                0x00079d70                CUSBBluetoothDevice::CUSBBluetoothDevice(CUSBFunction*)
                0x00079dac                CUSBBluetoothDevice::SendHCICommand(void const*, unsigned int)
                0x00079e04                CUSBBluetoothDevice::StartRequest()
                0x00079ec0                CUSBBluetoothDevice::RegisterHCIEventHandler(void (*)(void const*, unsigned int))
                0x00079ee8                CUSBBluetoothDevice::CompletionRoutine(CUSBRequest*)
                0x00079fd8                CUSBBluetoothDevice::CompletionStub(CUSBRequest*, void*, void*)
                0x0007a004                CUSBBluetoothDevice::Configure()
 .text.startup  0x0007a200       0x34 ..//lib/usb/libusb.a(usbbluetooth.o)
 .text          0x0007a234      0x684 ..//lib/usb/libusb.a(usbcdcethernet.o)
                0x0007a234                CUSBCDCEthernetDevice::GetMACAddress() const
                0x0007a23c                CUSBCDCEthernetDevice::~CUSBCDCEthernetDevice()
                0x0007a23c                CUSBCDCEthernetDevice::~CUSBCDCEthernetDevice()
                0x0007a2c0                non-virtual thunk to CUSBCDCEthernetDevice::~CUSBCDCEthernetDevice()
                0x0007a2c8                CUSBCDCEthernetDevice::~CUSBCDCEthernetDevice()
                0x0007a2e8                CUSBCDCEthernetDevice::SendFrame(void const*, unsigned int)
                0x0007a378                non-virtual thunk to CUSBCDCEthernetDevice::SendFrame(void const*, unsigned int)
                0x0007a380                CUSBCDCEthernetDevice::ReceiveFrame(void*, unsigned int*)
                0x0007a454                non-virtual thunk to CUSBCDCEthernetDevice::ReceiveFrame(void*, unsigned int*)
                0x0007a45c                CUSBCDCEthernetDevice::SetMulticastFilter(unsigned char const (*) [6])
                0x0007a4c0                non-virtual thunk to CUSBCDCEthernetDevice::SetMulticastFilter(unsigned char const (*) [6])
                0x0007a4c8                non-virtual thunk to CUSBCDCEthernetDevice::GetMACAddress() const
                0x0007a4d0                non-virtual thunk to CUSBCDCEthernetDevice::~CUSBCDCEthernetDevice()
                0x0007a4f4                CUSBCDCEthernetDevice::CUSBCDCEthernetDevice(CUSBFunction*)
                0x0007a4f4                CUSBCDCEthernetDevice::CUSBCDCEthernetDevice(CUSBFunction*)
                0x0007a5b0                CUSBCDCEthernetDevice::GetMACAddressStringIndex()
                0x0007a5f8                CUSBCDCEthernetDevice::InitMACAddress(unsigned char)
                0x0007a6f4                CUSBCDCEthernetDevice::Configure()
 .text._ZN10CNetDevice8IsLinkUpEv
                0x0007a8b8        0x8 ..//lib/usb/libusb.a(usbcdcethernet.o)
                0x0007a8b8                CNetDevice::IsLinkUp()
 .text          0x0007a8c0      0xcd0 ..//lib/usb/libusb.a(usbfloppydevice.o)
                0x0007a8c0                CUSBFloppyDiskDevice::Seek(unsigned long long)
                0x0007a8d4                CUSBFloppyDiskDevice::~CUSBFloppyDiskDevice()
                0x0007a8d4                CUSBFloppyDiskDevice::~CUSBFloppyDiskDevice()
                0x0007a9ac                CUSBFloppyDiskDevice::~CUSBFloppyDiskDevice()
                0x0007a9cc                CUSBFloppyDiskDevice::GetSize() const
                0x0007aa18                CUSBFloppyDiskDevice::CUSBFloppyDiskDevice(CUSBFunction*)
                0x0007aa18                CUSBFloppyDiskDevice::CUSBFloppyDiskDevice(CUSBFunction*)
                0x0007aa5c                CUSBFloppyDiskDevice::Command(void*, unsigned int, void*, unsigned int, bool)
                0x0007ad00                CUSBFloppyDiskDevice::WaitUnitReady()
                0x0007ae24                CUSBFloppyDiskDevice::TryRead(void*, unsigned int)
                0x0007af18                CUSBFloppyDiskDevice::TryWrite(void const*, unsigned int)
                0x0007b010                CUSBFloppyDiskDevice::Write(void const*, unsigned int)
                0x0007b0d8                CUSBFloppyDiskDevice::Read(void*, unsigned int)
                0x0007b1a0                CUSBFloppyDiskDevice::Reset()
                0x0007b1f4                CUSBFloppyDiskDevice::Configure()
 .text.startup  0x0007b590       0x34 ..//lib/usb/libusb.a(usbfloppydevice.o)
 .text          0x0007b5c4      0x35c ..//lib/usb/libusb.a(usbconfigparser.o)
                0x0007b5c4                CUSBConfigurationParser::CUSBConfigurationParser(void const*, unsigned int)
                0x0007b5c4                CUSBConfigurationParser::CUSBConfigurationParser(void const*, unsigned int)
                0x0007b748                CUSBConfigurationParser::CUSBConfigurationParser(CUSBConfigurationParser*)
                0x0007b748                CUSBConfigurationParser::CUSBConfigurationParser(CUSBConfigurationParser*)
                0x0007b7a8                CUSBConfigurationParser::~CUSBConfigurationParser()
                0x0007b7a8                CUSBConfigurationParser::~CUSBConfigurationParser()
                0x0007b7ac                CUSBConfigurationParser::IsValid() const
                0x0007b7b4                CUSBConfigurationParser::GetDescriptor(unsigned char)
                0x0007b870                CUSBConfigurationParser::GetCurrentDescriptor()
                0x0007b8b8                CUSBConfigurationParser::Error(char const*) const
 .text          0x0007b920      0x220 ..//lib/usb/libusb.a(usbgamepad.o)
                0x0007b920                CUSBGamePadDevice::GetInitialState()
                0x0007b928                CUSBGamePadDevice::Configure()
                0x0007b9e8                CUSBGamePadDevice::ReportHandler(unsigned char const*, unsigned int)
                0x0007ba3c                CUSBGamePadDevice::RegisterStatusHandler(void (*)(unsigned int, TGamePadState const*))
                0x0007ba7c                CUSBGamePadDevice::CUSBGamePadDevice(CUSBFunction*)
                0x0007ba7c                CUSBGamePadDevice::CUSBGamePadDevice(CUSBFunction*)
                0x0007bac0                CUSBGamePadDevice::~CUSBGamePadDevice()
                0x0007bac0                CUSBGamePadDevice::~CUSBGamePadDevice()
                0x0007bb20                CUSBGamePadDevice::~CUSBGamePadDevice()
 .text.startup  0x0007bb40       0x34 ..//lib/usb/libusb.a(usbgamepad.o)
 .text          0x0007bb74      0x6ec ..//lib/usb/libusb.a(usbmidi.o)
                0x0007bb74                CUSBMIDIDevice::~CUSBMIDIDevice()
                0x0007bb74                CUSBMIDIDevice::~CUSBMIDIDevice()
                0x0007bbf0                CUSBMIDIDevice::~CUSBMIDIDevice()
                0x0007bc48                CUSBMIDIDevice::CUSBMIDIDevice()
                0x0007bc48                CUSBMIDIDevice::CUSBMIDIDevice()
                0x0007bcb4                CUSBMIDIDevice::RegisterPacketHandler(void (*)(unsigned int, unsigned char*, unsigned int))
                0x0007bd0c                CUSBMIDIDevice::RegisterPacketHandler(void (*)(unsigned int, unsigned char*, unsigned int, unsigned int, void*), void*)
                0x0007bd58                CUSBMIDIDevice::SendEventPackets(unsigned char const*, unsigned int)
                0x0007bd8c                CUSBMIDIDevice::SendPlainMIDI(unsigned int, unsigned char const*, unsigned int, unsigned int)
                0x0007c144                CUSBMIDIDevice::SetAllSoundOffOnUSBError(bool)
                0x0007c14c                CUSBMIDIDevice::CallPacketHandler(unsigned char*, unsigned int)
                0x0007c204                CUSBMIDIDevice::RegisterSendEventsHandler(bool (*)(unsigned char const*, unsigned int, void*), void*)
                0x0007c258                CUSBMIDIDevice::GetAllSoundOffOnUSBError() const
 .text.startup  0x0007c260       0x34 ..//lib/usb/libusb.a(usbmidi.o)
 .text          0x0007c294      0x830 ..//lib/usb/libusb.a(usbserialhost.o)
                0x0007c294                CUSBSerialHostDevice::SetBaudRate(unsigned int)
                0x0007c29c                CUSBSerialHostDevice::SetLineProperties(TUSBSerialDataBits, TUSBSerialParity, TUSBSerialStopBits)
                0x0007c2a4                CUSBSerialHostDevice::~CUSBSerialHostDevice()
                0x0007c2a4                CUSBSerialHostDevice::~CUSBSerialHostDevice()
                0x0007c354                CUSBSerialHostDevice::~CUSBSerialHostDevice()
                0x0007c374                CUSBSerialHostDevice::Write(void const*, unsigned int)
                0x0007c484                CUSBSerialHostDevice::Read(void*, unsigned int)
                0x0007c66c                CUSBSerialHostDevice::WriteHandler(void const*, unsigned int, void*)
                0x0007c6a8                CUSBSerialHostDevice::ReadHandler(void*, unsigned int, void*)
                0x0007c6e4                CUSBSerialHostDevice::SetLinePropertiesHandler(TUSBSerialDataBits, TUSBSerialParity, TUSBSerialStopBits, void*)
                0x0007c740                CUSBSerialHostDevice::SetBaudRateHandler(unsigned int, void*)
                0x0007c790                CUSBSerialHostDevice::CUSBSerialHostDevice(CUSBFunction*, unsigned int)
                0x0007c790                CUSBSerialHostDevice::CUSBSerialHostDevice(CUSBFunction*, unsigned int)
                0x0007c7f4                CUSBSerialHostDevice::CompletionRoutine(CUSBRequest*)
                0x0007c8e8                CUSBSerialHostDevice::CompletionStub(CUSBRequest*, void*, void*)
                0x0007c918                CUSBSerialHostDevice::Configure()
 .text          0x0007cac4      0x3f0 ..//lib/usb/libusb.a(usbserial.o)
                0x0007cac4                CUSBSerialDevice::~CUSBSerialDevice()
                0x0007cac4                CUSBSerialDevice::~CUSBSerialDevice()
                0x0007cb24                CUSBSerialDevice::Write(void const*, unsigned int)
                0x0007cbf4                CUSBSerialDevice::Read(void*, unsigned int)
                0x0007cc38                CUSBSerialDevice::~CUSBSerialDevice()
                0x0007cca4                CUSBSerialDevice::CUSBSerialDevice()
                0x0007cca4                CUSBSerialDevice::CUSBSerialDevice()
                0x0007cd18                CUSBSerialDevice::SetBaudRate(unsigned int)
                0x0007cd3c                CUSBSerialDevice::SetLineProperties(TUSBSerialDataBits, TUSBSerialParity, TUSBSerialStopBits)
                0x0007cd74                CUSBSerialDevice::GetOptions() const
                0x0007cd7c                CUSBSerialDevice::SetOptions(unsigned int)
                0x0007cd84                CUSBSerialDevice::RegisterWriteHandler(int (*)(void const*, unsigned int, void*), void*)
                0x0007cdd0                CUSBSerialDevice::RegisterReadHandler(int (*)(void*, unsigned int, void*), void*)
                0x0007ce1c                CUSBSerialDevice::RegisterSetBaudRateHandler(bool (*)(unsigned int, void*), void*)
                0x0007ce68                CUSBSerialDevice::RegisterSetLinePropertiesHandler(bool (*)(TUSBSerialDataBits, TUSBSerialParity, TUSBSerialStopBits, void*), void*)
 .text.startup  0x0007ceb4       0x34 ..//lib/usb/libusb.a(usbserial.o)
 .text          0x0007cee8     0x54e8 ..//addon/fatfs/libfatfs.a(ff.o)
                0x0007f404                f_mount
                0x0007f4fc                f_open
                0x0007f8d8                f_read
                0x0007fb9c                f_write
                0x0007febc                f_sync
                0x00080024                f_close
                0x00080078                f_chdrive
                0x000800b0                f_chdir
                0x000801cc                f_getcwd
                0x000804e8                f_lseek
                0x000807dc                f_opendir
                0x00080938                f_closedir
                0x000809d4                f_readdir
                0x00080afc                f_findnext
                0x00080b98                f_findfirst
                0x00080bc8                f_stat
                0x00080d04                f_getfree
                0x00080e80                f_truncate
                0x00081070                f_unlink
                0x00081210                f_mkdir
                0x00081488                f_rename
                0x000816f0                f_chmod
                0x00081808                f_utime
                0x0008192c                f_gets
                0x000819b4                f_putc
                0x00081a90                f_puts
                0x00081b78                f_printf
 .text          0x000823d0      0x350 ..//addon/fatfs/libfatfs.a(diskio.o)
                0x000823dc                disk_status
                0x000823fc                disk_initialize
                0x00082460                disk_read
                0x00082540                disk_write
                0x000825f8                disk_ioctl
 .text          0x00082720      0x2b8 ..//addon/fatfs/libfatfs.a(ffsystem.o)
                0x00082720                ff_mutex_create
                0x0008278c                ff_mutex_delete
                0x000827f0                ff_mutex_take
                0x0008285c                ff_mutex_give
                0x000828bc                ff_memalloc
                0x000828c0                ff_memfree
                0x000828c4                get_fattime
 .text          0x000829d8      0x1b8 ..//addon/fatfs/libfatfs.a(ffunicode.o)
                0x000829d8                ff_uni2oem
                0x00082a48                ff_oem2uni
                0x00082a8c                ff_wtoupper
 .text          0x00082b90     0x1384 ..//addon/SDCard/libsdcard.a(emmc.o)
                0x00082b90                CEMMCDevice::Seek(unsigned long long)
                0x00082ba4                CEMMCDevice::GetSize() const
                0x00082bb0                CEMMCDevice::CEMMCDevice(CInterruptSystem*, CTimer*, CActLED*)
                0x00082bb0                CEMMCDevice::CEMMCDevice(CInterruptSystem*, CTimer*, CActLED*)
                0x00082c7c                CEMMCDevice::GetCSDField(unsigned int, unsigned int) const
                0x00082cb8                CEMMCDevice::usDelay(unsigned int)
                0x00082cec                CEMMCDevice::LogWrite(TLogSeverity, char const*, ...)
                0x00082d5c                CEMMCDevice::IssueCommandInt(unsigned int, unsigned int, int)
                0x00082f18                CEMMCDevice::IssueCommand(unsigned int, unsigned int, int)
                0x00083014                CEMMCDevice::DoDataCommand(int, unsigned char*, unsigned int, unsigned int)
                0x0008319c                CEMMCDevice::CardReset()
                0x00083920                CEMMCDevice::CardInit()
                0x00083960                CEMMCDevice::EnsureDataMode()
                0x00083b24                CEMMCDevice::DoRead(unsigned char*, unsigned int, unsigned int)
                0x00083b78                CEMMCDevice::DoWrite(unsigned char*, unsigned int, unsigned int)
                0x00083bd0                CEMMCDevice::Read(void*, unsigned int)
                0x00083c98                CEMMCDevice::Write(void const*, unsigned int)
                0x00083d64                CEMMCDevice::GetID()
                0x00083d6c                CEMMCDevice::~CEMMCDevice()
                0x00083d6c                CEMMCDevice::~CEMMCDevice()
                0x00083df4                CEMMCDevice::~CEMMCDevice()
                0x00083e14                CEMMCDevice::Initialize()
 .text          0x00083f14      0x3fc ..//addon/SDCard/libsdcard.a(mmchost.o)
                0x00083f14                CMMCHost::CMMCHost()
                0x00083f14                CMMCHost::CMMCHost()
                0x00083f3c                CMMCHost::~CMMCHost()
                0x00083f3c                CMMCHost::~CMMCHost()
                0x00083f40                CMMCHost::~CMMCHost()
                0x00083f58                CMMCHost::SetClock(unsigned int)
                0x00083f70                CMMCHost::SetBusWidth(unsigned int)
                0x00083fc0                CMMCHost::RequestSync(mmc_request*)
                0x00084010                CMMCHost::PrepareRequest(mmc_request*)
                0x000840c4                CMMCHost::Command(mmc_command*, unsigned int)
                0x000841fc                mmc_request_done(mmc_host*, mmc_request*)
                0x00084234                CMMCHost::sg_miter_start(sg_mapping_iter*, void*, unsigned int, unsigned int)
                0x0008429c                CMMCHost::sg_miter_next(sg_mapping_iter*)
                0x0008430c                CMMCHost::sg_miter_stop(sg_mapping_iter*)
 .text          0x00084310     0x24ec ..//addon/SDCard/libsdcard.a(sdhost.o)
                0x000843a8                CSDHOSTDevice::CSDHOSTDevice(CInterruptSystem*, CTimer*)
                0x000843a8                CSDHOSTDevice::CSDHOSTDevice(CInterruptSystem*, CTimer*)
                0x00084480                CSDHOSTDevice::set_sdhost_clock(unsigned int*)
                0x00084504                CSDHOSTDevice::dumpcmd(mmc_command*, char const*)
                0x00084510                CSDHOSTDevice::dumpregs()
                0x000847f4                CSDHOSTDevice::set_power(bool)
                0x00084804                CSDHOSTDevice::reset_internal()
                0x000848d4                CSDHOSTDevice::Reset()
                0x00084920                CSDHOSTDevice::reset(mmc_host*)
                0x00084958                CSDHOSTDevice::wait_transfer_complete()
                0x00084a28                CSDHOSTDevice::read_block_pio()
                0x00084bf0                CSDHOSTDevice::write_block_pio()
                0x00084dbc                CSDHOSTDevice::transfer_pio()
                0x00084ed8                CSDHOSTDevice::set_transfer_irqs()
                0x00084efc                CSDHOSTDevice::prepare_data(mmc_command*)
                0x00085024                CSDHOSTDevice::set_clock(unsigned int)
                0x00085334                CSDHOSTDevice::set_ios(mmc_host*, mmc_ios*)
                0x00085438                CSDHOSTDevice::SetIOS(mmc_ios*)
                0x00085478                CSDHOSTDevice::init(int)
                0x000854bc                CSDHOSTDevice::tasklet_finish()
                0x00085648                CSDHOSTDevice::send_command(mmc_command*)
                0x00085888                CSDHOSTDevice::finish_command()
                0x00085c90                CSDHOSTDevice::transfer_complete()
                0x00085d88                CSDHOSTDevice::finish_data()
                0x00085e04                CSDHOSTDevice::data_irq(unsigned int)
                0x00085ecc                CSDHOSTDevice::block_irq(unsigned int)
                0x00085fc4                CSDHOSTDevice::busy_irq(unsigned int)
                0x00086124                CSDHOSTDevice::irq_handler()
                0x000861cc                CSDHOSTDevice::irq_stub(void*)
                0x00086208                CSDHOSTDevice::request(mmc_host*, mmc_request*)
                0x000864dc                CSDHOSTDevice::Request(mmc_request*)
                0x0008651c                CSDHOSTDevice::add_host()
                0x00086630                CSDHOSTDevice::probe()
                0x0008670c                CSDHOSTDevice::Initialize()
                0x00086728                CSDHOSTDevice::remove()
                0x00086754                CSDHOSTDevice::~CSDHOSTDevice()
                0x00086754                CSDHOSTDevice::~CSDHOSTDevice()
                0x000867dc                CSDHOSTDevice::~CSDHOSTDevice()
 .text          0x000867fc      0x384 ..//lib/input/libinput.a(keyboardbehaviour.o)
                0x000867fc                CKeyboardBehaviour::CKeyboardBehaviour()
                0x000867fc                CKeyboardBehaviour::CKeyboardBehaviour()
                0x0008682c                CKeyboardBehaviour::~CKeyboardBehaviour()
                0x0008682c                CKeyboardBehaviour::~CKeyboardBehaviour()
                0x00086854                CKeyboardBehaviour::RegisterKeyPressedHandler(void (*)(char const*))
                0x00086880                CKeyboardBehaviour::RegisterSelectConsoleHandler(void (*)(unsigned int))
                0x000868ac                CKeyboardBehaviour::RegisterShutdownHandler(void (*)())
                0x000868d8                CKeyboardBehaviour::GetLEDStatus() const
                0x000868e0                CKeyboardBehaviour::GenerateKeyEvent(unsigned char)
                0x000869b4                CKeyboardBehaviour::TimerStub(unsigned int, void*, void*)
                0x00086a54                CKeyboardBehaviour::KeyPressed(unsigned char)
                0x00086a94                CKeyboardBehaviour::KeyReleased(unsigned char)
                0x00086afc                CKeyboardBehaviour::TimerHandler(unsigned int)
 .text          0x00086b80      0x458 ..//lib/input/libinput.a(keymap.o)
                0x00086b80                CKeyMap::CKeyMap()
                0x00086b80                CKeyMap::CKeyMap()
                0x00086c78                CKeyMap::~CKeyMap()
                0x00086c78                CKeyMap::~CKeyMap()
                0x00086c7c                CKeyMap::ClearTable(unsigned char)
                0x00086cb0                CKeyMap::SetEntry(unsigned char, unsigned char, unsigned short)
                0x00086d04                CKeyMap::Translate(unsigned char, unsigned char)
                0x00086e74                CKeyMap::GetString(unsigned short, unsigned char, char*) const
                0x00086f38                CKeyMap::GetLEDStatus() const
                0x00086f58                CKeyMap::LookupDefaultMap(char const*)
 .text          0x00086fd8      0x240 ..//lib/input/libinput.a(mouse.o)
                0x00086fe0                CMouseDevice::~CMouseDevice()
                0x00086fe0                CMouseDevice::~CMouseDevice()
                0x00087040                CMouseDevice::~CMouseDevice()
                0x00087060                CMouseDevice::CMouseDevice(unsigned int, bool)
                0x00087060                CMouseDevice::CMouseDevice(unsigned int, bool)
                0x000870e0                CMouseDevice::Setup(CDisplay*, bool)
                0x000870e8                CMouseDevice::Release()
                0x000870f0                CMouseDevice::RegisterEventHandler(void (*)(TMouseEvent, unsigned int, unsigned int, unsigned int, int))
                0x000870f8                CMouseDevice::SetCursor(unsigned int, unsigned int)
                0x00087100                CMouseDevice::ShowCursor(bool)
                0x00087108                CMouseDevice::UpdateCursor()
                0x0008711c                CMouseDevice::RegisterStatusHandler(void (*)(unsigned int, int, int, int, void*), void*)
                0x00087168                CMouseDevice::RegisterStatusHandler(void (*)(unsigned int, int, int, int))
                0x000871a4                CMouseDevice::ReportHandler(unsigned int, int, int, int)
                0x00087208                CMouseDevice::GetButtonCount() const
                0x00087210                CMouseDevice::HasWheel() const
 .text.startup  0x00087218       0x34 ..//lib/input/libinput.a(mouse.o)
 .text          0x0008724c      0x498 ..//lib/input/libinput.a(touchscreen.o)
                0x0008724c                CTouchScreenDevice::~CTouchScreenDevice()
                0x0008724c                CTouchScreenDevice::~CTouchScreenDevice()
                0x000872ac                CTouchScreenDevice::~CTouchScreenDevice()
                0x00087318                CTouchScreenDevice::CTouchScreenDevice(void (*)(void*), void*)
                0x00087318                CTouchScreenDevice::CTouchScreenDevice(void (*)(void*), void*)
                0x000873b4                CTouchScreenDevice::Setup(CDisplay*)
                0x00087460                CTouchScreenDevice::Update()
                0x00087474                CTouchScreenDevice::RegisterEventHandler(void (*)(TTouchScreenEvent, unsigned int, unsigned int, unsigned int))
                0x000874bc                CTouchScreenDevice::SetCalibration(unsigned int const*)
                0x000875cc                CTouchScreenDevice::ReportHandler(TTouchScreenEvent, unsigned int, unsigned int, unsigned int)
 .text.startup  0x000876e4       0x34 ..//lib/input/libinput.a(touchscreen.o)
 .text          0x00087718      0x754 ..//lib/input/libinput.a(mousebehaviour.o)
                0x000877a4                CMouseBehaviour::CMouseBehaviour()
                0x000877a4                CMouseBehaviour::CMouseBehaviour()
                0x000877d8                CMouseBehaviour::~CMouseBehaviour()
                0x000877d8                CMouseBehaviour::~CMouseBehaviour()
                0x0008781c                CMouseBehaviour::Setup(CDisplay*, bool)
                0x00087a74                CMouseBehaviour::Release()
                0x00087af0                CMouseBehaviour::RegisterEventHandler(void (*)(TMouseEvent, unsigned int, unsigned int, unsigned int, int))
                0x00087b38                CMouseBehaviour::SetCursor(unsigned int, unsigned int)
                0x00087bd8                CMouseBehaviour::ShowCursor(bool)
                0x00087c54                CMouseBehaviour::UpdateCursor()
                0x00087c90                CMouseBehaviour::MouseStatusChanged(unsigned int, int, int, int)
                0x00087e54                CMouseBehaviour::SetCursorState(unsigned int, unsigned int, bool)
 .text          0x00087e6c      0x314 ..//lib/fs/libfs.a(partitionmanager.o)
                0x00087e6c                CPartitionManager::CPartitionManager(CDevice*, char const*)
                0x00087e6c                CPartitionManager::CPartitionManager(CDevice*, char const*)
                0x00087ea0                CPartitionManager::~CPartitionManager()
                0x00087ea0                CPartitionManager::~CPartitionManager()
                0x00087f60                CPartitionManager::Initialize()
 .text          0x00088180      0x294 ..//lib/fs/libfs.a(partition.o)
                0x00088180                CPartition::Read(void*, unsigned int)
                0x00088208                CPartition::Write(void const*, unsigned int)
                0x00088290                CPartition::Seek(unsigned long long)
                0x0008834c                CPartition::~CPartition()
                0x0008834c                CPartition::~CPartition()
                0x00088374                CPartition::~CPartition()
                0x000883a8                CPartition::CPartition(CDevice*, unsigned int, unsigned int)
                0x000883a8                CPartition::CPartition(CDevice*, unsigned int, unsigned int)
 .text          0x00088414      0x3a4 ..//lib/net/libnet.a(netsubsystem.o)
                0x00088414                CNetSubSystem::CNetSubSystem(unsigned char const*, unsigned char const*, unsigned char const*, unsigned char const*, char const*, TNetDeviceType)
                0x00088414                CNetSubSystem::CNetSubSystem(unsigned char const*, unsigned char const*, unsigned char const*, unsigned char const*, char const*, TNetDeviceType)
                0x00088548                CNetSubSystem::Initialize(bool)
                0x00088638                CNetSubSystem::Process()
                0x000886d4                CNetSubSystem::GetConfig()
                0x000886dc                CNetSubSystem::GetNetDeviceLayer()
                0x000886e4                CNetSubSystem::GetLinkLayer()
                0x000886ec                CNetSubSystem::GetNetworkLayer()
                0x000886f4                CNetSubSystem::GetTransportLayer()
                0x000886fc                CNetSubSystem::IsRunning() const
                0x00088734                CNetSubSystem::GetHostname() const
                0x00088738                CNetSubSystem::Get()
                0x00088768                CNetSubSystem::~CNetSubSystem()
                0x00088768                CNetSubSystem::~CNetSubSystem()
 .text          0x000887b8       0xe0 ..//lib/net/libnet.a(nettask.o)
                0x000887b8                CNetTask::~CNetTask()
                0x000887b8                CNetTask::~CNetTask()
                0x000887e0                CNetTask::~CNetTask()
                0x00088814                CNetTask::Run()
                0x00088858                CNetTask::CNetTask(CNetSubSystem*)
                0x00088858                CNetTask::CNetTask(CNetSubSystem*)
 .text          0x00088898      0xa0c ..//lib/net/libnet.a(socket.o)
                0x00088898                CSocket::~CSocket()
                0x00088898                CSocket::~CSocket()
                0x00088958                CSocket::~CSocket()
                0x00088978                CSocket::Bind(unsigned short)
                0x000889d4                CSocket::Connect(CIPAddress const&, unsigned short)
                0x00088ab4                CSocket::Listen(unsigned int)
                0x00088b98                CSocket::Send(void const*, unsigned int, int)
                0x00088c0c                CSocket::Receive(void*, unsigned int, int)
                0x00088cb8                CSocket::SendTo(void const*, unsigned int, int, CIPAddress const&, unsigned short)
                0x00088da4                CSocket::ReceiveFrom(void*, unsigned int, int, CIPAddress*, unsigned short*)
                0x00088e6c                CSocket::SetOptionBroadcast(bool)
                0x00088ec4                CSocket::SetOptionAddMembership(CIPAddress const&)
                0x00088f14                CSocket::SetOptionDropMembership(CIPAddress const&)
                0x00088f64                CSocket::GetForeignIP() const
                0x00088fa8                CSocket::CSocket(CNetSubSystem*, int)
                0x00088fa8                CSocket::CSocket(CNetSubSystem*, int)
                0x00089044                CSocket::CSocket(CSocket&, int)
                0x00089044                CSocket::CSocket(CSocket&, int)
                0x000890e4                CSocket::Accept(CIPAddress*, unsigned short*)
 .text          0x000892a4     0x13b0 ..//lib/net/libnet.a(transportlayer.o)
                0x000892a4                CTransportLayer::CTransportLayer(CNetConfig*, CNetworkLayer*)
                0x000892a4                CTransportLayer::CTransportLayer(CNetConfig*, CNetworkLayer*)
                0x00089338                CTransportLayer::Initialize()
                0x00089340                CTransportLayer::Bind(unsigned short, int)
                0x000894ac                CTransportLayer::Connect(CIPAddress const&, unsigned short, unsigned short, int)
                0x0008974c                CTransportLayer::Listen(unsigned short, int)
                0x000898bc                CTransportLayer::Accept(CIPAddress*, unsigned short*, int)
                0x00089998                CTransportLayer::Disconnect(int)
                0x00089a24                CTransportLayer::Send(void const*, unsigned int, int, int)
                0x00089b0c                CTransportLayer::Receive(void*, int, int)
                0x00089bc8                CTransportLayer::SendTo(void const*, unsigned int, int, CIPAddress const&, unsigned short, int)
                0x00089cbc                CTransportLayer::ReceiveFrom(void*, int, CIPAddress*, unsigned short*, int)
                0x00089d8c                CTransportLayer::SetOptionBroadcast(bool, int)
                0x00089e20                CTransportLayer::SetOptionAddMembership(CIPAddress const&, int)
                0x00089eb4                CTransportLayer::SetOptionDropMembership(CIPAddress const&, int)
                0x00089f48                CTransportLayer::IsConnected(int) const
                0x00089fcc                CTransportLayer::GetForeignIP(int) const
                0x0008a038                CTransportLayer::~CTransportLayer()
                0x0008a038                CTransportLayer::~CTransportLayer()
                0x0008a064                CTransportLayer::Process()
                0x0008a39c                CTransportLayer::ListConnections(CDevice*)
 .text._ZN12CTCPRejector7ConnectEv
                0x0008a654        0x8 ..//lib/net/libnet.a(transportlayer.o)
                0x0008a654                CTCPRejector::Connect()
 .text._ZN12CTCPRejector6AcceptEP10CIPAddressPt
                0x0008a65c        0x8 ..//lib/net/libnet.a(transportlayer.o)
                0x0008a65c                CTCPRejector::Accept(CIPAddress*, unsigned short*)
 .text._ZN12CTCPRejector5CloseEv
                0x0008a664        0x8 ..//lib/net/libnet.a(transportlayer.o)
                0x0008a664                CTCPRejector::Close()
 .text._ZN12CTCPRejector4SendEPKvji
                0x0008a66c        0x8 ..//lib/net/libnet.a(transportlayer.o)
                0x0008a66c                CTCPRejector::Send(void const*, unsigned int, int)
 .text._ZN12CTCPRejector7ReceiveEPvi
                0x0008a674        0x8 ..//lib/net/libnet.a(transportlayer.o)
                0x0008a674                CTCPRejector::Receive(void*, int)
 .text._ZN12CTCPRejector6SendToEPKvjiRK10CIPAddresst
                0x0008a67c        0x8 ..//lib/net/libnet.a(transportlayer.o)
                0x0008a67c                CTCPRejector::SendTo(void const*, unsigned int, int, CIPAddress const&, unsigned short)
 .text._ZN12CTCPRejector11ReceiveFromEPviP10CIPAddressPt
                0x0008a684        0x8 ..//lib/net/libnet.a(transportlayer.o)
                0x0008a684                CTCPRejector::ReceiveFrom(void*, int, CIPAddress*, unsigned short*)
 .text._ZN12CTCPRejector18SetOptionBroadcastEb
                0x0008a68c        0x8 ..//lib/net/libnet.a(transportlayer.o)
                0x0008a68c                CTCPRejector::SetOptionBroadcast(bool)
 .text._ZN12CTCPRejector22SetOptionAddMembershipERK10CIPAddress
                0x0008a694        0x8 ..//lib/net/libnet.a(transportlayer.o)
                0x0008a694                CTCPRejector::SetOptionAddMembership(CIPAddress const&)
 .text._ZN12CTCPRejector23SetOptionDropMembershipERK10CIPAddress
                0x0008a69c        0x8 ..//lib/net/libnet.a(transportlayer.o)
                0x0008a69c                CTCPRejector::SetOptionDropMembership(CIPAddress const&)
 .text._ZNK12CTCPRejector11IsConnectedEv
                0x0008a6a4        0x8 ..//lib/net/libnet.a(transportlayer.o)
                0x0008a6a4                CTCPRejector::IsConnected() const
 .text._ZNK12CTCPRejector12IsTerminatedEv
                0x0008a6ac        0x8 ..//lib/net/libnet.a(transportlayer.o)
                0x0008a6ac                CTCPRejector::IsTerminated() const
 .text._ZN12CTCPRejector7ProcessEv
                0x0008a6b4        0x4 ..//lib/net/libnet.a(transportlayer.o)
                0x0008a6b4                CTCPRejector::Process()
 .text._ZN12CTCPRejector20NotificationReceivedE21TICMPNotificationTypeR10CIPAddressS2_tti
                0x0008a6b8        0x8 ..//lib/net/libnet.a(transportlayer.o)
                0x0008a6b8                CTCPRejector::NotificationReceived(TICMPNotificationType, CIPAddress&, CIPAddress&, unsigned short, unsigned short, int)
 .text          0x0008a6c0      0xcf8 ..//lib/net/libnet.a(networklayer.o)
                0x0008a6c0                CNetworkLayer::CNetworkLayer(CNetConfig*, CLinkLayer*)
                0x0008a6c0                CNetworkLayer::CNetworkLayer(CNetConfig*, CLinkLayer*)
                0x0008a74c                CNetworkLayer::~CNetworkLayer()
                0x0008a74c                CNetworkLayer::~CNetworkLayer()
                0x0008a804                CNetworkLayer::Initialize()
                0x0008a8b0                CNetworkLayer::Process()
                0x0008ab5c                CNetworkLayer::Send(CIPAddress const&, void const*, unsigned int, int, bool)
                0x0008ae38                CNetworkLayer::Receive(void*, unsigned int*, CIPAddress*, CIPAddress*, int*)
                0x0008af68                CNetworkLayer::ReceiveNotification(TICMPNotificationType*, CIPAddress*, CIPAddress*, unsigned short*, unsigned short*, int*)
                0x0008b0c8                CNetworkLayer::EnableReceiveICMP(bool)
                0x0008b180                CNetworkLayer::ReceiveICMP(void*, unsigned int*, CIPAddress*, CIPAddress*)
                0x0008b2b8                CNetworkLayer::JoinHostGroup(CIPAddress const&)
                0x0008b2e8                CNetworkLayer::LeaveHostGroup(CIPAddress const&)
                0x0008b314                CNetworkLayer::AddRoute(unsigned char const*, unsigned char const*)
                0x0008b31c                CNetworkLayer::GetGateway(unsigned char const*) const
                0x0008b388                CNetworkLayer::SendFailed(unsigned int, void const*, unsigned int)
 .text          0x0008b3b8      0xab0 ..//lib/net/libnet.a(linklayer.o)
                0x0008b3b8                CLinkLayer::CLinkLayer(CNetConfig*, CNetDeviceLayer*)
                0x0008b3b8                CLinkLayer::CLinkLayer(CNetConfig*, CNetDeviceLayer*)
                0x0008b474                CLinkLayer::~CLinkLayer()
                0x0008b474                CLinkLayer::~CLinkLayer()
                0x0008b4ec                CLinkLayer::Initialize()
                0x0008b550                CLinkLayer::AttachLayer(CNetworkLayer*)
                0x0008b598                CLinkLayer::Process()
                0x0008b79c                CLinkLayer::Send(CIPAddress const&, void const*, unsigned int)
                0x0008b9b0                CLinkLayer::Receive(void*, unsigned int*)
                0x0008ba10                CLinkLayer::SendRaw(void const*, unsigned int)
                0x0008ba7c                CLinkLayer::ReceiveRaw(void*, unsigned int*, CMACAddress*)
                0x0008bb38                CLinkLayer::EnableReceiveRaw(unsigned short)
                0x0008bb84                CLinkLayer::IsRunning() const
                0x0008bbb4                CLinkLayer::UpdateMulticastFilter()
                0x0008bc54                CLinkLayer::JoinLocalGroup(CIPAddress const&)
                0x0008bd3c                CLinkLayer::LeaveLocalGroup(CIPAddress const&)
                0x0008bde8                CLinkLayer::ResolveFailed(void const*, unsigned int)
 .text          0x0008be68      0x3f4 ..//lib/net/libnet.a(netdevlayer.o)
                0x0008be68                CNetDeviceLayer::CNetDeviceLayer(CNetConfig*, TNetDeviceType)
                0x0008be68                CNetDeviceLayer::CNetDeviceLayer(CNetConfig*, TNetDeviceType)
                0x0008be94                CNetDeviceLayer::~CNetDeviceLayer()
                0x0008be94                CNetDeviceLayer::~CNetDeviceLayer()
                0x0008bec0                CNetDeviceLayer::Initialize(bool)
                0x0008c024                CNetDeviceLayer::Process()
                0x0008c16c                CNetDeviceLayer::GetMACAddress() const
                0x0008c184                CNetDeviceLayer::Send(void const*, unsigned int)
                0x0008c190                CNetDeviceLayer::Receive(void*, unsigned int*)
                0x0008c1e0                CNetDeviceLayer::IsRunning() const
                0x0008c210                CNetDeviceLayer::SetMulticastFilter(unsigned char const (*) [6])
 .text._ZN10CNetDevice18SetMulticastFilterEPA6_Kh
                0x0008c25c        0x8 ..//lib/net/libnet.a(netdevlayer.o)
                0x0008c25c                CNetDevice::SetMulticastFilter(unsigned char const (*) [6])
 .text          0x0008c264      0x104 ..//lib/net/libnet.a(phytask.o)
                0x0008c264                CPHYTask::~CPHYTask()
                0x0008c264                CPHYTask::~CPHYTask()
                0x0008c28c                CPHYTask::~CPHYTask()
                0x0008c2c0                CPHYTask::Run()
                0x0008c328                CPHYTask::CPHYTask(CNetDevice*)
                0x0008c328                CPHYTask::CPHYTask(CNetDevice*)
 .text          0x0008c368      0xc4c ..//lib/net/libnet.a(arphandler.o)
                0x0008c368                CARPHandler::TimerHandler(unsigned int, void*, void*)
                0x0008c40c                CARPHandler::CARPHandler(CNetConfig*, CNetDeviceLayer*, CLinkLayer*, CNetQueue*)
                0x0008c40c                CARPHandler::CARPHandler(CNetConfig*, CNetDeviceLayer*, CLinkLayer*, CNetQueue*)
                0x0008c4a4                CARPHandler::~CARPHandler()
                0x0008c4a4                CARPHandler::~CARPHandler()
                0x0008c504                CARPHandler::ReplyReceived(CIPAddress const&, CMACAddress const&)
                0x0008c5dc                CARPHandler::RequestReceived(CIPAddress const&, CMACAddress const&)
                0x0008c758                CARPHandler::SendPacket(bool, CIPAddress const&, CMACAddress const&)
                0x0008c880                CARPHandler::Process()
                0x0008cc80                CARPHandler::Resolve(CIPAddress const&, CMACAddress*, void const*, unsigned int)
 .text          0x0008cfb4      0x6c8 ..//lib/net/libnet.a(icmphandler.o)
                0x0008cfb4                CICMPHandler::CICMPHandler(CNetConfig*, CNetworkLayer*, CNetQueue*, CNetQueue*)
                0x0008cfb4                CICMPHandler::CICMPHandler(CNetConfig*, CNetworkLayer*, CNetQueue*, CNetQueue*)
                0x0008d034                CICMPHandler::~CICMPHandler()
                0x0008d034                CICMPHandler::~CICMPHandler()
                0x0008d038                CICMPHandler::EnqueueNotification(TICMPNotificationType, TIPHeader*, TICMPDataDatagramHeader*)
                0x0008d130                CICMPHandler::Process()
                0x0008d4dc                CICMPHandler::DestinationUnreachable(unsigned int, void const*, unsigned int)
 .text          0x0008d67c      0x7f8 ..//lib/net/libnet.a(igmphandler.o)
                0x0008d67c                CIGMPHandler::CIGMPHandler(CNetConfig*, CNetworkLayer*, CLinkLayer*, CNetQueue*)
                0x0008d67c                CIGMPHandler::CIGMPHandler(CNetConfig*, CNetworkLayer*, CLinkLayer*, CNetQueue*)
                0x0008d764                CIGMPHandler::~CIGMPHandler()
                0x0008d764                CIGMPHandler::~CIGMPHandler()
                0x0008d7a4                CIGMPHandler::SendPacket(bool, CIPAddress const&)
                0x0008d894                CIGMPHandler::JoinHostGroup(CIPAddress const&)
                0x0008d99c                CIGMPHandler::LeaveHostGroup(CIPAddress const&)
                0x0008da68                CIGMPHandler::Process()
                0x0008de28                CIGMPHandler::GetRandom(unsigned int)
 .text          0x0008de74      0x1fc ..//lib/net/libnet.a(routecache.o)
                0x0008de74                CRouteCache::CRouteCache()
                0x0008de74                CRouteCache::CRouteCache()
                0x0008de90                CRouteCache::Flush()
                0x0008dedc                CRouteCache::~CRouteCache()
                0x0008dedc                CRouteCache::~CRouteCache()
                0x0008def8                CRouteCache::AddRoute(unsigned char const*, unsigned char const*)
                0x0008dfdc                CRouteCache::GetRoute(unsigned char const*) const
 .text          0x0008e070      0x244 ..//lib/net/libnet.a(netconnection.o)
                0x0008e070                CNetConnection::GetStateName() const
                0x0008e07c                CNetConnection::CNetConnection(CNetConfig*, CNetworkLayer*, CIPAddress const&, unsigned short, unsigned short, int)
                0x0008e07c                CNetConnection::CNetConnection(CNetConfig*, CNetworkLayer*, CIPAddress const&, unsigned short, unsigned short, int)
                0x0008e12c                CNetConnection::CNetConnection(CNetConfig*, CNetworkLayer*, unsigned short, int)
                0x0008e12c                CNetConnection::CNetConnection(CNetConfig*, CNetworkLayer*, unsigned short, int)
                0x0008e1d0                CNetConnection::~CNetConnection()
                0x0008e1d0                CNetConnection::~CNetConnection()
                0x0008e208                CNetConnection::~CNetConnection()
                0x0008e24c                CNetConnection::GetForeignIP() const
                0x0008e27c                CNetConnection::GetForeignPort() const
                0x0008e284                CNetConnection::GetOwnPort() const
                0x0008e2ac                CNetConnection::GetProtocol() const
 .text          0x0008e2b4      0xc30 ..//lib/net/libnet.a(udpconnection.o)
                0x0008e2b4                CUDPConnection::Accept(CIPAddress*, unsigned short*)
                0x0008e2bc                CUDPConnection::SetOptionBroadcast(bool)
                0x0008e2cc                CUDPConnection::IsConnected() const
                0x0008e2d4                CUDPConnection::IsTerminated() const
                0x0008e2e0                CUDPConnection::Process()
                0x0008e2e4                CUDPConnection::Close()
                0x0008e36c                CUDPConnection::Send(void const*, unsigned int, int)
                0x0008e550                CUDPConnection::SendTo(void const*, unsigned int, int, CIPAddress const&, unsigned short)
                0x0008e750                CUDPConnection::Receive(void*, int)
                0x0008e834                CUDPConnection::ReceiveFrom(void*, int, CIPAddress*, unsigned short*)
                0x0008e94c                CUDPConnection::SetOptionAddMembership(CIPAddress const&)
                0x0008e9d4                CUDPConnection::SetOptionDropMembership(CIPAddress const&)
                0x0008ea7c                CUDPConnection::PacketReceived(void const*, unsigned int, CIPAddress&, CIPAddress&, int)
                0x0008ec94                CUDPConnection::NotificationReceived(TICMPNotificationType, CIPAddress&, CIPAddress&, unsigned short, unsigned short, int)
                0x0008ed50                CUDPConnection::Connect()
                0x0008ed80                CUDPConnection::~CUDPConnection()
                0x0008ed80                CUDPConnection::~CUDPConnection()
                0x0008edf8                CUDPConnection::~CUDPConnection()
                0x0008ee18                CUDPConnection::CUDPConnection(CNetConfig*, CNetworkLayer*, CIPAddress const&, unsigned short, unsigned short)
                0x0008ee18                CUDPConnection::CUDPConnection(CNetConfig*, CNetworkLayer*, CIPAddress const&, unsigned short, unsigned short)
                0x0008ee88                CUDPConnection::CUDPConnection(CNetConfig*, CNetworkLayer*, unsigned short)
                0x0008ee88                CUDPConnection::CUDPConnection(CNetConfig*, CNetworkLayer*, unsigned short)
 .text          0x0008eee4     0x221c ..//lib/net/libnet.a(tcpconnection.o)
                0x0008eee4                CTCPConnection::GetStateName() const
                0x0008eef8                CTCPConnection::SendTo(void const*, unsigned int, int, CIPAddress const&, unsigned short)
                0x0008ef10                CTCPConnection::SetOptionBroadcast(bool)
                0x0008ef18                CTCPConnection::SetOptionDropMembership(CIPAddress const&)
                0x0008ef18                CTCPConnection::SetOptionAddMembership(CIPAddress const&)
                0x0008ef20                CTCPConnection::IsConnected() const
                0x0008ef44                CTCPConnection::IsTerminated() const
                0x0008ef54                CTCPConnection::ReceiveFrom(void*, int, CIPAddress*, unsigned short*)
                0x0008efac                CTCPConnection::Receive(void*, int)
                0x0008f054                CTCPConnection::Send(void const*, unsigned int, int)
                0x0008f164                CTCPConnection::CTCPConnection(CNetConfig*, CNetworkLayer*, unsigned short)
                0x0008f164                CTCPConnection::CTCPConnection(CNetConfig*, CNetworkLayer*, unsigned short)
                0x0008f248                CTCPConnection::SendSegment(unsigned int, unsigned int, unsigned int, void const*, unsigned int)
                0x0008f3a8                CTCPConnection::ScanOptions(TTCPHeader*)
                0x0008f47c                CTCPConnection::CalculateISN()
                0x0008f4f0                CTCPConnection::StopTimer(unsigned int)
                0x0008f5ac                CTCPConnection::Close()
                0x0008f68c                CTCPConnection::StartTimer(unsigned int, unsigned int)
                0x0008f738                CTCPConnection::CTCPConnection(CNetConfig*, CNetworkLayer*, CIPAddress const&, unsigned short, unsigned short)
                0x0008f738                CTCPConnection::CTCPConnection(CNetConfig*, CNetworkLayer*, CIPAddress const&, unsigned short, unsigned short)
                0x0008f91c                CTCPConnection::Process()
                0x0008fc30                CTCPConnection::~CTCPConnection()
                0x0008fc30                CTCPConnection::~CTCPConnection()
                0x0008fd0c                CTCPConnection::~CTCPConnection()
                0x0008fd2c                CTCPConnection::NotificationReceived(TICMPNotificationType, CIPAddress&, CIPAddress&, unsigned short, unsigned short, int)
                0x0008fe58                CTCPConnection::DumpStatus()
                0x0008fed4                CTCPConnection::Connect()
                0x0008ff64                CTCPConnection::Accept(CIPAddress*, unsigned short*)
                0x00090064                CTCPConnection::TimerHandler(unsigned int)
                0x00090250                CTCPConnection::TimerStub(unsigned int, void*, void*)
                0x0009029c                CTCPConnection::NewState(TTCPState, unsigned int)
                0x00090344                CTCPConnection::UnexpectedState(unsigned int)
                0x00090388                CTCPConnection::PacketReceived(void const*, unsigned int, CIPAddress&, CIPAddress&, int)
 .text          0x00091100      0x408 ..//lib/net/libnet.a(retransmissionqueue.o)
                0x00091100                CRetransmissionQueue::CRetransmissionQueue(unsigned int)
                0x00091100                CRetransmissionQueue::CRetransmissionQueue(unsigned int)
                0x00091154                CRetransmissionQueue::~CRetransmissionQueue()
                0x00091154                CRetransmissionQueue::~CRetransmissionQueue()
                0x00091178                CRetransmissionQueue::IsEmpty() const
                0x00091190                CRetransmissionQueue::GetFreeSpace() const
                0x00091214                CRetransmissionQueue::Write(void const*, unsigned int)
                0x00091300                CRetransmissionQueue::GetBytesAvailable() const
                0x0009137c                CRetransmissionQueue::Read(void*, unsigned int)
                0x00091468                CRetransmissionQueue::Advance(unsigned int)
                0x000914e8                CRetransmissionQueue::Reset()
                0x000914f4                CRetransmissionQueue::Flush()
 .text          0x00091508      0x328 ..//lib/net/libnet.a(retranstimeoutcalc.o)
                0x00091508                CRetransmissionTimeoutCalculator::CRetransmissionTimeoutCalculator()
                0x00091508                CRetransmissionTimeoutCalculator::CRetransmissionTimeoutCalculator()
                0x00091564                CRetransmissionTimeoutCalculator::~CRetransmissionTimeoutCalculator()
                0x00091564                CRetransmissionTimeoutCalculator::~CRetransmissionTimeoutCalculator()
                0x00091568                CRetransmissionTimeoutCalculator::GetRTO() const
                0x00091570                CRetransmissionTimeoutCalculator::Initialize(unsigned int)
                0x000915e0                CRetransmissionTimeoutCalculator::SegmentSent(unsigned int, unsigned int)
                0x00091674                CRetransmissionTimeoutCalculator::RetransmissionTimerExpired()
                0x00091720                CRetransmissionTimeoutCalculator::Calculate(unsigned int)
                0x000917a0                CRetransmissionTimeoutCalculator::SegmentAcknowledged(unsigned int)
 .text          0x00091830      0x2e8 ..//lib/net/libnet.a(tcprejector.o)
                0x00091830                CTCPRejector::~CTCPRejector()
                0x00091830                CTCPRejector::~CTCPRejector()
                0x00091850                CTCPRejector::~CTCPRejector()
                0x0009187c                CTCPRejector::CTCPRejector(CNetConfig*, CNetworkLayer*)
                0x0009187c                CTCPRejector::CTCPRejector(CNetConfig*, CNetworkLayer*)
                0x000918b0                CTCPRejector::SendSegment(unsigned int, unsigned int, unsigned int)
                0x00091988                CTCPRejector::PacketReceived(void const*, unsigned int, CIPAddress&, CIPAddress&, int)
 .text          0x00091b18      0x338 ..//lib/net/libnet.a(netconfig.o)
                0x00091b18                CNetConfig::CNetConfig()
                0x00091b18                CNetConfig::CNetConfig()
                0x00091bd4                CNetConfig::~CNetConfig()
                0x00091bd4                CNetConfig::~CNetConfig()
                0x00091c0c                CNetConfig::Reset()
                0x00091c88                CNetConfig::SetDHCP(bool)
                0x00091c90                CNetConfig::SetIPAddress(unsigned int)
                0x00091cdc                CNetConfig::SetNetMask(unsigned int)
                0x00091d28                CNetConfig::SetDefaultGateway(unsigned int)
                0x00091d30                CNetConfig::SetDNSServer(unsigned int)
                0x00091d38                CNetConfig::SetIPAddress(unsigned char const*)
                0x00091d84                CNetConfig::SetNetMask(unsigned char const*)
                0x00091dd0                CNetConfig::SetDefaultGateway(unsigned char const*)
                0x00091dd8                CNetConfig::SetDNSServer(unsigned char const*)
                0x00091de0                CNetConfig::GetIPAddress() const
                0x00091de8                CNetConfig::IsDHCPUsed() const
                0x00091df0                CNetConfig::GetNetMask() const
                0x00091df8                CNetConfig::GetDefaultGateway() const
                0x00091e00                CNetConfig::GetDNSServer() const
                0x00091e08                CNetConfig::GetBroadcastAddress() const
                0x00091e10                CNetConfig::UpdateBroadcastAddress()
 .text          0x00091e50      0x5ec ..//lib/net/libnet.a(ipaddress.o)
                0x00091e50                CIPAddress::CIPAddress()
                0x00091e50                CIPAddress::CIPAddress()
                0x00091e5c                CIPAddress::CIPAddress(unsigned int)
                0x00091e5c                CIPAddress::CIPAddress(unsigned int)
                0x00091e6c                CIPAddress::CIPAddress(unsigned char const*)
                0x00091e6c                CIPAddress::CIPAddress(unsigned char const*)
                0x00091eb0                CIPAddress::CIPAddress(CIPAddress const&)
                0x00091eb0                CIPAddress::CIPAddress(CIPAddress const&)
                0x00091eec                CIPAddress::~CIPAddress()
                0x00091eec                CIPAddress::~CIPAddress()
                0x00091ef0                CIPAddress::operator==(CIPAddress const&) const
                0x00091f50                CIPAddress::operator!=(CIPAddress const&) const
                0x00091fac                CIPAddress::operator==(unsigned char const*) const
                0x00092008                CIPAddress::operator!=(unsigned char const*) const
                0x00092064                CIPAddress::operator==(unsigned int) const
                0x000920a0                CIPAddress::operator!=(unsigned int) const
                0x000920d8                CIPAddress::operator=(unsigned int)
                0x000920e8                CIPAddress::Set(unsigned int)
                0x000920f8                CIPAddress::Set(unsigned char const*)
                0x00092138                CIPAddress::Set(CIPAddress const&)
                0x00092174                CIPAddress::SetBroadcast()
                0x00092188                CIPAddress::operator unsigned int() const
                0x000921b8                CIPAddress::Get() const
                0x000921e8                CIPAddress::CopyTo(unsigned char*) const
                0x00092244                CIPAddress::IsSet() const
                0x0009224c                CIPAddress::IsNull() const
                0x00092284                CIPAddress::IsBroadcast() const
                0x000922c0                CIPAddress::IsMulticast() const
                0x00092304                CIPAddress::GetSize() const
                0x0009230c                CIPAddress::Format(CString*) const
                0x00092390                CIPAddress::OnSameNetwork(CIPAddress const&, unsigned char const*) const
 .text          0x0009243c      0x324 ..//lib/net/libnet.a(netqueue.o)
                0x0009243c                CNetQueue::CNetQueue()
                0x0009243c                CNetQueue::CNetQueue()
                0x00092450                CNetQueue::IsEmpty() const
                0x00092460                CNetQueue::Flush()
                0x0009251c                CNetQueue::~CNetQueue()
                0x0009251c                CNetQueue::~CNetQueue()
                0x00092530                CNetQueue::Enqueue(void const*, unsigned int, void*)
                0x00092648                CNetQueue::Dequeue(void*, void**)
 .text          0x00092760      0x304 ..//lib/net/libnet.a(checksumcalculator.o)
                0x00092760                CChecksumCalculator::CChecksumCalculator(CIPAddress const&, int)
                0x00092760                CChecksumCalculator::CChecksumCalculator(CIPAddress const&, int)
                0x00092790                CChecksumCalculator::CChecksumCalculator(CIPAddress const&, CIPAddress const&, int)
                0x00092790                CChecksumCalculator::CChecksumCalculator(CIPAddress const&, CIPAddress const&, int)
                0x000927d4                CChecksumCalculator::~CChecksumCalculator()
                0x000927d4                CChecksumCalculator::~CChecksumCalculator()
                0x000927d8                CChecksumCalculator::SetSourceAddress(CIPAddress const&)
                0x000927e8                CChecksumCalculator::SetDestinationAddress(CIPAddress const&)
                0x00092808                CChecksumCalculator::Calculate(void const*, unsigned int)
                0x00092908                CChecksumCalculator::SimpleCalculate(void const*, unsigned int)
                0x000929b4                CChecksumCalculator::CalculateChunk(void const*, unsigned int, unsigned int)
                0x00092a44                CChecksumCalculator::FoldResult(unsigned int)
 .text          0x00092a64     0x1330 ..//lib/net/libnet.a(dhcpclient.o)
                0x00092a64                CDHCPClient::CDHCPClient(CNetSubSystem*, char const*)
                0x00092a64                CDHCPClient::CDHCPClient(CNetSubSystem*, char const*)
                0x00092b4c                CDHCPClient::IsBound() const
                0x00092b54                CDHCPClient::HaltNetwork()
                0x00092b90                CDHCPClient::ScanOptions(unsigned char const*, unsigned int)
                0x00092d78                CDHCPClient::CheckConfig()
                0x00092ee8                CDHCPClient::GetXID() const
                0x00092f50                CDHCPClient::GetUnaligned(void const*)
                0x00092f7c                CDHCPClient::SetUnaligned(void*, unsigned int)
                0x00092fac                CDHCPClient::~CDHCPClient()
                0x00092fac                CDHCPClient::~CDHCPClient()
                0x00092fe8                CDHCPClient::~CDHCPClient()
                0x00093030                CDHCPClient::ReceiveMessage()
                0x000931c4                CDHCPClient::SendMessage(unsigned char const*, unsigned int)
                0x000932f4                CDHCPClient::SendDiscover()
                0x0009330c                CDHCPClient::SendRequest(unsigned int)
                0x00093410                CDHCPClient::SendAndReceive(bool, unsigned int)
                0x00093590                CDHCPClient::SelectAndRequest()
                0x00093b5c                CDHCPClient::RenewOrRebind(bool, unsigned int)
                0x00093ba0                CDHCPClient::Run()
 .text          0x00093d94      0xbdc ..//lib/net/libnet.a(mdnsdaemon.o)
                0x00093d94                CmDNSDaemon::CmDNSDaemon(CNetSubSystem*)
                0x00093d94                CmDNSDaemon::CmDNSDaemon(CNetSubSystem*)
                0x00093e84                CmDNSDaemon::IsRunning() const
                0x00093e8c                CmDNSDaemon::GetHostname() const
                0x00093ea4                CmDNSDaemon::GetSuffix() const
                0x00093eac                CmDNSDaemon::Get()
                0x00093f30                CmDNSDaemon::SendMessage(bool)
                0x00094158                CmDNSDaemon::~CmDNSDaemon()
                0x00094158                CmDNSDaemon::~CmDNSDaemon()
                0x000941bc                CmDNSDaemon::~CmDNSDaemon()
                0x000941dc                CmDNSDaemon::ParseQuery(unsigned char const*, unsigned int)
                0x00094380                CmDNSDaemon::ParseResponse(unsigned char const*, unsigned int, CIPAddress*)
                0x0009456c                CmDNSDaemon::ReceiveMessage(CIPAddress*, bool)
                0x00094638                CmDNSDaemon::Run()
 .text          0x00094970      0x1dc ..//lib/net/libnet.a(netsocket.o)
                0x00094970                CNetSocket::Connect(char const*, char const*)
                0x00094ad4                CNetSocket::CNetSocket(CNetSubSystem*)
                0x00094ad4                CNetSocket::CNetSocket(CNetSubSystem*)
                0x00094b08                CNetSocket::~CNetSocket()
                0x00094b08                CNetSocket::~CNetSocket()
                0x00094b0c                CNetSocket::~CNetSocket()
                0x00094b24                CNetSocket::GetNetSubSystem()
 .text._ZN10CNetSocket4BindEt
                0x00094b4c        0x8 ..//lib/net/libnet.a(netsocket.o)
                0x00094b4c                CNetSocket::Bind(unsigned short)
 .text._ZN10CNetSocket6ListenEj
                0x00094b54        0x8 ..//lib/net/libnet.a(netsocket.o)
                0x00094b54                CNetSocket::Listen(unsigned int)
 .text._ZN10CNetSocket6AcceptEP10CIPAddressPt
                0x00094b5c        0x8 ..//lib/net/libnet.a(netsocket.o)
                0x00094b5c                CNetSocket::Accept(CIPAddress*, unsigned short*)
 .text._ZN10CNetSocket6SendToEPKvjiRK10CIPAddresst
                0x00094b64        0x8 ..//lib/net/libnet.a(netsocket.o)
                0x00094b64                CNetSocket::SendTo(void const*, unsigned int, int, CIPAddress const&, unsigned short)
 .text._ZN10CNetSocket11ReceiveFromEPvjiP10CIPAddressPt
                0x00094b6c        0x8 ..//lib/net/libnet.a(netsocket.o)
                0x00094b6c                CNetSocket::ReceiveFrom(void*, unsigned int, int, CIPAddress*, unsigned short*)
 .text._ZN10CNetSocket18SetOptionBroadcastEb
                0x00094b74        0x8 ..//lib/net/libnet.a(netsocket.o)
                0x00094b74                CNetSocket::SetOptionBroadcast(bool)
 .text._ZN10CNetSocket22SetOptionAddMembershipERK10CIPAddress
                0x00094b7c        0x8 ..//lib/net/libnet.a(netsocket.o)
                0x00094b7c                CNetSocket::SetOptionAddMembership(CIPAddress const&)
 .text._ZN10CNetSocket23SetOptionDropMembershipERK10CIPAddress
                0x00094b84        0x8 ..//lib/net/libnet.a(netsocket.o)
                0x00094b84                CNetSocket::SetOptionDropMembership(CIPAddress const&)
 .text          0x00094b8c      0x588 ..//lib/net/libnet.a(dnsclient.o)
                0x00094b8c                CDNSClient::CDNSClient(CNetSubSystem*)
                0x00094b8c                CDNSClient::CDNSClient(CNetSubSystem*)
                0x00094bb4                CDNSClient::~CDNSClient()
                0x00094bb4                CDNSClient::~CDNSClient()
                0x00094bb8                CDNSClient::ConvertIPString(char const*, CIPAddress*)
                0x00094cc8                CDNSClient::Resolve(char const*, CIPAddress*)
 .text          0x00095114      0x3c0 ..//lib/sched/libsched.a(task.o)
                0x00095114                CTask::Run()
                0x00095130                CTask::TaskEntry(void*)
                0x0009518c                CTask::CTask(unsigned int, bool)
                0x0009518c                CTask::CTask(unsigned int, bool)
                0x000952b4                CTask::Start()
                0x00095300                CTask::Suspend()
                0x00095354                CTask::Terminate()
                0x00095388                CTask::WaitForTermination()
                0x000953b0                CTask::SetName(char const*)
                0x000953b8                CTask::GetName() const
                0x000953c0                CTask::SetUserData(void*, unsigned int)
                0x000953cc                CTask::GetUserData(unsigned int)
                0x000953d8                CTask::InitializeRegs()
                0x00095444                CTask::~CTask()
                0x00095444                CTask::~CTask()
                0x000954b4                CTask::~CTask()
 .text          0x000954d4      0xbdc ..//lib/sched/libsched.a(scheduler.o)
                0x000954d4                CScheduler::CScheduler()
                0x000954d4                CScheduler::CScheduler()
                0x00095564                CScheduler::~CScheduler()
                0x00095564                CScheduler::~CScheduler()
                0x00095578                CScheduler::GetCurrentTask()
                0x00095580                CScheduler::GetTask(char const*)
                0x000955fc                CScheduler::IsValidTask(CTask*)
                0x0009564c                CScheduler::RegisterTaskSwitchHandler(void (*)(CTask*))
                0x00095694                CScheduler::RegisterTaskTerminationHandler(void (*)(CTask*))
                0x000956dc                CScheduler::SuspendNewTasks()
                0x000956ec                CScheduler::ResumeNewTasks()
                0x0009576c                CScheduler::EnumerateTasks(bool (*)(CTask*, char const*, TTaskState, TTaskFlags, void*), void*)
                0x00095800                CScheduler::AddTask(CTask*)
                0x000958ac                CScheduler::RemoveTask(CTask*)
                0x00095914                CScheduler::WakeTasks(CTask**)
                0x000959cc                CScheduler::GetNextTask()
                0x00095b38                CScheduler::Yield()
                0x00095bec                CScheduler::usSleep(unsigned int)
                0x00095c64                CScheduler::BlockTask(CTask**, unsigned int)
                0x00095df4                CScheduler::Sleep(unsigned int)
                0x00095ea8                CScheduler::MsSleep(unsigned int)
                0x00095f30                CScheduler::Get()
                0x00095f60                CScheduler::ListTasks(CDevice*)
 .text          0x000960b0       0x24 ..//lib/sched/libsched.a(taskswitch.o)
                0x000960b0                TaskSwitch
 .text          0x000960d4       0xf8 ..//lib/sched/libsched.a(synchronizationevent.o)
                0x000960d4                CSynchronizationEvent::CSynchronizationEvent(bool)
                0x000960d4                CSynchronizationEvent::CSynchronizationEvent(bool)
                0x000960e4                CSynchronizationEvent::~CSynchronizationEvent()
                0x000960e4                CSynchronizationEvent::~CSynchronizationEvent()
                0x0009610c                CSynchronizationEvent::GetState()
                0x00096114                CSynchronizationEvent::Clear()
                0x00096120                CSynchronizationEvent::Set()
                0x0009614c                CSynchronizationEvent::Pulse()
                0x0009616c                CSynchronizationEvent::Wait()
                0x00096194                CSynchronizationEvent::WaitWithTimeout(unsigned int)
 .text          0x000961cc      0x1f4 ..//lib/libcircle.a(actled.o)
                0x000961cc                CActLED::CActLED(bool)
                0x000961cc                CActLED::CActLED(bool)
                0x000962a0                CActLED::~CActLED()
                0x000962a0                CActLED::~CActLED()
                0x000962b4                CActLED::On()
                0x000962e0                CActLED::Off()
                0x00096314                CActLED::Blink(unsigned int, unsigned int, unsigned int)
                0x000963b0                CActLED::Get()
 .text          0x000963c0      0x110 ..//lib/libcircle.a(alloc.o)
                0x000963c0                malloc
                0x000963d8                memalign
                0x0009640c                free
                0x00096424                calloc
                0x00096484                realloc
                0x000964a4                palloc
                0x000964b8                pfree
 .text          0x000964d0       0x84 ..//lib/libcircle.a(assert.o)
                0x000964d0                assertion_failed
 .text          0x00096554      0x408 ..//lib/libcircle.a(display.o)
                0x00096554                CDisplay::GetParent() const
                0x0009655c                CDisplay::GetOffsetX() const
                0x0009655c                CDisplay::GetOffsetY() const
                0x00096564                CDisplay::CDisplay(CDisplay::TColorModel)
                0x00096564                CDisplay::CDisplay(CDisplay::TColorModel)
                0x00096578                CDisplay::GetColorModel() const
                0x00096580                CDisplay::GetColor(CDisplay::TColor) const
                0x00096754                CDisplay::GetColor(unsigned int) const
 .text          0x0009695c      0x7b0 ..//lib/libcircle.a(bcmframebuffer.o)
                0x0009695c                CBcmFrameBuffer::SetPixel(unsigned int, unsigned int, unsigned int)
                0x000969b8                CBcmFrameBuffer::GetWidth() const
                0x000969c0                CBcmFrameBuffer::GetHeight() const
                0x000969c8                CBcmFrameBuffer::GetDepth() const
                0x000969d0                CBcmFrameBuffer::~CBcmFrameBuffer()
                0x000969d0                CBcmFrameBuffer::~CBcmFrameBuffer()
                0x00096a10                CBcmFrameBuffer::SetArea(CDisplay::TArea const&, void const*, void (*)(void*), void*)
                0x00096afc                CBcmFrameBuffer::DMACompletionRoutine(unsigned int, unsigned int, bool, void*)
                0x00096b10                CBcmFrameBuffer::~CBcmFrameBuffer()
                0x00096b5c                CBcmFrameBuffer::CBcmFrameBuffer(unsigned int, unsigned int, unsigned int, unsigned int, unsigned int, unsigned int, bool)
                0x00096b5c                CBcmFrameBuffer::CBcmFrameBuffer(unsigned int, unsigned int, unsigned int, unsigned int, unsigned int, unsigned int, bool)
                0x00096d3c                CBcmFrameBuffer::SetPalette(unsigned char, unsigned short)
                0x00096d90                CBcmFrameBuffer::SetPalette32(unsigned char, unsigned int)
                0x00096dc4                CBcmFrameBuffer::GetVirtWidth() const
                0x00096dcc                CBcmFrameBuffer::GetVirtHeight() const
                0x00096dd4                CBcmFrameBuffer::GetPitch() const
                0x00096ddc                CBcmFrameBuffer::GetBuffer() const
                0x00096de4                CBcmFrameBuffer::GetSize() const
                0x00096dec                CBcmFrameBuffer::UpdatePalette()
                0x00096ebc                CBcmFrameBuffer::Initialize()
                0x00096fe4                CBcmFrameBuffer::SetVirtualOffset(unsigned int, unsigned int)
                0x00097060                CBcmFrameBuffer::WaitForVerticalSync()
                0x000970ac                CBcmFrameBuffer::SetBacklightBrightness(unsigned int)
                0x00097100                CBcmFrameBuffer::SetDisplay()
                0x00097104                CBcmFrameBuffer::GetNumDisplays()
 .text          0x0009710c      0x238 ..//lib/libcircle.a(bcmpropertytags.o)
                0x0009710c                CBcmPropertyTags::CBcmPropertyTags(bool)
                0x0009710c                CBcmPropertyTags::CBcmPropertyTags(bool)
                0x00097128                CBcmPropertyTags::~CBcmPropertyTags()
                0x00097128                CBcmPropertyTags::~CBcmPropertyTags()
                0x0009713c                CBcmPropertyTags::GetTags(void*, unsigned int)
                0x00097250                CBcmPropertyTags::GetTag(unsigned int, void*, unsigned int, unsigned int)
 .text          0x00097344      0x138 ..//lib/libcircle.a(chargenerator.o)
                0x00097344                CCharGenerator::CCharGenerator(TFont const&, CCharGenerator::TFontFlags)
                0x00097344                CCharGenerator::CCharGenerator(TFont const&, CCharGenerator::TFontFlags)
                0x000973a0                CCharGenerator::GetPixelLine(char, unsigned int) const
 .text          0x0009747c      0x40c ..//lib/libcircle.a(classallocator.o)
                0x0009747c                CClassAllocator::~CClassAllocator()
                0x0009747c                CClassAllocator::~CClassAllocator()
                0x000974a4                CClassAllocator::Init(unsigned int, unsigned int)
                0x00097564                CClassAllocator::CClassAllocator(unsigned int, unsigned int, char const*)
                0x00097564                CClassAllocator::CClassAllocator(unsigned int, unsigned int, char const*)
                0x00097594                CClassAllocator::CClassAllocator(unsigned int, unsigned int, unsigned int, char const*)
                0x00097594                CClassAllocator::CClassAllocator(unsigned int, unsigned int, unsigned int, char const*)
                0x000975cc                CClassAllocator::Extend(unsigned int, unsigned int)
                0x000976d0                CClassAllocator::Allocate()
                0x000977bc                CClassAllocator::Free(void*)
 .text          0x00097888      0x190 ..//lib/libcircle.a(debug.o)
                0x00097888                debug_hexdump(void const*, unsigned int, char const*)
                0x00097990                debug_stacktrace(unsigned int const*, char const*)
 .text          0x00097a18      0x1d0 ..//lib/libcircle.a(device.o)
                0x00097a18                CDevice::Read(void*, unsigned int)
                0x00097a18                CDevice::Write(void const*, unsigned int)
                0x00097a20                CDevice::Seek(unsigned long long)
                0x00097a2c                CDevice::GetSize() const
                0x00097a38                CDevice::IOCtl(unsigned long, void*)
                0x00097a40                CDevice::RemoveDevice()
                0x00097a48                CDevice::~CDevice()
                0x00097a48                CDevice::~CDevice()
                0x00097ad4                CDevice::~CDevice()
                0x00097af4                CDevice::CDevice()
                0x00097af4                CDevice::CDevice()
                0x00097b14                CDevice::RegisterRemovedHandler(void (*)(CDevice*, void*), void*)
                0x00097b84                CDevice::UnregisterRemovedHandler(void*)
 .text          0x00097be8      0x658 ..//lib/libcircle.a(devicenameservice.o)
                0x00097be8                CDeviceNameService::CDeviceNameService()
                0x00097be8                CDeviceNameService::CDeviceNameService()
                0x00097c2c                CDeviceNameService::~CDeviceNameService()
                0x00097c2c                CDeviceNameService::~CDeviceNameService()
                0x00097c88                CDeviceNameService::AddDevice(char const*, CDevice*, bool)
                0x00097d3c                CDeviceNameService::RemoveDevice(char const*, bool)
                0x00097e48                CDeviceNameService::GetDevice(char const*, bool)
                0x00097f44                CDeviceNameService::EnumerateDevices(bool (*)(CDevice*, char const*, bool, void*), void*)
                0x00097fdc                CDeviceNameService::Get()
                0x0009800c                CDeviceNameService::AddDevice(char const*, unsigned int, CDevice*, bool)
                0x00098074                CDeviceNameService::RemoveDevice(char const*, unsigned int, bool)
                0x000980d4                CDeviceNameService::GetDevice(char const*, unsigned int, bool)
                0x0009813c                CDeviceNameService::ListDevices(CDevice*)
 .text          0x00098240     0x10c8 ..//lib/libcircle.a(dmachannel.o)
                0x00098240                CDMAChannel::CDMAChannel(unsigned int, CInterruptSystem*)
                0x00098240                CDMAChannel::CDMAChannel(unsigned int, CInterruptSystem*)
                0x00098350                CDMAChannel::~CDMAChannel()
                0x00098350                CDMAChannel::~CDMAChannel()
                0x0009845c                CDMAChannel::SetupMemCopy(void*, void const*, unsigned int, unsigned int, bool)
                0x00098630                CDMAChannel::SetupIORead(void*, unsigned int, unsigned int, TDREQ)
                0x000987b8                CDMAChannel::SetupIOWrite(unsigned int, void const*, unsigned int, TDREQ)
                0x0009893c                CDMAChannel::SetupCyclicIOWrite(unsigned int, void const**, unsigned int, unsigned int, TDREQ)
                0x00098bb4                CDMAChannel::SetupMemCopy2D(void*, void const*, unsigned int, unsigned int, unsigned int, unsigned int)
                0x00098dd0                CDMAChannel::SetCompletionRoutine(void (*)(unsigned int, unsigned int, bool, void*), void*)
                0x00098e78                CDMAChannel::Start()
                0x00099008                CDMAChannel::Wait()
                0x000990ac                CDMAChannel::GetStatus()
                0x00099108                CDMAChannel::Cancel()
                0x00099154                CDMAChannel::InterruptHandler()
                0x000992dc                CDMAChannel::InterruptStub(void*)
 .text          0x00099308      0x8a8 ..//lib/libcircle.a(koptions.o)
                0x00099308                CKernelOptions::~CKernelOptions()
                0x00099308                CKernelOptions::~CKernelOptions()
                0x00099374                CKernelOptions::GetWidth() const
                0x0009937c                CKernelOptions::GetHeight() const
                0x00099384                CKernelOptions::GetLogDevice() const
                0x00099390                CKernelOptions::GetLogLevel() const
                0x00099398                CKernelOptions::GetKeyMap() const
                0x000993a0                CKernelOptions::GetUSBPowerDelay() const
                0x000993a8                CKernelOptions::GetUSBFullSpeed() const
                0x000993b0                CKernelOptions::GetUSBBoost() const
                0x000993b8                CKernelOptions::GetUSBIgnore() const
                0x000993c4                CKernelOptions::GetUSBSoundChannels() const
                0x000993cc                CKernelOptions::GetSoundDevice() const
                0x000993d8                CKernelOptions::GetSoundOption() const
                0x000993e0                CKernelOptions::GetCPUSpeed() const
                0x000993e8                CKernelOptions::GetSoCMaxTemp() const
                0x000993f0                CKernelOptions::GetGPIOFanPin() const
                0x000993f8                CKernelOptions::GetTouchScreen() const
                0x0009940c                CKernelOptions::GetBacklight() const
                0x00099414                CKernelOptions::GetAppOptionString(char const*, char const*) const
                0x00099460                CKernelOptions::Get()
                0x00099470                CKernelOptions::GetToken()
                0x000994f0                CKernelOptions::GetOptionValue(char*)
                0x00099528                CKernelOptions::GetDecimal(char const*)
                0x00099590                CKernelOptions::GetAppOptionDecimal(char const*, unsigned int) const
                0x000995ec                CKernelOptions::GetDecimals(char*, unsigned int*, unsigned int)
                0x000996b8                CKernelOptions::CKernelOptions()
                0x000996b8                CKernelOptions::CKernelOptions()
 .text          0x00099bb0      0x954 ..//lib/libcircle.a(logger.o)
                0x00099bb0                CLogger::CLogger(unsigned int, CTimer*, bool)
                0x00099bb0                CLogger::CLogger(unsigned int, CTimer*, bool)
                0x00099c14                CLogger::~CLogger()
                0x00099c14                CLogger::~CLogger()
                0x00099c90                CLogger::SetNewTarget(CDevice*)
                0x00099c98                CLogger::Get()
                0x00099d18                CLogger::Write(char const*)
                0x00099e10                CLogger::WriteNoAlloc(char const*, TLogSeverity, char const*)
                0x00099ef0                CLogger::Read(void*, unsigned int, bool)
                0x00099fc0                CLogger::WriteEvent(char const*, TLogSeverity, char const*)
                0x0009a13c                CLogger::ReadEvent(TLogSeverity*, char*, char*, long*, unsigned int*, int*)
                0x0009a22c                CLogger::RegisterEventNotificationHandler(void (*)())
                0x0009a234                CLogger::RegisterPanicHandler(void (*)())
                0x0009a23c                CLogger::WriteV(char const*, TLogSeverity, char const*, std::__va_list)
                0x0009a3c8                CLogger::Write(char const*, TLogSeverity, char const*, ...)
                0x0009a3f8                CLogger::Initialize(CDevice*)
 .text          0x0009a504      0x8c4 ..//lib/libcircle.a(machineinfo.o)
                0x0009a504                CMachineInfo::CMachineInfo()
                0x0009a504                CMachineInfo::CMachineInfo()
                0x0009a978                CMachineInfo::~CMachineInfo()
                0x0009a978                CMachineInfo::~CMachineInfo()
                0x0009a994                CMachineInfo::GetMachineModel() const
                0x0009a99c                CMachineInfo::GetMachineName() const
                0x0009a9b0                CMachineInfo::GetModelMajor() const
                0x0009a9b8                CMachineInfo::GetModelRevision() const
                0x0009a9c0                CMachineInfo::GetSoCType() const
                0x0009a9c8                CMachineInfo::GetSoCStepping() const
                0x0009a9d0                CMachineInfo::GetRAMSize() const
                0x0009a9d8                CMachineInfo::GetSoCName() const
                0x0009a9f0                CMachineInfo::GetRevisionRaw() const
                0x0009a9f8                CMachineInfo::GetActLEDInfo() const
                0x0009aa10                CMachineInfo::GetClockRate(unsigned int) const
                0x0009ab28                CMachineInfo::GetGPIOPin(TGPIOVirtualPin) const
                0x0009ab90                CMachineInfo::GetGPIOClockSourceRate(unsigned int)
                0x0009abec                CMachineInfo::GetDevice(TDeviceId) const
                0x0009ac20                CMachineInfo::ArePWMChannelsSwapped() const
                0x0009ac48                CMachineInfo::AllocateDMAChannel(unsigned int)
                0x0009ad14                CMachineInfo::FreeDMAChannel(unsigned int)
                0x0009ad9c                CMachineInfo::Get()
 .text          0x0009adc8       0x94 ..//lib/libcircle.a(nulldevice.o)
                0x0009adc8                CNullDevice::Read(void*, unsigned int)
                0x0009add0                CNullDevice::Write(void const*, unsigned int)
                0x0009add8                CNullDevice::~CNullDevice()
                0x0009add8                CNullDevice::~CNullDevice()
                0x0009adf8                CNullDevice::~CNullDevice()
                0x0009ae24                CNullDevice::CNullDevice()
                0x0009ae24                CNullDevice::CNullDevice()
 .text          0x0009ae5c      0x2b0 ..//lib/libcircle.a(ptrarray.o)
                0x0009ae5c                CPtrArray::CPtrArray(unsigned int, unsigned int)
                0x0009ae5c                CPtrArray::CPtrArray(unsigned int, unsigned int)
                0x0009aecc                CPtrArray::~CPtrArray()
                0x0009aecc                CPtrArray::~CPtrArray()
                0x0009aef8                CPtrArray::GetCount() const
                0x0009af00                CPtrArray::operator[](unsigned int)
                0x0009af70                CPtrArray::operator[](unsigned int) const
                0x0009afe0                CPtrArray::Append(void*)
                0x0009b0d8                CPtrArray::RemoveLast()
 .text          0x0009b10c      0x414 ..//lib/libcircle.a(ptrlist.o)
                0x0009b10c                CPtrList::CPtrList()
                0x0009b10c                CPtrList::CPtrList()
                0x0009b118                CPtrList::~CPtrList()
                0x0009b118                CPtrList::~CPtrList()
                0x0009b140                CPtrList::GetFirst() const
                0x0009b148                CPtrList::GetNext(TPtrListElement*) const
                0x0009b19c                CPtrList::GetPtr(TPtrListElement*)
                0x0009b1f0                CPtrList::InsertBefore(TPtrListElement*, void*)
                0x0009b2d8                CPtrList::InsertAfter(TPtrListElement*, void*)
                0x0009b3b8                CPtrList::Remove(TPtrListElement*)
                0x0009b4c8                CPtrList::Find(void*) const
 .text          0x0009b520      0x3c4 ..//lib/libcircle.a(screen.o)
                0x0009b520                CScreenDevice::Write(void const*, unsigned int)
                0x0009b530                CScreenDevice::~CScreenDevice()
                0x0009b530                CScreenDevice::~CScreenDevice()
                0x0009b5ac                CScreenDevice::~CScreenDevice()
                0x0009b5cc                CScreenDevice::CScreenDevice(unsigned int, unsigned int, TFont const&, CCharGenerator::TFontFlags, unsigned int)
                0x0009b5cc                CScreenDevice::CScreenDevice(unsigned int, unsigned int, TFont const&, CCharGenerator::TFontFlags, unsigned int)
                0x0009b620                CScreenDevice::Initialize()
                0x0009b71c                CScreenDevice::Resize(unsigned int, unsigned int)
                0x0009b780                CScreenDevice::GetWidth() const
                0x0009b788                CScreenDevice::GetHeight() const
                0x0009b790                CScreenDevice::GetColumns() const
                0x0009b798                CScreenDevice::GetRows() const
                0x0009b7a0                CScreenDevice::GetFrameBuffer()
                0x0009b7a8                CScreenDevice::SetPixel(unsigned int, unsigned int, unsigned short)
                0x0009b7b0                CScreenDevice::GetPixel(unsigned int, unsigned int)
                0x0009b84c                CScreenDevice::Rotor(unsigned int, unsigned int)
                0x0009b8d4                CScreenDevice::SetCursorBlock(bool)
                0x0009b8dc                CScreenDevice::Update(unsigned int)
 .text          0x0009b8e4     0x12b8 ..//lib/libcircle.a(serial.o)
                0x0009b8e4                CSerialDevice::Read(void*, unsigned int)
                0x0009ba94                CSerialDevice::CSerialDevice(CInterruptSystem*, bool, unsigned int)
                0x0009ba94                CSerialDevice::CSerialDevice(CInterruptSystem*, bool, unsigned int)
                0x0009bc64                CSerialDevice::Initialize(unsigned int, unsigned int, unsigned int, CSerialDevice::TParity)
                0x0009bf54                CSerialDevice::GetOptions() const
                0x0009bf60                CSerialDevice::SetOptions(unsigned int)
                0x0009bf6c                CSerialDevice::SetParity(CSerialDevice::TParity)
                0x0009c090                CSerialDevice::IsTransmitting() const
                0x0009c0d8                CSerialDevice::RegisterCharReceivedHandler(void (*)(unsigned char, int, void*), void*)
                0x0009c110                CSerialDevice::RegisterMagicReceivedHandler(char const*, void (*)())
                0x0009c1c4                CSerialDevice::AvailableForWrite()
                0x0009c268                CSerialDevice::AvailableForRead()
                0x0009c32c                CSerialDevice::Peek()
                0x0009c3f4                CSerialDevice::Flush()
                0x0009c418                CSerialDevice::Write(unsigned char)
                0x0009c524                CSerialDevice::Write(void const*, unsigned int)
                0x0009c6e0                CSerialDevice::InterruptHandler()
                0x0009c940                CSerialDevice::InterruptStub(void*)
                0x0009cad8                CSerialDevice::~CSerialDevice()
                0x0009cad8                CSerialDevice::~CSerialDevice()
                0x0009cb34                CSerialDevice::~CSerialDevice()
 *fill*         0x0009cb9c        0x4 
 .text          0x0009cba0     0x189c ..//lib/libcircle.a(string.o)
                0x0009cba0                CString::~CString()
                0x0009cba0                CString::~CString()
                0x0009cbcc                CString::~CString()
                0x0009cc6c                CString::CString()
                0x0009cc6c                CString::CString()
                0x0009cc84                CString::CString(char const*)
                0x0009cc84                CString::CString(char const*)
                0x0009ccc4                CString::CString(CString const&)
                0x0009ccc4                CString::CString(CString const&)
                0x0009cd1c                CString::CString(CString&&)
                0x0009cd1c                CString::CString(CString&&)
                0x0009cd48                CString::operator char const*() const
                0x0009cd60                CString::operator=(char const*)
                0x0009cda4                CString::operator=(CString const&)
                0x0009ce00                CString::operator=(CString&&)
                0x0009ce40                CString::c_str() const
                0x0009ce58                CString::GetLength() const
                0x0009ce68                CString::Append(char const*)
                0x0009ceec                CString::operator+=(char const*)
                0x0009cf00                CString::operator+=(CString const&)
                0x0009cf28                CString::Append(char)
                0x0009cf50                CString::operator+=(char)
                0x0009cf80                CString::Compare(char const*) const
                0x0009cf88                CString::Find(char) const
                0x0009cfbc                CString::Replace(char const*, char const*)
                0x0009d150                CString::PutChar(char, unsigned int)
                0x0009d190                CString::PutString(char const*)
                0x0009d1d4                CString::ReserveSpace(unsigned int)
                0x0009d244                CString::ntoa(char*, unsigned long, unsigned int, bool)
                0x0009d304                CString::lltoa(char*, unsigned long long, unsigned int, bool)
                0x0009d444                CString::ftoa(char*, double, unsigned int)
                0x0009d6d8                CString::FormatV(char const*, std::__va_list)
                0x0009e410                CString::Format(char const*, ...)
 .text          0x0009e43c      0x1c4 ..//lib/libcircle.a(sysinit.o)
                0x0009e43c                __aeabi_atexit
                0x0009e440                __errno
                0x0009e44c                set_qemu_exit_status
                0x0009e450                halt
                0x0009e45c                error_halt
                0x0009e494                reboot
                0x0009e4c0                sysinit
 .text          0x0009e600      0xed8 ..//lib/libcircle.a(timer.o)
                0x0009e600                CTimer::CTimer(CInterruptSystem*)
                0x0009e600                CTimer::CTimer(CInterruptSystem*)
                0x0009e688                CTimer::~CTimer()
                0x0009e688                CTimer::~CTimer()
                0x0009e75c                CTimer::SetTimeZone(int)
                0x0009e784                CTimer::GetTimeZone() const
                0x0009e78c                CTimer::SetTime(unsigned int, bool)
                0x0009e830                CTimer::GetClockTicks()
                0x0009e84c                CTimer::GetClockTicks64()
                0x0009e880                CTimer::GetTicks() const
                0x0009e888                CTimer::GetUptime() const
                0x0009e890                CTimer::GetUptime(unsigned int*, unsigned int*)
                0x0009e958                CTimer::GetTime() const
                0x0009e960                CTimer::GetLocalTime(unsigned int*, unsigned int*)
                0x0009ea28                CTimer::GetUniversalTime() const
                0x0009ea48                CTimer::GetUniversalTime(unsigned int*, unsigned int*)
                0x0009eb2c                CTimer::GetTimeString()
                0x0009ed14                CTimer::StartKernelTimer(unsigned int, void (*)(unsigned int, void*, void*), void*, void*)
                0x0009ee70                CTimer::CancelKernelTimer(unsigned int)
                0x0009ef1c                CTimer::PollKernelTimers()
                0x0009f044                CTimer::InterruptHandler()
                0x0009f168                CTimer::InterruptHandler(void*)
                0x0009f194                CTimer::TuneMsDelay()
                0x0009f244                CTimer::Initialize()
                0x0009f2c4                CTimer::RegisterUpdateTimeHandler(bool (*)(unsigned int, unsigned int))
                0x0009f310                CTimer::RegisterPeriodicHandler(void (*)())
                0x0009f380                CTimer::SimpleMsDelay(unsigned int)
                0x0009f3cc                CTimer::SimpleusDelay(unsigned int)
                0x0009f408                CTimer::IsLeapYear(unsigned int)
                0x0009f44c                CTimer::GetDaysOfMonth(unsigned int, unsigned int)
                0x0009f4a4                CTimer::Get()
 .text          0x0009f4d8      0x958 ..//lib/libcircle.a(util.o)
                0x0009f4d8                memmove
                0x0009f510                memcmp
                0x0009f560                strlen
                0x0009f588                strcmp
                0x0009f5f8                strcasecmp
                0x0009f680                strncmp
                0x0009f700                strncasecmp
                0x0009f7f8                strcpy
                0x0009f824                strncpy
                0x0009f858                strcat
                0x0009f89c                strncat
                0x0009f8f8                strchr
                0x0009f920                strstr
                0x0009f984                strtok_r
                0x0009fa74                strtoul
                0x0009fbe8                strtoull
                0x0009fd98                atoi
                0x0009fda4                char2int
                0x0009fda8                ether_crc
 .text          0x0009fe30       0xb8 ..//lib/libcircle.a(util_fast.o)
                0x0009fe30                memset
                0x0009fe8c                memcpy
 .text          0x0009fee8      0x2a0 ..//lib/libcircle.a(virtualgpiopin.o)
                0x0009fee8                CVirtualGPIOPin::~CVirtualGPIOPin()
                0x0009fee8                CVirtualGPIOPin::~CVirtualGPIOPin()
                0x0009feec                CVirtualGPIOPin::~CVirtualGPIOPin()
                0x0009ff04                CVirtualGPIOPin::Write(unsigned int)
                0x000a0028                CVirtualGPIOPin::CVirtualGPIOPin(unsigned int, bool)
                0x000a0028                CVirtualGPIOPin::CVirtualGPIOPin(unsigned int, bool)
                0x000a017c                CVirtualGPIOPin::Invert()
 .text.startup  0x000a0188       0x14 ..//lib/libcircle.a(virtualgpiopin.o)
 .text          0x000a019c       0xbc ..//lib/libcircle.a(chainboot.o)
                0x000a01e4                EnableChainBoot
                0x000a022c                IsChainBootEnabled
                0x000a0244                DoChainBoot
 .text          0x000a0258      0x3d8 ..//lib/libcircle.a(macaddress.o)
                0x000a0258                CMACAddress::CMACAddress()
                0x000a0258                CMACAddress::CMACAddress()
                0x000a0264                CMACAddress::CMACAddress(unsigned char const*)
                0x000a0264                CMACAddress::CMACAddress(unsigned char const*)
                0x000a02a8                CMACAddress::~CMACAddress()
                0x000a02a8                CMACAddress::~CMACAddress()
                0x000a02ac                CMACAddress::operator==(CMACAddress const&) const
                0x000a030c                CMACAddress::operator!=(CMACAddress const&) const
                0x000a036c                CMACAddress::Set(unsigned char const*)
                0x000a03ac                CMACAddress::SetBroadcast()
                0x000a03d0                CMACAddress::SetMulticast(unsigned char const*)
                0x000a0458                CMACAddress::Get() const
                0x000a0488                CMACAddress::CopyTo(unsigned char*) const
                0x000a04e4                CMACAddress::IsBroadcast() const
                0x000a053c                CMACAddress::IsMulticast() const
                0x000a05a0                CMACAddress::GetSize() const
                0x000a05a8                CMACAddress::Format(CString*) const
 .text          0x000a0630      0x104 ..//lib/libcircle.a(netdevice.o)
                0x000a0630                CNetDevice::AddNetDevice()
                0x000a0654                CNetDevice::GetSpeedString(TNetDeviceSpeed)
                0x000a0670                CNetDevice::GetNetDevice(unsigned int)
                0x000a0690                CNetDevice::GetNetDevice(TNetDeviceType)
 .text          0x000a0734       0xf0 ..//lib/libcircle.a(new.o)
                0x000a0734                operator new(unsigned int, int)
                0x000a075c                operator new[](unsigned int, int)
                0x000a0784                operator new(unsigned int, void*)
                0x000a078c                operator new[](unsigned int, void*)
                0x000a0794                operator new(unsigned int)
                0x000a07ac                operator new[](unsigned int)
                0x000a07c4                operator delete(void*)
                0x000a07dc                operator delete[](void*)
                0x000a07f4                operator delete(void*, unsigned int)
                0x000a080c                operator delete[](void*, unsigned int)
 .text          0x000a0824      0x458 ..//lib/libcircle.a(heapallocator.o)
                0x000a0824                CHeapAllocator::CHeapAllocator(char const*)
                0x000a0824                CHeapAllocator::CHeapAllocator(char const*)
                0x000a0888                CHeapAllocator::~CHeapAllocator()
                0x000a0888                CHeapAllocator::~CHeapAllocator()
                0x000a088c                CHeapAllocator::Setup(unsigned int, unsigned int, unsigned int)
                0x000a0898                CHeapAllocator::GetFreeSpace() const
                0x000a08a4                CHeapAllocator::Allocate(unsigned int)
                0x000a0a88                CHeapAllocator::Free(void*)
                0x000a0b94                CHeapAllocator::ReAllocate(void*, unsigned int)
 .text          0x000a0c7c      0x1bc ..//lib/libcircle.a(pageallocator.o)
                0x000a0c7c                CPageAllocator::CPageAllocator()
                0x000a0c7c                CPageAllocator::CPageAllocator()
                0x000a0c98                CPageAllocator::~CPageAllocator()
                0x000a0c98                CPageAllocator::~CPageAllocator()
                0x000a0c9c                CPageAllocator::Setup(unsigned int, unsigned int)
                0x000a0d04                CPageAllocator::GetFreeSpace() const
                0x000a0d10                CPageAllocator::Allocate()
                0x000a0dd8                CPageAllocator::Free(void*)
 .text          0x000a0e38       0x20 ..//lib/libcircle.a(setjmp.o)
                0x000a0e38                setjmp
                0x000a0e44                longjmp
 .text          0x000a0e58      0x18c ..//lib/libcircle.a(numberpool.o)
                0x000a0e58                CNumberPool::CNumberPool(unsigned int, unsigned int)
                0x000a0e58                CNumberPool::CNumberPool(unsigned int, unsigned int)
                0x000a0eac                CNumberPool::~CNumberPool()
                0x000a0eac                CNumberPool::~CNumberPool()
                0x000a0eb0                CNumberPool::AllocateNumber(bool, char const*)
                0x000a0f64                CNumberPool::FreeNumber(unsigned int)
 .text          0x000a0fe4      0x698 ..//lib/libcircle.a(ptrlistfiq.o)
                0x000a0fe4                TPtrListElement::operator new(unsigned int)
                0x000a1038                TPtrListElement::operator delete(void*, unsigned int)
                0x000a1090                TPtrListElement::InitAllocator(unsigned int)
                0x000a10ec                TPtrListElement::InitProtectedAllocator(unsigned int, unsigned int)
                0x000a1158                CPtrListFIQ::CPtrListFIQ(unsigned int)
                0x000a1158                CPtrListFIQ::CPtrListFIQ(unsigned int)
                0x000a11d4                CPtrListFIQ::~CPtrListFIQ()
                0x000a11d4                CPtrListFIQ::~CPtrListFIQ()
                0x000a11fc                CPtrListFIQ::GetFirst()
                0x000a1204                CPtrListFIQ::GetNext(TPtrListElement*)
                0x000a1258                CPtrListFIQ::GetPtr(TPtrListElement*)
                0x000a12ac                CPtrListFIQ::InsertBefore(TPtrListElement*, void*)
                0x000a13d4                CPtrListFIQ::InsertAfter(TPtrListElement*, void*)
                0x000a14f4                CPtrListFIQ::Remove(TPtrListElement*)
                0x000a1624                CPtrListFIQ::Find(void*)
 .text          0x000a167c        0x0 ..//lib/libcircle.a(font8x16.o)
 .text          0x000a167c      0x368 ..//lib/libcircle.a(exceptionhandler.o)
                0x000a167c                CExceptionHandler::~CExceptionHandler()
                0x000a167c                CExceptionHandler::~CExceptionHandler()
                0x000a1690                CExceptionHandler::~CExceptionHandler()
                0x000a16b8                CExceptionHandler::Throw(unsigned int)
                0x000a16f8                CExceptionHandler::Throw(unsigned int, TAbortFrame*)
                0x000a17e8                CExceptionHandler::CExceptionHandler()
                0x000a17e8                CExceptionHandler::CExceptionHandler()
                0x000a18bc                CExceptionHandler::Get()
                0x000a18ec                ExceptionHandler
                0x000a194c                raise
 .text          0x000a19e4      0x188 ..//lib/libcircle.a(exceptionstub.o)
                0x000a19e4                UndefinedInstructionInternal
                0x000a1a34                PrefetchAbortStub
                0x000a1a84                DataAbortStub
                0x000a1ad4                UndefinedInstructionStub
                0x000a1af0                IRQStub
                0x000a1b08                FIQStub
 .text          0x000a1b6c      0x2e0 ..//lib/libcircle.a(memory.o)
                0x000a1b6c                CMemorySystem::Destructor()
                0x000a1bbc                CMemorySystem::~CMemorySystem()
                0x000a1bbc                CMemorySystem::~CMemorySystem()
                0x000a1be0                CMemorySystem::GetMemSize() const
                0x000a1c18                CMemorySystem::Get()
                0x000a1c44                CMemorySystem::EnableMMU()
                0x000a1cfc                CMemorySystem::CMemorySystem(bool)
                0x000a1cfc                CMemorySystem::CMemorySystem(bool)
                0x000a1e40                CMemorySystem::GetCoherentPage(unsigned int)
 .text          0x000a1e4c       0x9c ..//lib/libcircle.a(pagetable.o)
                0x000a1e4c                CPageTable::CPageTable(unsigned int)
                0x000a1e4c                CPageTable::CPageTable(unsigned int)
                0x000a1ed8                CPageTable::~CPageTable()
                0x000a1ed8                CPageTable::~CPageTable()
                0x000a1edc                CPageTable::GetBaseAddress() const
 .text          0x000a1ee8        0x0 ..//lib/libcircle.a(startup.o)
 .text          0x000a1ee8      0x174 ..//lib/libcircle.a(synchronize.o)
                0x000a1ee8                CurrentExecutionLevel
                0x000a1f00                EnterCritical
                0x000a1fa8                LeaveCritical
                0x000a2000                CleanAndInvalidateDataCacheRange
                0x000a203c                SyncDataAndInstructionCache
 .text          0x000a205c       0xf4 ..//lib/libcircle.a(bcmrandom.o)
                0x000a205c                CBcmRandomNumberGenerator::CBcmRandomNumberGenerator()
                0x000a205c                CBcmRandomNumberGenerator::CBcmRandomNumberGenerator()
                0x000a20e4                CBcmRandomNumberGenerator::~CBcmRandomNumberGenerator()
                0x000a20e4                CBcmRandomNumberGenerator::~CBcmRandomNumberGenerator()
                0x000a20e8                CBcmRandomNumberGenerator::GetNumber()
 .text.startup  0x000a2150       0x14 ..//lib/libcircle.a(bcmrandom.o)
 .text          0x000a2164      0x7a8 ..//lib/libcircle.a(interrupt.o)
                0x000a2164                CInterruptSystem::CInterruptSystem()
                0x000a2164                CInterruptSystem::CInterruptSystem()
                0x000a2198                CInterruptSystem::~CInterruptSystem()
                0x000a2198                CInterruptSystem::~CInterruptSystem()
                0x000a21e0                CInterruptSystem::Destructor()
                0x000a2228                CInterruptSystem::Initialize()
                0x000a22e0                CInterruptSystem::ConnectIRQ(unsigned int, void (*)(void*), void*)
                0x000a2398                CInterruptSystem::DisconnectIRQ(unsigned int)
                0x000a2454                CInterruptSystem::ConnectFIQ(unsigned int, void (*)(void*), void*)
                0x000a2524                CInterruptSystem::DisconnectFIQ()
                0x000a25a4                CInterruptSystem::EnableIRQ(unsigned int)
                0x000a2618                CInterruptSystem::DisableIRQ(unsigned int)
                0x000a268c                CInterruptSystem::EnableFIQ(unsigned int)
                0x000a26d4                CInterruptSystem::DisableFIQ()
                0x000a26f0                CInterruptSystem::Get()
                0x000a2720                CInterruptSystem::CallIRQHandler(unsigned int)
                0x000a27b4                CInterruptSystem::InterruptHandler()
                0x000a28f4                InterruptHandler
 .text          0x000a290c      0xdbc ..//lib/libcircle.a(gpiopin.o)
                0x000a290c                CGPIOPin::~CGPIOPin()
                0x000a290c                CGPIOPin::~CGPIOPin()
                0x000a2910                CGPIOPin::~CGPIOPin()
                0x000a2928                CGPIOPin::CGPIOPin()
                0x000a2928                CGPIOPin::CGPIOPin()
                0x000a2960                CGPIOPin::AssignPin(unsigned int)
                0x000a29e4                CGPIOPin::Write(unsigned int)
                0x000a2a74                CGPIOPin::Read() const
                0x000a2aec                CGPIOPin::Invert()
                0x000a2b84                CGPIOPin::ConnectInterrupt(void (*)(void*), void*, bool)
                0x000a2c54                CGPIOPin::DisconnectInterrupt()
                0x000a2d04                CGPIOPin::EnableInterrupt(TGPIOInterrupt)
                0x000a2dfc                CGPIOPin::DisableInterrupt()
                0x000a2eac                CGPIOPin::EnableInterrupt2(TGPIOInterrupt)
                0x000a2fb4                CGPIOPin::DisableInterrupt2()
                0x000a3064                CGPIOPin::AcknowledgeInterrupt()
                0x000a30c8                CGPIOPin::SetModeAll(unsigned int, unsigned int)
                0x000a31a0                CGPIOPin::WriteAll(unsigned int, unsigned int)
                0x000a31d0                CGPIOPin::ReadAll()
                0x000a31ec                CGPIOPin::SetPullMode(TGPIOPullMode)
                0x000a3290                CGPIOPin::SetAlternateFunction(unsigned int)
                0x000a3354                CGPIOPin::SetMode(TGPIOMode, bool)
                0x000a350c                CGPIOPin::CGPIOPin(unsigned int, TGPIOMode, CGPIOManager*)
                0x000a350c                CGPIOPin::CGPIOPin(unsigned int, TGPIOMode, CGPIOManager*)
                0x000a35b0                CGPIOPin::InterruptHandler()
                0x000a3638                CGPIOPin::DisableAllInterrupts(unsigned int)
 .text.startup  0x000a36c8       0x14 ..//lib/libcircle.a(gpiopin.o)
 .text          0x000a36dc      0x234 ..//lib/libcircle.a(usertimer.o)
                0x000a36dc                CUserTimer::InterruptHandler(void*)
                0x000a3748                CUserTimer::CUserTimer(CInterruptSystem*, void (*)(CUserTimer*, void*), void*, bool)
                0x000a3748                CUserTimer::CUserTimer(CInterruptSystem*, void (*)(CUserTimer*, void*), void*, bool)
                0x000a3764                CUserTimer::~CUserTimer()
                0x000a3764                CUserTimer::~CUserTimer()
                0x000a37ac                CUserTimer::Initialize()
                0x000a3850                CUserTimer::Stop()
                0x000a38a8                CUserTimer::Start(unsigned int)
 .text          0x000a3910       0x5c ..//lib/libcircle.a(cxa_guard.o)
                0x000a3910                __cxa_guard_acquire
                0x000a3960                __cxa_guard_release
 .text          0x000a396c      0x1d4 ..//lib/libcircle.a(bcmmailbox.o)
                0x000a396c                CBcmMailBox::CBcmMailBox(unsigned int, bool)
                0x000a396c                CBcmMailBox::CBcmMailBox(unsigned int, bool)
                0x000a3978                CBcmMailBox::~CBcmMailBox()
                0x000a3978                CBcmMailBox::~CBcmMailBox()
                0x000a397c                CBcmMailBox::WriteRead(unsigned int)
                0x000a3a94                CBcmMailBox::Flush()
                0x000a3ac8                CBcmMailBox::Read()
                0x000a3af8                CBcmMailBox::Write(unsigned int)
 .text.startup  0x000a3b40       0x14 ..//lib/libcircle.a(bcmmailbox.o)
 *fill*         0x000a3b54        0x4 
 .text          0x000a3b58       0x14 ..//lib/libcircle.a(delayloop.o)
                0x000a3b58                DelayLoop
 .text          0x000a3b6c     0x1d98 ..//lib/libcircle.a(terminal.o)
                0x000a3b6c                CTerminalDevice::~CTerminalDevice()
                0x000a3b6c                CTerminalDevice::~CTerminalDevice()
                0x000a3bdc                CTerminalDevice::~CTerminalDevice()
                0x000a3e90                CTerminalDevice::CTerminalDevice(CDisplay*, unsigned int, TFont const&, CCharGenerator::TFontFlags)
                0x000a3e90                CTerminalDevice::CTerminalDevice(CDisplay*, unsigned int, TFont const&, CCharGenerator::TFontFlags)
                0x000a3f34                CTerminalDevice::GetWidth() const
                0x000a3f3c                CTerminalDevice::GetHeight() const
                0x000a3f44                CTerminalDevice::GetColumns() const
                0x000a3f58                CTerminalDevice::GetRows() const
                0x000a3f6c                CTerminalDevice::GetDisplay()
                0x000a3f74                CTerminalDevice::SetPixel(unsigned int, unsigned int, CDisplay::TColor)
                0x000a405c                CTerminalDevice::SetPixel(unsigned int, unsigned int, unsigned int)
                0x000a4110                CTerminalDevice::GetPixel(unsigned int, unsigned int)
                0x000a41c4                CTerminalDevice::SetCursorBlock(bool)
                0x000a41cc                CTerminalDevice::Update(unsigned int)
                0x000a42cc                CTerminalDevice::CarriageReturn()
                0x000a42d8                CTerminalDevice::CursorHome()
                0x000a42ec                CTerminalDevice::CursorLeft()
                0x000a4338                CTerminalDevice::CursorMove(unsigned int, unsigned int)
                0x000a437c                CTerminalDevice::CursorUp()
                0x000a4398                CTerminalDevice::DeleteChars(unsigned int)
                0x000a439c                CTerminalDevice::DeleteLines(unsigned int)
                0x000a43a0                CTerminalDevice::GetTextBackgroundColor()
                0x000a43bc                CTerminalDevice::GetTextColor()
                0x000a43d8                CTerminalDevice::InsertLines(unsigned int)
                0x000a43dc                CTerminalDevice::InsertMode(bool)
                0x000a43e4                CTerminalDevice::ReverseScroll()
                0x000a43e8                CTerminalDevice::SetAutoPageMode(bool)
                0x000a43f0                CTerminalDevice::SetCursorMode(bool)
                0x000a43f8                CTerminalDevice::SetScrollRegion(unsigned int, unsigned int)
                0x000a444c                CTerminalDevice::SetStandoutMode(unsigned int)
                0x000a4764                CTerminalDevice::Scroll()
                0x000a48b4                CTerminalDevice::CursorDown()
                0x000a4908                CTerminalDevice::NewLine()
                0x000a4960                CTerminalDevice::CursorRight()
                0x000a49d4                CTerminalDevice::Tabulator()
                0x000a4a5c                CTerminalDevice::DisplayChar(char, unsigned int, unsigned int, unsigned int)
                0x000a4c04                CTerminalDevice::DisplayChar(char)
                0x000a4cb4                CTerminalDevice::EraseChar(unsigned int, unsigned int)
                0x000a4de8                CTerminalDevice::ClearLineEnd()
                0x000a4f40                CTerminalDevice::ClearDisplayEnd()
                0x000a5078                CTerminalDevice::Initialize()
                0x000a5258                CTerminalDevice::Write(char)
                0x000a57a4                CTerminalDevice::Write(void const*, unsigned int)
                0x000a58a8                CTerminalDevice::EraseChars(unsigned int)
                0x000a58f4                CTerminalDevice::InvertCursor()
 .text          0x000a5904      0x334 ..//lib/libcircle.a(gpiomanager.o)
                0x000a5904                CGPIOManager::CGPIOManager(CInterruptSystem*)
                0x000a5904                CGPIOManager::CGPIOManager(CInterruptSystem*)
                0x000a5928                CGPIOManager::~CGPIOManager()
                0x000a5928                CGPIOManager::~CGPIOManager()
                0x000a59a4                CGPIOManager::Initialize()
                0x000a5a10                CGPIOManager::ConnectInterrupt(CGPIOPin*)
                0x000a5aa0                CGPIOManager::DisconnectInterrupt(CGPIOPin*)
                0x000a5b34                CGPIOManager::InterruptHandler()
                0x000a5c10                CGPIOManager::InterruptStub(void*)
 .text          0x000a5c38      0x20c /Applications/ArmGNUToolchain/14.2.rel1/arm-none-eabi/bin/../lib/gcc/arm-none-eabi/14.2.1/arm/v5te/hard/libgcc.a(_udivsi3.o)
                0x000a5c38                __udivsi3
                0x000a5c38                __aeabi_uidiv
                0x000a5e24                __aeabi_uidivmod
 .text          0x000a5e44      0x240 /Applications/ArmGNUToolchain/14.2.rel1/arm-none-eabi/bin/../lib/gcc/arm-none-eabi/14.2.1/arm/v5te/hard/libgcc.a(_divsi3.o)
                0x000a5e44                __divsi3
                0x000a5e44                __aeabi_idiv
                0x000a6064                __aeabi_idivmod
 .text          0x000a6084        0x4 /Applications/ArmGNUToolchain/14.2.rel1/arm-none-eabi/bin/../lib/gcc/arm-none-eabi/14.2.1/arm/v5te/hard/libgcc.a(_dvmd_tls.o)
                0x000a6084                __aeabi_ldiv0
                0x000a6084                __aeabi_idiv0
 .text          0x000a6088       0x3c /Applications/ArmGNUToolchain/14.2.rel1/arm-none-eabi/bin/../lib/gcc/arm-none-eabi/14.2.1/arm/v5te/hard/libgcc.a(_aeabi_uldivmod.o)
                0x000a6088                __aeabi_uldivmod
 .text          0x000a60c4        0x0 /Applications/ArmGNUToolchain/14.2.rel1/arm-none-eabi/bin/../lib/gcc/arm-none-eabi/14.2.1/arm/v5te/hard/libgcc.a(_udivmoddi4.o)
 .text.__udivmoddi4
                0x000a60c4      0x120 /Applications/ArmGNUToolchain/14.2.rel1/arm-none-eabi/bin/../lib/gcc/arm-none-eabi/14.2.1/arm/v5te/hard/libgcc.a(_udivmoddi4.o)
                0x000a60c4                __udivmoddi4
                0x000a61e4                        _etext = .

.glue_7         0x000a61e4        0x0
 .glue_7        0x000a61e4        0x0 linker stubs

.glue_7t        0x000a61e4        0x0
 .glue_7t       0x000a61e4        0x0 linker stubs

.vfp11_veneer   0x000a61e4        0x0
 .vfp11_veneer  0x000a61e4        0x0 linker stubs

.v4_bx          0x000a61e4        0x0
 .v4_bx         0x000a61e4        0x0 linker stubs

.iplt           0x000a61e4        0x0
 .iplt          0x000a61e4        0x0 ..//VT100/build/main.o

.rodata         0x000a61e8    0x2ccc8
 *(.rodata*)
 .rodata._ZTV13CPeriodicTask
                0x000a61e8       0x14 ..//VT100/build/kernel.o
                0x000a61e8                vtable for CPeriodicTask
 .rodata        0x000a61fc      0x54d ..//VT100/build/kernel.o
 *fill*         0x000a6749        0x3 
 .rodata.str1.4
                0x000a674c    0x188c8 ..//VT100/build/hal.o
                                0x1f2 (size before relaxing)
 .rodata        0x000bf014        0x5 ..//VT100/build/hal.o
 .rodata.str1.4
                0x000bf019       0x2a ..//VT100/build/TFontConverter.o
 *fill*         0x000bf019        0x3 
 .rodata        0x000bf01c       0x23 ..//VT100/build/TFontConverter.o
                0x000bf01c                vtable for CTFontConverter
 *fill*         0x000bf03f        0x1 
 .rodata        0x000bf040      0xab8 ..//VT100/build/VT100_FontConverter.o
 .rodata        0x000bfaf8      0x657 ..//VT100/build/TRenderer.o
                0x000bfef4                vtable for CTRenderer
 *fill*         0x000c014f        0x1 
 .rodata        0x000c0150     0x15fc ..//VT100/build/TConfig.o
                0x000c0158                vtable for CTConfig
                0x000c094c                CTConfig::ConfigFileName
 .rodata        0x000c174c       0xbf ..//VT100/build/TKeyboard.o
                0x000c174c                vtable for CTKeyboard
 .rodata.str1.4
                0x000c180b      0x110 ..//VT100/build/TUART.o
 *fill*         0x000c180b        0x1 
 .rodata._ZTVN6CTUART23CSerialDeviceWithAccessE
                0x000c180c       0x28 ..//VT100/build/TUART.o
                0x000c180c                vtable for CTUART::CSerialDeviceWithAccess
 .rodata        0x000c1834       0x1b ..//VT100/build/TUART.o
                0x000c1834                vtable for CTUART
 .rodata.str1.4
                0x000c184f       0x46 ..//VT100/build/TFileLog.o
 *fill*         0x000c184f        0x1 
 .rodata        0x000c1850       0x82 ..//VT100/build/TFileLog.o
                0x000c1850                vtable for CTFileLog
 *fill*         0x000c18d2        0x2 
 .rodata        0x000c18d4      0xabc ..//VT100/build/TWlanLog.o
                0x000c18e0                vtable for CTWlanLog
 .rodata        0x000c2390      0x7a2 ..//VT100/build/TSetup.o
                0x000c23c0                vtable for CTSetup
 *fill*         0x000c2b32        0x2 
 .rodata        0x000c2b34     0x1a6c ..//VT100/build/VTTest.o
 .rodata.str1.4
                0x000c45a0       0x3f ..//addon/wlan/hostap/wpa_supplicant/libwpa_supplicant.a(wpasupplicant.o)
 .rodata.str1.4
                0x000c45a0       0x5b ..//addon/wlan/hostap/wpa_supplicant/libwpa_supplicant.a(os_circle.o)
 .rodata        0x000c45a0        0x4 ..//addon/wlan/hostap/wpa_supplicant/libwpa_supplicant.a(os_circle.o)
 .rodata.str1.4
                0x000c45a4        0xe ..//addon/wlan/hostap/wpa_supplicant/libwpa_supplicant.a(main_circle.o)
 .rodata.str1.4
                0x000c45a4     0x312b ..//addon/wlan/hostap/wpa_supplicant/libwpa_supplicant.a(wpa_supplicant.o)
 *fill*         0x000c45a4        0x4 
 .rodata        0x000c45a8      0x128 ..//addon/wlan/hostap/wpa_supplicant/libwpa_supplicant.a(wpa_supplicant.o)
                0x000c46b4                wpa_supplicant_full_license5
                0x000c46b8                wpa_supplicant_full_license4
                0x000c46bc                wpa_supplicant_full_license3
                0x000c46c0                wpa_supplicant_full_license2
                0x000c46c4                wpa_supplicant_full_license1
                0x000c46c8                wpa_supplicant_license
                0x000c46cc                wpa_supplicant_version
 .rodata.str1.4
                0x000c46d0      0x829 ..//addon/wlan/hostap/wpa_supplicant/libwpa_supplicant.a(wpas_glue.o)
 .rodata        0x000c46d0       0x18 ..//addon/wlan/hostap/wpa_supplicant/libwpa_supplicant.a(wpas_glue.o)
 .rodata        0x000c46e8       0xd2 ..//addon/wlan/hostap/wpa_supplicant/libwpa_supplicant.a(hw_features_common.o)
 .rodata.str1.4
                0x000c47ba      0x83c ..//addon/wlan/hostap/wpa_supplicant/libwpa_supplicant.a(hw_features_common.o)
 .rodata.str1.4
                0x000c47ba     0x1c63 ..//addon/wlan/hostap/wpa_supplicant/libwpa_supplicant.a(ieee802_11_common.o)
 *fill*         0x000c47ba        0x2 
 .rodata        0x000c47bc      0xdc8 ..//addon/wlan/hostap/wpa_supplicant/libwpa_supplicant.a(ieee802_11_common.o)
                0x000c537c                global_op_class
 .rodata.str1.4
                0x000c5584      0xc2f ..//addon/wlan/hostap/wpa_supplicant/libwpa_supplicant.a(wpa_common.o)
 .rodata        0x000c5584       0xc4 ..//addon/wlan/hostap/wpa_supplicant/libwpa_supplicant.a(wpa_common.o)
 .rodata.str1.4
                0x000c5648      0xa9a ..//addon/wlan/hostap/wpa_supplicant/libwpa_supplicant.a(driver_common.o)
 .rodata        0x000c5648      0x1d8 ..//addon/wlan/hostap/wpa_supplicant/libwpa_supplicant.a(driver_common.o)
 .rodata        0x000c5820        0x8 ..//addon/wlan/hostap/wpa_supplicant/libwpa_supplicant.a(drivers.o)
                0x000c5820                wpa_drivers
 .rodata.str1.4
                0x000c5828       0x19 ..//addon/wlan/hostap/wpa_supplicant/libwpa_supplicant.a(eap_methods.o)
 .rodata        0x000c5828       0x80 ..//addon/wlan/hostap/wpa_supplicant/libwpa_supplicant.a(eapol_supp_sm.o)
 .rodata.str1.4
                0x000c58a8      0x9dc ..//addon/wlan/hostap/wpa_supplicant/libwpa_supplicant.a(eapol_supp_sm.o)
 .rodata.str1.4
                0x000c58a8       0xd1 ..//addon/wlan/hostap/wpa_supplicant/libwpa_supplicant.a(l2_packet_circle.o)
 .rodata.str1.4
                0x000c58a8      0x67e ..//addon/wlan/hostap/wpa_supplicant/libwpa_supplicant.a(pmksa_cache.o)
 .rodata.str1.4
                0x000c58a8      0x4b3 ..//addon/wlan/hostap/wpa_supplicant/libwpa_supplicant.a(preauth.o)
 .rodata.str1.4
                0x000c58a8     0x3114 ..//addon/wlan/hostap/wpa_supplicant/libwpa_supplicant.a(wpa.o)
 .rodata        0x000c58a8       0x24 ..//addon/wlan/hostap/wpa_supplicant/libwpa_supplicant.a(wpa.o)
 .rodata.str1.4
                0x000c58cc       0x86 ..//addon/wlan/hostap/wpa_supplicant/libwpa_supplicant.a(wpa_ie.o)
 .rodata.str1.4
                0x000c58cc       0x94 ..//addon/wlan/hostap/wpa_supplicant/libwpa_supplicant.a(common.o)
 .rodata        0x000c58cc       0x3c ..//addon/wlan/hostap/wpa_supplicant/libwpa_supplicant.a(common.o)
 .rodata.str1.4
                0x000c5908       0x2f ..//addon/wlan/hostap/wpa_supplicant/libwpa_supplicant.a(wpabuf.o)
 .rodata.str1.4
                0x000c5908      0x679 ..//addon/wlan/hostap/wpa_supplicant/libwpa_supplicant.a(bss.o)
 .rodata        0x000c5908       0x5e ..//addon/wlan/hostap/wpa_supplicant/libwpa_supplicant.a(bss.o)
 .rodata.str1.4
                0x000c5966      0x188 ..//addon/wlan/hostap/wpa_supplicant/libwpa_supplicant.a(bssid_ignore.o)
 .rodata.str1.4
                0x000c5966     0x1bb0 ..//addon/wlan/hostap/wpa_supplicant/libwpa_supplicant.a(config.o)
 *fill*         0x000c5966        0x2 
 .rodata        0x000c5968     0x1894 ..//addon/wlan/hostap/wpa_supplicant/libwpa_supplicant.a(config.o)
 .rodata.str1.4
                0x000c71fc      0x4c1 ..//addon/wlan/hostap/wpa_supplicant/libwpa_supplicant.a(config_file.o)
 .rodata.str1.4
                0x000c71fc     0x2cf0 ..//addon/wlan/hostap/wpa_supplicant/libwpa_supplicant.a(events.o)
 .rodata        0x000c71fc       0xe0 ..//addon/wlan/hostap/wpa_supplicant/libwpa_supplicant.a(events.o)
 .rodata.str1.4
                0x000c72dc      0x251 ..//addon/wlan/hostap/wpa_supplicant/libwpa_supplicant.a(notify.o)
 .rodata.str1.4
                0x000c72dc       0xbd ..//addon/wlan/hostap/wpa_supplicant/libwpa_supplicant.a(op_classes.o)
 .rodata        0x000c72dc       0x15 ..//addon/wlan/hostap/wpa_supplicant/libwpa_supplicant.a(op_classes.o)
 .rodata.str1.4
                0x000c72f1      0xe0d ..//addon/wlan/hostap/wpa_supplicant/libwpa_supplicant.a(rrm.o)
 *fill*         0x000c72f1        0x3 
 .rodata        0x000c72f4       0x25 ..//addon/wlan/hostap/wpa_supplicant/libwpa_supplicant.a(rrm.o)
 *fill*         0x000c7319        0x3 
 .rodata        0x000c731c      0x420 ..//addon/wlan/hostap/wpa_supplicant/libwpa_supplicant.a(scan.o)
 .rodata.str1.4
                0x000c773c     0x1164 ..//addon/wlan/hostap/wpa_supplicant/libwpa_supplicant.a(scan.o)
 .rodata.str1.4
                0x000c773c        0x2 ..//addon/wlan/hostap/wpa_supplicant/libwpa_supplicant.a(sha1-internal.o)
 .rodata        0x000c773c        0x2 ..//addon/wlan/hostap/wpa_supplicant/libwpa_supplicant.a(sha1-internal.o)
 *fill*         0x000c773e        0x2 
 .rodata        0x000c7740      0x100 ..//addon/wlan/hostap/wpa_supplicant/libwpa_supplicant.a(sha256-internal.o)
 .rodata.str1.4
                0x000c7840      0x2cb ..//addon/wlan/hostap/wpa_supplicant/libwpa_supplicant.a(driver_circle.o)
 .rodata        0x000c7840      0x4a8 ..//addon/wlan/hostap/wpa_supplicant/libwpa_supplicant.a(driver_circle.o)
                0x000c7a84                wpa_driver_circle_ops
 .rodata.str1.4
                0x000c7ce8      0xfed ..//addon/wlan/hostap/wpa_supplicant/libwpa_supplicant.a(eap.o)
 .rodata        0x000c7ce8       0x40 ..//addon/wlan/hostap/wpa_supplicant/libwpa_supplicant.a(eap.o)
 .rodata        0x000c7d28       0x85 ..//addon/wlan/hostap/wpa_supplicant/libwpa_supplicant.a(base64.o)
 .rodata.str1.4
                0x000c7dad       0x2a ..//addon/wlan/hostap/wpa_supplicant/libwpa_supplicant.a(config.o)
 *fill*         0x000c7dad        0x3 
 .rodata        0x000c7db0      0x90c ..//addon/wlan/hostap/wpa_supplicant/libwpa_supplicant.a(aes-internal.o)
                0x000c7db0                rcons
                0x000c7dbc                Te0
                0x000c81bc                Td4s
                0x000c82bc                Td0
 .rodata.str1.4
                0x000c86bc        0x5 ..//addon/wlan/hostap/wpa_supplicant/libwpa_supplicant.a(tls_none.o)
 .rodata.str1.4
                0x000c86bc       0x94 ..//addon/wlan/hostap/wpa_supplicant/libwpa_supplicant.a(eap_common.o)
 .rodata        0x000c86bc      0x211 ..//addon/wlan/libwlan.a(bcm4343.o)
                0x000c876c                vtable for CBcm4343Device
 .rodata.str1.4
                0x000c88cd      0xe75 ..//addon/wlan/libwlan.a(ether4330.o)
 *fill*         0x000c88cd        0x3 
 .rodata        0x000c88d0      0x3f4 ..//addon/wlan/libwlan.a(ether4330.o)
 .rodata.str1.4
                0x000c8cc4      0x245 ..//addon/wlan/libwlan.a(emmc.o)
 .rodata        0x000c8cc4      0x100 ..//addon/wlan/libwlan.a(emmc.o)
 .rodata.str1.4
                0x000c8dc4       0x78 ..//addon/wlan/libwlan.a(p9chan.o)
 .rodata.str1.4
                0x000c8dc4       0x51 ..//addon/wlan/libwlan.a(p9cmd.o)
 .rodata.str1.4
                0x000c8dc4       0x37 ..//addon/wlan/libwlan.a(p9error.o)
 .rodata.str1.4
                0x000c8dc4       0x83 ..//addon/wlan/libwlan.a(p9ether.o)
 .rodata.str1.4
                0x000c8dc4       0x2b ..//addon/wlan/libwlan.a(p9proc.o)
 .rodata._ZTV6CKProc
                0x000c8dc4       0x14 ..//addon/wlan/libwlan.a(p9proc.o)
                0x000c8dc4                vtable for CKProc
 .rodata.str1.4
                0x000c8dd8       0x1a ..//addon/wlan/libwlan.a(p9util.o)
 .rodata        0x000c8dd8        0x5 ..//addon/wlan/libwlan.a(p9util.o)
 *fill*         0x000c8ddd        0x3 
 .rodata        0x000c8de0       0xba ..//lib/usb/libusb.a(usbkeyboard.o)
                0x000c8de0                vtable for CUSBKeyboardDevice
 *fill*         0x000c8e9a        0x2 
 .rodata        0x000c8e9c      0x5cf ..//lib/usb/libusb.a(dwhcidevice.o)
                0x000c8ed8                vtable for CDWHCIDevice
 .rodata.str1.4
                0x000c946b       0xfc ..//lib/usb/libusb.a(dwhciframeschednper.o)
 *fill*         0x000c946b        0x1 
 .rodata        0x000c946c       0x28 ..//lib/usb/libusb.a(dwhciframeschednper.o)
                0x000c946c                vtable for CDWHCIFrameSchedulerNonPeriodic
 .rodata.str1.4
                0x000c9494       0x94 ..//lib/usb/libusb.a(dwhciframeschednsplit.o)
 .rodata        0x000c9494       0x28 ..//lib/usb/libusb.a(dwhciframeschednsplit.o)
                0x000c9494                vtable for CDWHCIFrameSchedulerNoSplit
 .rodata.str1.4
                0x000c94bc      0x121 ..//lib/usb/libusb.a(dwhciframeschedper.o)
 .rodata        0x000c94bc       0x28 ..//lib/usb/libusb.a(dwhciframeschedper.o)
                0x000c94bc                vtable for CDWHCIFrameSchedulerPeriodic
 .rodata        0x000c94e4       0xe7 ..//lib/usb/libusb.a(dwhcirootport.o)
                0x000c94e4                vtable for CDWHCIRootPort
 *fill*         0x000c95cb        0x1 
 .rodata        0x000c95cc      0x12c ..//lib/usb/libusb.a(dwhcixactqueue.o)
 .rodata        0x000c96f8      0x200 ..//lib/usb/libusb.a(dwhcixferstagedata.o)
 .rodata.str1.4
                0x000c98f8      0x154 ..//lib/usb/libusb.a(dwhciframeschediso.o)
 .rodata        0x000c98f8       0x28 ..//lib/usb/libusb.a(dwhciframeschediso.o)
                0x000c98f8                vtable for CDWHCIFrameSchedulerIsochronous
 .rodata        0x000c9920      0x447 ..//lib/usb/libusb.a(usbdevice.o)
                0x000c9954                vtable for CUSBDevice
 *fill*         0x000c9d67        0x1 
 .rodata        0x000c9d68      0x26a ..//lib/usb/libusb.a(usbdevicefactory.o)
 *fill*         0x000c9fd2        0x2 
 .rodata        0x000c9fd4      0x14c ..//lib/usb/libusb.a(usbendpoint.o)
 .rodata        0x000ca120      0x109 ..//lib/usb/libusb.a(usbfunction.o)
                0x000ca120                vtable for CUSBFunction
 *fill*         0x000ca229        0x3 
 .rodata        0x000ca22c      0x150 ..//lib/usb/libusb.a(usbgamepadps3.o)
                0x000ca22c                vtable for CUSBGamePadPS3Device
                0x000ca2a4                CUSBGamePadPS3Device::s_CommandDefault
 .rodata        0x000ca37c       0xf4 ..//lib/usb/libusb.a(usbgamepadps4.o)
                0x000ca3a8                vtable for CUSBGamePadPS4Device
 .rodata        0x000ca470      0x108 ..//lib/usb/libusb.a(usbgamepadstandard.o)
                0x000ca470                vtable for CUSBGamePadStandardDevice
 .rodata        0x000ca578      0x1be ..//lib/usb/libusb.a(usbgamepadswitchpro.o)
                0x000ca578                vtable for CUSBGamePadSwitchProDevice
 *fill*         0x000ca736        0x2 
 .rodata        0x000ca738      0x132 ..//lib/usb/libusb.a(usbgamepadxbox360.o)
                0x000ca738                vtable for CUSBGamePadXbox360Device
 *fill*         0x000ca86a        0x2 
 .rodata        0x000ca86c      0x10a ..//lib/usb/libusb.a(usbgamepadxboxone.o)
                0x000ca86c                vtable for CUSBGamePadXboxOneDevice
 *fill*         0x000ca976        0x2 
 .rodata        0x000ca978      0x15f ..//lib/usb/libusb.a(usbhiddevice.o)
                0x000ca9d0                vtable for CUSBHIDDevice
 *fill*         0x000caad7        0x1 
 .rodata        0x000caad8       0xbd ..//lib/usb/libusb.a(usbhostcontroller.o)
                0x000cab38                vtable for CUSBHostController
 *fill*         0x000cab95        0x3 
 .rodata        0x000cab98      0x34d ..//lib/usb/libusb.a(usbmassdevice.o)
                0x000cab98                vtable for CUSBBulkOnlyMassStorageDevice
 *fill*         0x000caee5        0x3 
 .rodata        0x000caee8      0x17a ..//lib/usb/libusb.a(usbmidihost.o)
                0x000caee8                vtable for CUSBMIDIHostDevice
 *fill*         0x000cb062        0x2 
 .rodata        0x000cb064       0xfc ..//lib/usb/libusb.a(usbmouse.o)
                0x000cb064                vtable for CUSBMouseDevice
 .rodata        0x000cb160       0xc9 ..//lib/usb/libusb.a(usbprinter.o)
                0x000cb160                vtable for CUSBPrinterDevice
 *fill*         0x000cb229        0x3 
 .rodata        0x000cb22c      0x1a0 ..//lib/usb/libusb.a(usbrequest.o)
 .rodata        0x000cb3cc      0x437 ..//lib/usb/libusb.a(usbstandardhub.o)
                0x000cb3cc                vtable for CUSBStandardHub
 *fill*         0x000cb803        0x1 
 .rodata        0x000cb804       0x7e ..//lib/usb/libusb.a(usbstring.o)
 *fill*         0x000cb882        0x2 
 .rodata        0x000cb884      0x19c ..//lib/usb/libusb.a(usbserialch341.o)
                0x000cb884                vtable for CUSBSerialCH341Device
 .rodata        0x000cba20      0x2ec ..//lib/usb/libusb.a(usbserialcp210x.o)
                0x000cba20                vtable for CUSBSerialCP210xDevice
                0x000cbae4                CUSBSerialCP210xDevice::s_DeviceInfo
 .rodata        0x000cbd0c      0x1e3 ..//lib/usb/libusb.a(usbserialpl2303.o)
                0x000cbd10                vtable for CUSBSerialPL2303Device
 *fill*         0x000cbeef        0x1 
 .rodata        0x000cbef0      0x1ab ..//lib/usb/libusb.a(usbserialft231x.o)
                0x000cbef0                vtable for CUSBSerialFT231XDevice
 *fill*         0x000cc09b        0x1 
 .rodata        0x000cc09c       0xb2 ..//lib/usb/libusb.a(usbserialcdc.o)
                0x000cc09c                vtable for CUSBSerialCDCDevice
 *fill*         0x000cc14e        0x2 
 .rodata        0x000cc150      0x115 ..//lib/usb/libusb.a(usbtouchscreen.o)
                0x000cc150                vtable for CUSBTouchScreenDevice
 .rodata.str1.4
                0x000cc265       0x7d ..//lib/usb/libusb.a(dwhciregister.o)
 *fill*         0x000cc265        0x3 
 .rodata        0x000cc268      0x284 ..//lib/usb/libusb.a(lan7800.o)
                0x000cc270                vtable for CLAN7800Device
 .rodata        0x000cc4ec      0x2c0 ..//lib/usb/libusb.a(smsc951x.o)
                0x000cc4f8                vtable for CSMSC951xDevice
 .rodata        0x000cc7ac      0x12d ..//lib/usb/libusb.a(usbbluetooth.o)
                0x000cc7ac                vtable for CUSBBluetoothDevice
 *fill*         0x000cc8d9        0x3 
 .rodata        0x000cc8dc      0x179 ..//lib/usb/libusb.a(usbcdcethernet.o)
                0x000cc8dc                vtable for CUSBCDCEthernetDevice
 *fill*         0x000cca55        0x3 
 .rodata        0x000cca58      0x261 ..//lib/usb/libusb.a(usbfloppydevice.o)
                0x000cca58                vtable for CUSBFloppyDiskDevice
 .rodata.str1.4
                0x000cccb9       0xb7 ..//lib/usb/libusb.a(usbconfigparser.o)
 *fill*         0x000cccb9        0x3 
 .rodata        0x000cccbc       0xec ..//lib/usb/libusb.a(usbgamepad.o)
                0x000ccd54                vtable for CUSBGamePadDevice
 .rodata.str1.4
                0x000ccda8      0x121 ..//lib/usb/libusb.a(usbmidi.o)
 .rodata        0x000ccda8       0x78 ..//lib/usb/libusb.a(usbmidi.o)
                0x000ccda8                vtable for CUSBMIDIDevice
 .rodata        0x000cce20      0x1ce ..//lib/usb/libusb.a(usbserialhost.o)
                0x000cce20                vtable for CUSBSerialHostDevice
 .rodata.str1.4
                0x000ccfee       0xc4 ..//lib/usb/libusb.a(usbserial.o)
 *fill*         0x000ccfee        0x2 
 .rodata        0x000ccff0       0x38 ..//lib/usb/libusb.a(usbserial.o)
                0x000ccff0                vtable for CUSBSerialDevice
 .rodata.str1.4
                0x000cd028       0x3b ..//addon/fatfs/libfatfs.a(ff.o)
 .rodata        0x000cd028       0xc5 ..//addon/fatfs/libfatfs.a(ff.o)
 .rodata.str1.4
                0x000cd0ed       0x3d ..//addon/fatfs/libfatfs.a(diskio.o)
 *fill*         0x000cd0ed        0x3 
 .rodata        0x000cd0f0       0x1c ..//addon/fatfs/libfatfs.a(diskio.o)
 .rodata.str1.4
                0x000cd10c       0x4b ..//addon/fatfs/libfatfs.a(ffsystem.o)
 .rodata        0x000cd10c      0x3ba ..//addon/fatfs/libfatfs.a(ffunicode.o)
 .rodata.str1.4
                0x000cd4c6      0x529 ..//addon/SDCard/libsdcard.a(emmc.o)
 *fill*         0x000cd4c6        0x2 
 .rodata        0x000cd4c8      0x228 ..//addon/SDCard/libsdcard.a(emmc.o)
                0x000cd4c8                vtable for CEMMCDevice
                0x000cd4f0                CEMMCDevice::sd_acommands
                0x000cd5f0                CEMMCDevice::sd_commands
 .rodata.str1.4
                0x000cd6f0       0xa7 ..//addon/SDCard/libsdcard.a(mmchost.o)
 .rodata        0x000cd6f0       0x20 ..//addon/SDCard/libsdcard.a(mmchost.o)
                0x000cd6f0                vtable for CMMCHost
 .rodata        0x000cd710      0x85b ..//addon/SDCard/libsdcard.a(sdhost.o)
                0x000cd768                vtable for CSDHOSTDevice
 .rodata.str1.4
                0x000cdf6b       0x92 ..//lib/input/libinput.a(keyboardbehaviour.o)
 .rodata.str1.4
                0x000cdf6b      0x16a ..//lib/input/libinput.a(keymap.o)
 *fill*         0x000cdf6b        0x1 
 .rodata        0x000cdf6c     0x2300 ..//lib/input/libinput.a(keymap.o)
                0x000cdf6c                CKeyMap::s_DefaultMap
 .rodata.str1.4
                0x000d026c       0x3a ..//lib/input/libinput.a(mouse.o)
 .rodata        0x000d026c       0x36 ..//lib/input/libinput.a(mouse.o)
                0x000d026c                vtable for CMouseDevice
 .rodata.str1.4
                0x000d02a2       0x8a ..//lib/input/libinput.a(touchscreen.o)
 *fill*         0x000d02a2        0x2 
 .rodata        0x000d02a4       0x2e ..//lib/input/libinput.a(touchscreen.o)
                0x000d02a4                vtable for CTouchScreenDevice
 .rodata.str1.4
                0x000d02d2      0x192 ..//lib/input/libinput.a(mousebehaviour.o)
 *fill*         0x000d02d2        0x2 
 .rodata        0x000d02d4      0x400 ..//lib/input/libinput.a(mousebehaviour.o)
 .rodata.str1.4
                0x000d06d4       0x7d ..//lib/fs/libfs.a(partitionmanager.o)
 .rodata        0x000d06d4        0x6 ..//lib/fs/libfs.a(partitionmanager.o)
 .rodata.str1.4
                0x000d06da       0x1f ..//lib/fs/libfs.a(partition.o)
 *fill*         0x000d06da        0x2 
 .rodata        0x000d06dc       0x28 ..//lib/fs/libfs.a(partition.o)
                0x000d06dc                vtable for CPartition
 .rodata.str1.4
                0x000d0704       0x35 ..//lib/net/libnet.a(netsubsystem.o)
 .rodata.str1.4
                0x000d0704       0x28 ..//lib/net/libnet.a(nettask.o)
 .rodata        0x000d0704       0x14 ..//lib/net/libnet.a(nettask.o)
                0x000d0704                vtable for CNetTask
 .rodata.str1.4
                0x000d0718      0x121 ..//lib/net/libnet.a(socket.o)
 .rodata        0x000d0718       0x44 ..//lib/net/libnet.a(socket.o)
                0x000d0718                vtable for CSocket
 .rodata.str1.4
                0x000d075c      0x141 ..//lib/net/libnet.a(transportlayer.o)
 .rodata        0x000d075c       0x38 ..//lib/net/libnet.a(transportlayer.o)
 .rodata.str1.4
                0x000d0794      0x1a5 ..//lib/net/libnet.a(networklayer.o)
 .rodata        0x000d0794        0x4 ..//lib/net/libnet.a(networklayer.o)
 .rodata.str1.4
                0x000d0798      0x153 ..//lib/net/libnet.a(linklayer.o)
 .rodata.str1.4
                0x000d0798       0x97 ..//lib/net/libnet.a(netdevlayer.o)
 .rodata        0x000d0798        0x7 ..//lib/net/libnet.a(netdevlayer.o)
 .rodata.str1.4
                0x000d079f       0x23 ..//lib/net/libnet.a(phytask.o)
 *fill*         0x000d079f        0x1 
 .rodata        0x000d07a0       0x14 ..//lib/net/libnet.a(phytask.o)
                0x000d07a0                vtable for CPHYTask
 .rodata.str1.4
                0x000d07b4      0x116 ..//lib/net/libnet.a(arphandler.o)
 .rodata.str1.4
                0x000d07b4      0x2b2 ..//lib/net/libnet.a(icmphandler.o)
 .rodata        0x000d07b4       0x11 ..//lib/net/libnet.a(icmphandler.o)
 .rodata.str1.4
                0x000d07c5       0x91 ..//lib/net/libnet.a(igmphandler.o)
 *fill*         0x000d07c5        0x3 
 .rodata        0x000d07c8        0x8 ..//lib/net/libnet.a(igmphandler.o)
 .rodata.str1.4
                0x000d07d0       0x3c ..//lib/net/libnet.a(routecache.o)
 .rodata.str1.4
                0x000d07d0       0x54 ..//lib/net/libnet.a(netconnection.o)
 .rodata        0x000d07d0       0x54 ..//lib/net/libnet.a(netconnection.o)
                0x000d07d0                vtable for CNetConnection
 .rodata.str1.4
                0x000d0824       0x82 ..//lib/net/libnet.a(udpconnection.o)
 .rodata        0x000d0824       0x50 ..//lib/net/libnet.a(udpconnection.o)
                0x000d0824                vtable for CUDPConnection
 .rodata.str1.4
                0x000d0874      0x2de ..//lib/net/libnet.a(tcpconnection.o)
 .rodata        0x000d0874       0xa4 ..//lib/net/libnet.a(tcpconnection.o)
                0x000d08c4                vtable for CTCPConnection
 .rodata.str1.4
                0x000d0918       0xc4 ..//lib/net/libnet.a(retransmissionqueue.o)
 .rodata.str1.4
                0x000d0918       0x26 ..//lib/net/libnet.a(retranstimeoutcalc.o)
 .rodata.str1.4
                0x000d0918       0x66 ..//lib/net/libnet.a(tcprejector.o)
 .rodata        0x000d0918       0x50 ..//lib/net/libnet.a(tcprejector.o)
                0x000d0918                vtable for CTCPRejector
 .rodata        0x000d0968        0x4 ..//lib/net/libnet.a(netconfig.o)
 .rodata.str1.4
                0x000d096c       0x9e ..//lib/net/libnet.a(ipaddress.o)
 .rodata.str1.4
                0x000d096c       0xb9 ..//lib/net/libnet.a(netqueue.o)
 .rodata.str1.4
                0x000d096c       0x57 ..//lib/net/libnet.a(checksumcalculator.o)
 .rodata.str1.4
                0x000d096c      0x38e ..//lib/net/libnet.a(dhcpclient.o)
 .rodata        0x000d096c       0x80 ..//lib/net/libnet.a(dhcpclient.o)
                0x000d09a8                vtable for CDHCPClient
                0x000d09dc                CDHCPClient::s_TimeoutHZ
 .rodata.str1.4
                0x000d09ec      0x13d ..//lib/net/libnet.a(mdnsdaemon.o)
 .rodata        0x000d09ec       0x20 ..//lib/net/libnet.a(mdnsdaemon.o)
                0x000d09ec                vtable for CmDNSDaemon
 .rodata.str1.4
                0x000d0a0c       0x6b ..//lib/net/libnet.a(netsocket.o)
 .rodata        0x000d0a0c       0x50 ..//lib/net/libnet.a(netsocket.o)
                0x000d0a18                vtable for CNetSocket
 .rodata.str1.4
                0x000d0a5c       0xa9 ..//lib/net/libnet.a(dnsclient.o)
 .rodata.str1.4
                0x000d0a5c       0xbb ..//lib/sched/libsched.a(task.o)
 .rodata        0x000d0a5c       0x14 ..//lib/sched/libsched.a(task.o)
                0x000d0a5c                vtable for CTask
 .rodata.str1.4
                0x000d0a70      0x279 ..//lib/sched/libsched.a(scheduler.o)
 .rodata        0x000d0a70       0x44 ..//lib/sched/libsched.a(scheduler.o)
 .rodata.str1.4
                0x000d0ab4       0x31 ..//lib/sched/libsched.a(synchronizationevent.o)
 .rodata        0x000d0ab4       0x39 ..//lib/libcircle.a(alloc.o)
 .rodata.str1.4
                0x000d0aed       0x1d ..//lib/libcircle.a(assert.o)
 *fill*         0x000d0aed        0x3 
 .rodata        0x000d0af0       0x4c ..//lib/libcircle.a(display.o)
                0x000d0b0c                vtable for CDisplay
 .rodata        0x000d0b3c       0xa0 ..//lib/libcircle.a(bcmframebuffer.o)
                0x000d0b3c                vtable for CBcmFrameBuffer
                0x000d0b6c                CBcmFrameBuffer::s_InitTags
 .rodata        0x000d0bdc       0x98 ..//lib/libcircle.a(bcmpropertytags.o)
 .rodata        0x000d0c74        0x4 ..//lib/libcircle.a(chargenerator.o)
 .rodata.str1.4
                0x000d0c78      0x159 ..//lib/libcircle.a(classallocator.o)
 .rodata.str1.4
                0x000d0c78       0x93 ..//lib/libcircle.a(debug.o)
 .rodata        0x000d0c78        0x6 ..//lib/libcircle.a(debug.o)
 .rodata.str1.4
                0x000d0c7e       0x4e ..//lib/libcircle.a(device.o)
 *fill*         0x000d0c7e        0x2 
 .rodata        0x000d0c80       0x28 ..//lib/libcircle.a(device.o)
                0x000d0c80                vtable for CDevice
 .rodata.str1.4
                0x000d0ca8       0x96 ..//lib/libcircle.a(devicenameservice.o)
 .rodata        0x000d0ca8      0x433 ..//lib/libcircle.a(dmachannel.o)
 .rodata.str1.4
                0x000d10db       0xde ..//lib/libcircle.a(koptions.o)
 *fill*         0x000d10db        0x1 
 .rodata        0x000d10dc        0x2 ..//lib/libcircle.a(koptions.o)
 *fill*         0x000d10de        0x2 
 .rodata        0x000d10e0       0x94 ..//lib/libcircle.a(logger.o)
 .rodata        0x000d1174      0x592 ..//lib/libcircle.a(machineinfo.o)
 .rodata.str1.4
                0x000d1706        0x5 ..//lib/libcircle.a(nulldevice.o)
 *fill*         0x000d1706        0x2 
 .rodata        0x000d1708       0x28 ..//lib/libcircle.a(nulldevice.o)
                0x000d1708                vtable for CNullDevice
 .rodata.str1.4
                0x000d1730       0x95 ..//lib/libcircle.a(ptrarray.o)
 .rodata.str1.4
                0x000d1730      0x176 ..//lib/libcircle.a(ptrlist.o)
 .rodata        0x000d1730       0x54 ..//lib/libcircle.a(screen.o)
                0x000d1750                vtable for CScreenDevice
 .rodata        0x000d1784      0x1c8 ..//lib/libcircle.a(serial.o)
                0x000d17b4                vtable for CSerialDevice
 .rodata.str1.4
                0x000d194c       0x17 ..//lib/libcircle.a(string.o)
 .rodata        0x000d194c       0x54 ..//lib/libcircle.a(string.o)
                0x000d1990                vtable for CString
 .rodata.str1.4
                0x000d19a0        0x9 ..//lib/libcircle.a(sysinit.o)
 .rodata.str1.4
                0x000d19a0      0x1d4 ..//lib/libcircle.a(timer.o)
 .rodata        0x000d19a0       0x36 ..//lib/libcircle.a(timer.o)
                0x000d19a0                CTimer::s_nDaysOfMonth
 *fill*         0x000d19d6        0x2 
 .rodata        0x000d19d8       0x30 ..//lib/libcircle.a(virtualgpiopin.o)
                0x000d19f8                vtable for CVirtualGPIOPin
 .rodata.str1.4
                0x000d1a08       0xaa ..//lib/libcircle.a(macaddress.o)
 .rodata.str1.4
                0x000d1a08       0x97 ..//lib/libcircle.a(netdevice.o)
 .rodata.str1.4
                0x000d1a08       0x7b ..//lib/libcircle.a(heapallocator.o)
 .rodata        0x000d1a08       0x48 ..//lib/libcircle.a(pageallocator.o)
 .rodata.str1.4
                0x000d1a50       0x94 ..//lib/libcircle.a(numberpool.o)
 .rodata.str1.4
                0x000d1a50      0x1d6 ..//lib/libcircle.a(ptrlistfiq.o)
 .rodata        0x000d1a50      0xe08 ..//lib/libcircle.a(font8x16.o)
                0x000d1a50                Font8x16
 .rodata.str1.4
                0x000d2858       0xe4 ..//lib/libcircle.a(exceptionhandler.o)
 .rodata        0x000d2858       0x20 ..//lib/libcircle.a(exceptionhandler.o)
                0x000d2860                vtable for CExceptionHandler
 .rodata        0x000d2878       0x90 ..//lib/libcircle.a(memory.o)
 .rodata.str1.4
                0x000d2908       0xb5 ..//lib/libcircle.a(synchronize.o)
 .rodata.str1.4
                0x000d2908       0xbd ..//lib/libcircle.a(interrupt.o)
 .rodata        0x000d2908      0x305 ..//lib/libcircle.a(gpiopin.o)
                0x000d290c                vtable for CGPIOPin
 .rodata.str1.4
                0x000d2c0d       0x7d ..//lib/libcircle.a(usertimer.o)
 .rodata.str1.4
                0x000d2c0d       0x30 ..//lib/libcircle.a(cxa_guard.o)
 .rodata.str1.4
                0x000d2c0d       0x23 ..//lib/libcircle.a(bcmmailbox.o)
 *fill*         0x000d2c0d        0x3 
 .rodata        0x000d2c10      0x2a0 ..//lib/libcircle.a(terminal.o)
                0x000d2e84                vtable for CTerminalDevice
 .rodata.str1.4
                0x000d2eb0       0x9c ..//lib/libcircle.a(gpiomanager.o)

.ARM.extab.text.__udivmoddi4
                0x000d2eb0        0x0
 .ARM.extab.text.__udivmoddi4
                0x000d2eb0        0x0 /Applications/ArmGNUToolchain/14.2.rel1/arm-none-eabi/bin/../lib/gcc/arm-none-eabi/14.2.1/arm/v5te/hard/libgcc.a(_udivmoddi4.o)

.init_array     0x000d2eb0       0x40
                0x000d2eb0                        __init_start = .
 *(.init_array*)
 .init_array    0x000d2eb0        0x4 ..//lib/usb/libusb.a(usbkeyboard.o)
 .init_array    0x000d2eb4        0x4 ..//lib/usb/libusb.a(usbdevice.o)
 .init_array    0x000d2eb8        0x4 ..//lib/usb/libusb.a(usbmassdevice.o)
 .init_array    0x000d2ebc        0x4 ..//lib/usb/libusb.a(usbprinter.o)
 .init_array    0x000d2ec0        0x4 ..//lib/usb/libusb.a(usbstandardhub.o)
 .init_array    0x000d2ec4        0x4 ..//lib/usb/libusb.a(usbbluetooth.o)
 .init_array    0x000d2ec8        0x4 ..//lib/usb/libusb.a(usbfloppydevice.o)
 .init_array    0x000d2ecc        0x4 ..//lib/usb/libusb.a(usbgamepad.o)
 .init_array    0x000d2ed0        0x4 ..//lib/usb/libusb.a(usbmidi.o)
 .init_array    0x000d2ed4        0x4 ..//lib/usb/libusb.a(usbserial.o)
 .init_array    0x000d2ed8        0x4 ..//lib/input/libinput.a(mouse.o)
 .init_array    0x000d2edc        0x4 ..//lib/input/libinput.a(touchscreen.o)
 .init_array    0x000d2ee0        0x4 ..//lib/libcircle.a(virtualgpiopin.o)
 .init_array    0x000d2ee4        0x4 ..//lib/libcircle.a(bcmrandom.o)
 .init_array    0x000d2ee8        0x4 ..//lib/libcircle.a(gpiopin.o)
 .init_array    0x000d2eec        0x4 ..//lib/libcircle.a(bcmmailbox.o)
                0x000d2ef0                        __init_end = .

.ARM.exidx      0x000d2ef0        0x8
                0x000d2ef0                        __exidx_start = .
 *(.ARM.exidx*)
 .ARM.exidx.text.__udivmoddi4
                0x000d2ef0        0x8 /Applications/ArmGNUToolchain/14.2.rel1/arm-none-eabi/bin/../lib/gcc/arm-none-eabi/14.2.1/arm/v5te/hard/libgcc.a(_udivmoddi4.o)
                0x000d2ef8                        __exidx_end = .

.rel.dyn        0x000d2ef8        0x0
 .rel.iplt      0x000d2ef8        0x0 ..//VT100/build/main.o

.eh_frame
 *(.eh_frame*)

.data           0x000d2ef8      0x5c8
 *(.data*)
 .data          0x000d2ef8        0x0 ..//VT100/build/main.o
 .data          0x000d2ef8        0x0 ..//VT100/build/kernel.o
 .data          0x000d2ef8        0x0 ..//VT100/build/hal.o
 .data          0x000d2ef8        0x0 ..//VT100/build/TFontConverter.o
 .data          0x000d2ef8        0x0 ..//VT100/build/VT100_FontConverter.o
 .data          0x000d2ef8        0x1 ..//VT100/build/TRenderer.o
 *fill*         0x000d2ef9        0x3 
 .data          0x000d2efc      0x180 ..//VT100/build/TConfig.o
 .data          0x000d307c        0x0 ..//VT100/build/TKeyboard.o
 .data          0x000d307c        0x0 ..//VT100/build/TUART.o
 .data          0x000d307c        0x0 ..//VT100/build/TFileLog.o
 .data          0x000d307c        0x0 ..//VT100/build/TWlanLog.o
 .data          0x000d307c        0x0 ..//VT100/build/TSetup.o
 .data          0x000d307c       0x58 ..//VT100/build/VTTest.o
 .data          0x000d30d4        0x0 ..//addon/wlan/hostap/wpa_supplicant/libwpa_supplicant.a(wpasupplicant.o)
 .data          0x000d30d4        0x0 ..//addon/wlan/hostap/wpa_supplicant/libwpa_supplicant.a(eloop_circle.o)
 .data          0x000d30d4        0x0 ..//addon/wlan/hostap/wpa_supplicant/libwpa_supplicant.a(os_circle.o)
 .data          0x000d30d4        0x0 ..//addon/wlan/hostap/wpa_supplicant/libwpa_supplicant.a(main_circle.o)
 .data          0x000d30d4        0x0 ..//addon/wlan/hostap/wpa_supplicant/libwpa_supplicant.a(wpa_supplicant.o)
 .data          0x000d30d4        0x0 ..//addon/wlan/hostap/wpa_supplicant/libwpa_supplicant.a(wpas_glue.o)
 .data          0x000d30d4        0x0 ..//addon/wlan/hostap/wpa_supplicant/libwpa_supplicant.a(hw_features_common.o)
 .data          0x000d30d4        0x4 ..//addon/wlan/hostap/wpa_supplicant/libwpa_supplicant.a(ieee802_11_common.o)
                0x000d30d4                global_op_class_size
 .data          0x000d30d8        0x0 ..//addon/wlan/hostap/wpa_supplicant/libwpa_supplicant.a(ptksa_cache.o)
 .data          0x000d30d8        0x0 ..//addon/wlan/hostap/wpa_supplicant/libwpa_supplicant.a(wpa_common.o)
 .data          0x000d30d8        0x0 ..//addon/wlan/hostap/wpa_supplicant/libwpa_supplicant.a(aes-omac1.o)
 .data          0x000d30d8        0x0 ..//addon/wlan/hostap/wpa_supplicant/libwpa_supplicant.a(md5.o)
 .data          0x000d30d8        0x0 ..//addon/wlan/hostap/wpa_supplicant/libwpa_supplicant.a(sha1-pbkdf2.o)
 .data          0x000d30d8        0x0 ..//addon/wlan/hostap/wpa_supplicant/libwpa_supplicant.a(sha1-prf.o)
 .data          0x000d30d8        0x0 ..//addon/wlan/hostap/wpa_supplicant/libwpa_supplicant.a(sha1.o)
 .data          0x000d30d8        0x0 ..//addon/wlan/hostap/wpa_supplicant/libwpa_supplicant.a(sha256-prf.o)
 .data          0x000d30d8        0x0 ..//addon/wlan/hostap/wpa_supplicant/libwpa_supplicant.a(sha256.o)
 .data          0x000d30d8        0x0 ..//addon/wlan/hostap/wpa_supplicant/libwpa_supplicant.a(driver_common.o)
 .data          0x000d30d8        0x0 ..//addon/wlan/hostap/wpa_supplicant/libwpa_supplicant.a(drivers.o)
 .data          0x000d30d8        0x0 ..//addon/wlan/hostap/wpa_supplicant/libwpa_supplicant.a(eap_methods.o)
 .data          0x000d30d8        0x0 ..//addon/wlan/hostap/wpa_supplicant/libwpa_supplicant.a(eapol_supp_sm.o)
 .data          0x000d30d8        0x0 ..//addon/wlan/hostap/wpa_supplicant/libwpa_supplicant.a(l2_packet_circle.o)
 .data          0x000d30d8        0x0 ..//addon/wlan/hostap/wpa_supplicant/libwpa_supplicant.a(pmksa_cache.o)
 .data          0x000d30d8        0x0 ..//addon/wlan/hostap/wpa_supplicant/libwpa_supplicant.a(preauth.o)
 .data          0x000d30d8        0x0 ..//addon/wlan/hostap/wpa_supplicant/libwpa_supplicant.a(wpa.o)
 .data          0x000d30d8        0x0 ..//addon/wlan/hostap/wpa_supplicant/libwpa_supplicant.a(wpa_ie.o)
 .data          0x000d30d8        0x0 ..//addon/wlan/hostap/wpa_supplicant/libwpa_supplicant.a(common.o)
 .data          0x000d30d8        0x4 ..//addon/wlan/hostap/wpa_supplicant/libwpa_supplicant.a(wpa_debug_circle.o)
                0x000d30d8                wpa_debug_level
 .data          0x000d30dc        0x0 ..//addon/wlan/hostap/wpa_supplicant/libwpa_supplicant.a(wpabuf.o)
 .data          0x000d30dc        0x0 ..//addon/wlan/hostap/wpa_supplicant/libwpa_supplicant.a(bss.o)
 .data          0x000d30dc        0x0 ..//addon/wlan/hostap/wpa_supplicant/libwpa_supplicant.a(bssid_ignore.o)
 .data          0x000d30dc        0x0 ..//addon/wlan/hostap/wpa_supplicant/libwpa_supplicant.a(config.o)
 .data          0x000d30dc        0x0 ..//addon/wlan/hostap/wpa_supplicant/libwpa_supplicant.a(config_file.o)
 .data          0x000d30dc        0x0 ..//addon/wlan/hostap/wpa_supplicant/libwpa_supplicant.a(eap_register.o)
 .data          0x000d30dc        0x0 ..//addon/wlan/hostap/wpa_supplicant/libwpa_supplicant.a(events.o)
 .data          0x000d30dc        0x0 ..//addon/wlan/hostap/wpa_supplicant/libwpa_supplicant.a(notify.o)
 .data          0x000d30dc        0x0 ..//addon/wlan/hostap/wpa_supplicant/libwpa_supplicant.a(op_classes.o)
 .data          0x000d30dc        0x0 ..//addon/wlan/hostap/wpa_supplicant/libwpa_supplicant.a(rrm.o)
 .data          0x000d30dc        0x0 ..//addon/wlan/hostap/wpa_supplicant/libwpa_supplicant.a(scan.o)
 .data          0x000d30dc        0x0 ..//addon/wlan/hostap/wpa_supplicant/libwpa_supplicant.a(aes-internal-enc.o)
 .data          0x000d30dc        0x0 ..//addon/wlan/hostap/wpa_supplicant/libwpa_supplicant.a(aes-unwrap.o)
 .data          0x000d30dc        0x0 ..//addon/wlan/hostap/wpa_supplicant/libwpa_supplicant.a(md5-internal.o)
 .data          0x000d30dc        0x0 ..//addon/wlan/hostap/wpa_supplicant/libwpa_supplicant.a(rc4.o)
 .data          0x000d30dc        0x0 ..//addon/wlan/hostap/wpa_supplicant/libwpa_supplicant.a(sha1-internal.o)
 .data          0x000d30dc        0x0 ..//addon/wlan/hostap/wpa_supplicant/libwpa_supplicant.a(sha256-internal.o)
 .data          0x000d30dc        0x0 ..//addon/wlan/hostap/wpa_supplicant/libwpa_supplicant.a(driver_circle.o)
 .data          0x000d30dc        0x0 ..//addon/wlan/hostap/wpa_supplicant/libwpa_supplicant.a(eap.o)
 .data          0x000d30dc        0x0 ..//addon/wlan/hostap/wpa_supplicant/libwpa_supplicant.a(base64.o)
 .data          0x000d30dc        0x0 ..//addon/wlan/hostap/wpa_supplicant/libwpa_supplicant.a(bitfield.o)
 .data          0x000d30dc        0x0 ..//addon/wlan/hostap/wpa_supplicant/libwpa_supplicant.a(config.o)
 .data          0x000d30dc        0x0 ..//addon/wlan/hostap/wpa_supplicant/libwpa_supplicant.a(aes-internal.o)
 .data          0x000d30dc        0x0 ..//addon/wlan/hostap/wpa_supplicant/libwpa_supplicant.a(aes-internal-dec.o)
 .data          0x000d30dc        0x0 ..//addon/wlan/hostap/wpa_supplicant/libwpa_supplicant.a(tls_none.o)
 .data          0x000d30dc        0x0 ..//addon/wlan/hostap/wpa_supplicant/libwpa_supplicant.a(eap_common.o)
 .data          0x000d30dc        0x0 ..//addon/wlan/libwlan.a(bcm4343.o)
 .data          0x000d30dc      0x1b9 ..//addon/wlan/libwlan.a(ether4330.o)
 *fill*         0x000d3295        0x3 
 .data          0x000d3298       0x1c ..//addon/wlan/libwlan.a(emmc.o)
                0x000d3298                sdio
 .data          0x000d32b4        0x4 ..//addon/wlan/libwlan.a(p9arch.o)
                0x000d32b4                __p9m
 .data          0x000d32b8        0x8 ..//addon/wlan/libwlan.a(p9chan.o)
                0x000d32b8                __p9devtab
 .data          0x000d32c0        0x0 ..//addon/wlan/libwlan.a(p9cmd.o)
 .data          0x000d32c0        0x0 ..//addon/wlan/libwlan.a(p9error.o)
 .data          0x000d32c0        0x0 ..//addon/wlan/libwlan.a(p9ether.o)
 .data          0x000d32c0        0x4 ..//addon/wlan/libwlan.a(p9proc.o)
                0x000d32c0                __p9up
 .data          0x000d32c4        0x0 ..//addon/wlan/libwlan.a(p9util.o)
 .data          0x000d32c4        0x0 ..//lib/usb/libusb.a(usbkeyboard.o)
 .data          0x000d32c4        0x0 ..//lib/usb/libusb.a(dwhcidevice.o)
 .data          0x000d32c4        0x0 ..//lib/usb/libusb.a(dwhciframeschednper.o)
 .data          0x000d32c4        0x0 ..//lib/usb/libusb.a(dwhciframeschednsplit.o)
 .data          0x000d32c4        0x0 ..//lib/usb/libusb.a(dwhciframeschedper.o)
 .data          0x000d32c4        0x0 ..//lib/usb/libusb.a(dwhcirootport.o)
 .data          0x000d32c4        0x0 ..//lib/usb/libusb.a(dwhcixactqueue.o)
 .data          0x000d32c4        0x0 ..//lib/usb/libusb.a(dwhcixferstagedata.o)
 .data          0x000d32c4        0x0 ..//lib/usb/libusb.a(dwhciframeschediso.o)
 .data          0x000d32c4        0x0 ..//lib/usb/libusb.a(usbdevice.o)
 .data          0x000d32c4        0x0 ..//lib/usb/libusb.a(usbdevicefactory.o)
 .data          0x000d32c4        0x0 ..//lib/usb/libusb.a(usbendpoint.o)
 .data          0x000d32c4        0x0 ..//lib/usb/libusb.a(usbfunction.o)
 .data          0x000d32c4        0x0 ..//lib/usb/libusb.a(usbgamepadps3.o)
 .data          0x000d32c4        0x1 ..//lib/usb/libusb.a(usbgamepadps4.o)
                0x000d32c4                CUSBGamePadPS4Device::s_bTouchpadEnabled
 .data          0x000d32c5        0x0 ..//lib/usb/libusb.a(usbgamepadstandard.o)
 .data          0x000d32c5        0x0 ..//lib/usb/libusb.a(usbgamepadswitchpro.o)
 .data          0x000d32c5        0x0 ..//lib/usb/libusb.a(usbgamepadxbox360.o)
 .data          0x000d32c5        0x0 ..//lib/usb/libusb.a(usbgamepadxboxone.o)
 .data          0x000d32c5        0x0 ..//lib/usb/libusb.a(usbhiddevice.o)
 .data          0x000d32c5        0x0 ..//lib/usb/libusb.a(usbhostcontroller.o)
 .data          0x000d32c5        0x0 ..//lib/usb/libusb.a(usbmassdevice.o)
 .data          0x000d32c5        0x0 ..//lib/usb/libusb.a(usbmidihost.o)
 .data          0x000d32c5        0x0 ..//lib/usb/libusb.a(usbmouse.o)
 .data          0x000d32c5        0x0 ..//lib/usb/libusb.a(usbprinter.o)
 .data          0x000d32c5        0x0 ..//lib/usb/libusb.a(usbrequest.o)
 .data          0x000d32c5        0x0 ..//lib/usb/libusb.a(usbstandardhub.o)
 .data          0x000d32c5        0x0 ..//lib/usb/libusb.a(usbstring.o)
 .data          0x000d32c5        0x0 ..//lib/usb/libusb.a(usbserialch341.o)
 .data          0x000d32c5        0x0 ..//lib/usb/libusb.a(usbserialcp210x.o)
 .data          0x000d32c5        0x0 ..//lib/usb/libusb.a(usbserialpl2303.o)
 .data          0x000d32c5        0x0 ..//lib/usb/libusb.a(usbserialft231x.o)
 .data          0x000d32c5        0x0 ..//lib/usb/libusb.a(usbserialcdc.o)
 .data          0x000d32c5        0x0 ..//lib/usb/libusb.a(usbtouchscreen.o)
 .data          0x000d32c5        0x0 ..//lib/usb/libusb.a(dwhciregister.o)
 .data          0x000d32c5        0x0 ..//lib/usb/libusb.a(lan7800.o)
 .data          0x000d32c5        0x0 ..//lib/usb/libusb.a(smsc951x.o)
 .data          0x000d32c5        0x0 ..//lib/usb/libusb.a(usbbluetooth.o)
 .data          0x000d32c5        0x0 ..//lib/usb/libusb.a(usbcdcethernet.o)
 .data          0x000d32c5        0x0 ..//lib/usb/libusb.a(usbfloppydevice.o)
 .data          0x000d32c5        0x0 ..//lib/usb/libusb.a(usbconfigparser.o)
 .data          0x000d32c5        0x0 ..//lib/usb/libusb.a(usbgamepad.o)
 .data          0x000d32c5        0x0 ..//lib/usb/libusb.a(usbmidi.o)
 .data          0x000d32c5        0x0 ..//lib/usb/libusb.a(usbserialhost.o)
 .data          0x000d32c5        0x0 ..//lib/usb/libusb.a(usbserial.o)
 .data          0x000d32c5        0x0 ..//addon/fatfs/libfatfs.a(ff.o)
 .data          0x000d32c5        0x0 ..//addon/fatfs/libfatfs.a(diskio.o)
 .data          0x000d32c5        0x0 ..//addon/fatfs/libfatfs.a(ffsystem.o)
 .data          0x000d32c5        0x0 ..//addon/fatfs/libfatfs.a(ffunicode.o)
 *fill*         0x000d32c5        0x3 
 .data          0x000d32c8       0x18 ..//addon/SDCard/libsdcard.a(emmc.o)
                0x000d32c8                CEMMCDevice::sd_versions
 .data          0x000d32e0        0x0 ..//addon/SDCard/libsdcard.a(mmchost.o)
 .data          0x000d32e0        0x0 ..//addon/SDCard/libsdcard.a(sdhost.o)
 .data          0x000d32e0        0x0 ..//lib/input/libinput.a(keyboardbehaviour.o)
 .data          0x000d32e0      0x10c ..//lib/input/libinput.a(keymap.o)
                0x000d32e0                CKeyMap::s_MapDirectory
                0x000d3300                CKeyMap::s_KeyStrings
 .data          0x000d33ec        0x0 ..//lib/input/libinput.a(mouse.o)
 .data          0x000d33ec        0x0 ..//lib/input/libinput.a(touchscreen.o)
 .data          0x000d33ec        0x0 ..//lib/input/libinput.a(mousebehaviour.o)
 .data          0x000d33ec        0x0 ..//lib/fs/libfs.a(partitionmanager.o)
 .data          0x000d33ec        0x0 ..//lib/fs/libfs.a(partition.o)
 .data          0x000d33ec        0x0 ..//lib/net/libnet.a(netsubsystem.o)
 .data          0x000d33ec        0x0 ..//lib/net/libnet.a(nettask.o)
 .data          0x000d33ec        0x0 ..//lib/net/libnet.a(socket.o)
 .data          0x000d33ec        0x0 ..//lib/net/libnet.a(transportlayer.o)
 .data          0x000d33ec        0x0 ..//lib/net/libnet.a(networklayer.o)
 .data          0x000d33ec        0x0 ..//lib/net/libnet.a(linklayer.o)
 .data          0x000d33ec        0x0 ..//lib/net/libnet.a(netdevlayer.o)
 .data          0x000d33ec        0x0 ..//lib/net/libnet.a(phytask.o)
 .data          0x000d33ec        0x0 ..//lib/net/libnet.a(arphandler.o)
 .data          0x000d33ec        0x0 ..//lib/net/libnet.a(icmphandler.o)
 .data          0x000d33ec        0x0 ..//lib/net/libnet.a(igmphandler.o)
 .data          0x000d33ec        0x0 ..//lib/net/libnet.a(routecache.o)
 .data          0x000d33ec        0x0 ..//lib/net/libnet.a(netconnection.o)
 .data          0x000d33ec        0x0 ..//lib/net/libnet.a(udpconnection.o)
 .data          0x000d33ec       0x2c ..//lib/net/libnet.a(tcpconnection.o)
                0x000d33ec                CTCPConnection::s_pStateName
 .data          0x000d3418        0x0 ..//lib/net/libnet.a(retransmissionqueue.o)
 .data          0x000d3418        0x0 ..//lib/net/libnet.a(retranstimeoutcalc.o)
 .data          0x000d3418        0x0 ..//lib/net/libnet.a(tcprejector.o)
 .data          0x000d3418        0x0 ..//lib/net/libnet.a(netconfig.o)
 .data          0x000d3418        0x0 ..//lib/net/libnet.a(ipaddress.o)
 .data          0x000d3418        0x0 ..//lib/net/libnet.a(netqueue.o)
 .data          0x000d3418        0x0 ..//lib/net/libnet.a(checksumcalculator.o)
 .data          0x000d3418       0x18 ..//lib/net/libnet.a(dhcpclient.o)
 .data          0x000d3430        0x0 ..//lib/net/libnet.a(mdnsdaemon.o)
 .data          0x000d3430        0x0 ..//lib/net/libnet.a(netsocket.o)
 .data          0x000d3430        0x2 ..//lib/net/libnet.a(dnsclient.o)
                0x000d3430                CDNSClient::s_nXID
 .data          0x000d3432        0x0 ..//lib/sched/libsched.a(task.o)
 .data          0x000d3432        0x0 ..//lib/sched/libsched.a(scheduler.o)
 .data          0x000d3432        0x0 ..//lib/sched/libsched.a(taskswitch.o)
 .data          0x000d3432        0x0 ..//lib/sched/libsched.a(synchronizationevent.o)
 .data          0x000d3432        0x0 ..//lib/libcircle.a(actled.o)
 .data          0x000d3432        0x0 ..//lib/libcircle.a(alloc.o)
 .data          0x000d3432        0x0 ..//lib/libcircle.a(assert.o)
 .data          0x000d3432        0x0 ..//lib/libcircle.a(display.o)
 .data          0x000d3432        0x0 ..//lib/libcircle.a(bcmframebuffer.o)
 .data          0x000d3432        0x0 ..//lib/libcircle.a(bcmpropertytags.o)
 .data          0x000d3432        0x0 ..//lib/libcircle.a(chargenerator.o)
 .data          0x000d3432        0x0 ..//lib/libcircle.a(classallocator.o)
 .data          0x000d3432        0x0 ..//lib/libcircle.a(debug.o)
 .data          0x000d3432        0x0 ..//lib/libcircle.a(device.o)
 .data          0x000d3432        0x0 ..//lib/libcircle.a(devicenameservice.o)
 .data          0x000d3432        0x0 ..//lib/libcircle.a(dmachannel.o)
 .data          0x000d3432        0x0 ..//lib/libcircle.a(koptions.o)
 .data          0x000d3432        0x0 ..//lib/libcircle.a(logger.o)
 .data          0x000d3432        0x0 ..//lib/libcircle.a(machineinfo.o)
 .data          0x000d3432        0x0 ..//lib/libcircle.a(nulldevice.o)
 .data          0x000d3432        0x0 ..//lib/libcircle.a(ptrarray.o)
 .data          0x000d3432        0x0 ..//lib/libcircle.a(ptrlist.o)
 .data          0x000d3432        0x0 ..//lib/libcircle.a(screen.o)
 .data          0x000d3432        0x0 ..//lib/libcircle.a(serial.o)
 .data          0x000d3432        0x0 ..//lib/libcircle.a(string.o)
 .data          0x000d3432        0x0 ..//lib/libcircle.a(sysinit.o)
 *fill*         0x000d3432        0x2 
 .data          0x000d3434       0x30 ..//lib/libcircle.a(timer.o)
                0x000d3434                CTimer::s_pMonthName
 .data          0x000d3464        0x0 ..//lib/libcircle.a(util.o)
 .data          0x000d3464        0x0 ..//lib/libcircle.a(util_fast.o)
 .data          0x000d3464        0x0 ..//lib/libcircle.a(virtualgpiopin.o)
 .data          0x000d3464        0x0 ..//lib/libcircle.a(chainboot.o)
 .data          0x000d3464        0x0 ..//lib/libcircle.a(macaddress.o)
 .data          0x000d3464       0x18 ..//lib/libcircle.a(netdevice.o)
                0x000d3464                CNetDevice::s_SpeedString
 .data          0x000d347c        0x0 ..//lib/libcircle.a(new.o)
 *fill*         0x000d347c        0x4 
 .data          0x000d3480       0x1c ..//lib/libcircle.a(heapallocator.o)
                0x000d3480                CHeapAllocator::s_nBucketSize
 .data          0x000d349c        0x0 ..//lib/libcircle.a(pageallocator.o)
 .data          0x000d349c        0x0 ..//lib/libcircle.a(setjmp.o)
 .data          0x000d349c        0x0 ..//lib/libcircle.a(numberpool.o)
 .data          0x000d349c        0x0 ..//lib/libcircle.a(ptrlistfiq.o)
 .data          0x000d349c        0x0 ..//lib/libcircle.a(font8x16.o)
 .data          0x000d349c       0x14 ..//lib/libcircle.a(exceptionhandler.o)
                0x000d349c                CExceptionHandler::s_pExceptionName
 .data          0x000d34b0       0x10 ..//lib/libcircle.a(exceptionstub.o)
                0x000d34b0                FIQData
                0x000d34bc                IRQReturnAddress
 .data          0x000d34c0        0x0 ..//lib/libcircle.a(memory.o)
 .data          0x000d34c0        0x0 ..//lib/libcircle.a(pagetable.o)
 .data          0x000d34c0        0x0 ..//lib/libcircle.a(startup.o)
 .data          0x000d34c0        0x0 ..//lib/libcircle.a(synchronize.o)
 .data          0x000d34c0        0x0 ..//lib/libcircle.a(bcmrandom.o)
 .data          0x000d34c0        0x0 ..//lib/libcircle.a(interrupt.o)
 .data          0x000d34c0        0x0 ..//lib/libcircle.a(gpiopin.o)
 .data          0x000d34c0        0x0 ..//lib/libcircle.a(usertimer.o)
 .data          0x000d34c0        0x0 ..//lib/libcircle.a(cxa_guard.o)
 .data          0x000d34c0        0x0 ..//lib/libcircle.a(bcmmailbox.o)
 .data          0x000d34c0        0x0 ..//lib/libcircle.a(delayloop.o)
 .data          0x000d34c0        0x0 ..//lib/libcircle.a(terminal.o)
 .data          0x000d34c0        0x0 ..//lib/libcircle.a(gpiomanager.o)
 .data          0x000d34c0        0x0 /Applications/ArmGNUToolchain/14.2.rel1/arm-none-eabi/bin/../lib/gcc/arm-none-eabi/14.2.1/arm/v5te/hard/libgcc.a(_udivsi3.o)
 .data          0x000d34c0        0x0 /Applications/ArmGNUToolchain/14.2.rel1/arm-none-eabi/bin/../lib/gcc/arm-none-eabi/14.2.1/arm/v5te/hard/libgcc.a(_divsi3.o)
 .data          0x000d34c0        0x0 /Applications/ArmGNUToolchain/14.2.rel1/arm-none-eabi/bin/../lib/gcc/arm-none-eabi/14.2.1/arm/v5te/hard/libgcc.a(_dvmd_tls.o)
 .data          0x000d34c0        0x0 /Applications/ArmGNUToolchain/14.2.rel1/arm-none-eabi/bin/../lib/gcc/arm-none-eabi/14.2.1/arm/v5te/hard/libgcc.a(_aeabi_uldivmod.o)
 .data          0x000d34c0        0x0 /Applications/ArmGNUToolchain/14.2.rel1/arm-none-eabi/bin/../lib/gcc/arm-none-eabi/14.2.1/arm/v5te/hard/libgcc.a(_udivmoddi4.o)

.igot.plt       0x000d34c0        0x0
 .igot.plt      0x000d34c0        0x0 ..//VT100/build/main.o

.bss            0x000d34c0     0x4b14
                0x000d34c0                        __bss_start = .
 *(.bss*)
 .bss           0x000d34c0        0x0 ..//VT100/build/main.o
 .bss           0x000d34c0       0x20 ..//VT100/build/kernel.o
 .bss           0x000d34e0        0x4 ..//VT100/build/hal.o
 .bss           0x000d34e4        0x4 ..//VT100/build/TFontConverter.o
 .bss           0x000d34e8     0x3e20 ..//VT100/build/VT100_FontConverter.o
 .bss           0x000d7308       0x20 ..//VT100/build/TRenderer.o
 .bss           0x000d7328        0x9 ..//VT100/build/TConfig.o
 *fill*         0x000d7331        0x3 
 .bss           0x000d7334        0x4 ..//VT100/build/TKeyboard.o
 .bss           0x000d7338        0x8 ..//VT100/build/TUART.o
                0x000d733c                CTUART::g_ReceiveHandler
 .bss           0x000d7340        0x4 ..//VT100/build/TFileLog.o
                0x000d7340                CTFileLog::s_pInstance
 .bss           0x000d7344        0x4 ..//VT100/build/TWlanLog.o
                0x000d7344                CTWlanLog::s_pInstance
 .bss           0x000d7348        0x8 ..//VT100/build/TSetup.o
 .bss           0x000d7350        0x0 ..//VT100/build/VTTest.o
 .bss           0x000d7350        0x0 ..//addon/wlan/hostap/wpa_supplicant/libwpa_supplicant.a(wpasupplicant.o)
 .bss           0x000d7350       0x18 ..//addon/wlan/hostap/wpa_supplicant/libwpa_supplicant.a(eloop_circle.o)
 .bss           0x000d7368        0x8 ..//addon/wlan/hostap/wpa_supplicant/libwpa_supplicant.a(os_circle.o)
 .bss           0x000d7370        0x4 ..//addon/wlan/hostap/wpa_supplicant/libwpa_supplicant.a(main_circle.o)
 .bss           0x000d7374        0x4 ..//addon/wlan/hostap/wpa_supplicant/libwpa_supplicant.a(wpa_supplicant.o)
 .bss           0x000d7378        0x0 ..//addon/wlan/hostap/wpa_supplicant/libwpa_supplicant.a(wpas_glue.o)
 .bss           0x000d7378        0x0 ..//addon/wlan/hostap/wpa_supplicant/libwpa_supplicant.a(hw_features_common.o)
 .bss           0x000d7378        0x0 ..//addon/wlan/hostap/wpa_supplicant/libwpa_supplicant.a(ieee802_11_common.o)
 .bss           0x000d7378        0x0 ..//addon/wlan/hostap/wpa_supplicant/libwpa_supplicant.a(ptksa_cache.o)
 .bss           0x000d7378        0x0 ..//addon/wlan/hostap/wpa_supplicant/libwpa_supplicant.a(wpa_common.o)
 .bss           0x000d7378        0x0 ..//addon/wlan/hostap/wpa_supplicant/libwpa_supplicant.a(aes-omac1.o)
 .bss           0x000d7378        0x0 ..//addon/wlan/hostap/wpa_supplicant/libwpa_supplicant.a(md5.o)
 .bss           0x000d7378        0x0 ..//addon/wlan/hostap/wpa_supplicant/libwpa_supplicant.a(sha1-pbkdf2.o)
 .bss           0x000d7378        0x0 ..//addon/wlan/hostap/wpa_supplicant/libwpa_supplicant.a(sha1-prf.o)
 .bss           0x000d7378        0x0 ..//addon/wlan/hostap/wpa_supplicant/libwpa_supplicant.a(sha1.o)
 .bss           0x000d7378        0x0 ..//addon/wlan/hostap/wpa_supplicant/libwpa_supplicant.a(sha256-prf.o)
 .bss           0x000d7378        0x0 ..//addon/wlan/hostap/wpa_supplicant/libwpa_supplicant.a(sha256.o)
 .bss           0x000d7378        0x0 ..//addon/wlan/hostap/wpa_supplicant/libwpa_supplicant.a(driver_common.o)
 .bss           0x000d7378        0x0 ..//addon/wlan/hostap/wpa_supplicant/libwpa_supplicant.a(drivers.o)
 .bss           0x000d7378        0x4 ..//addon/wlan/hostap/wpa_supplicant/libwpa_supplicant.a(eap_methods.o)
 .bss           0x000d737c        0x0 ..//addon/wlan/hostap/wpa_supplicant/libwpa_supplicant.a(eapol_supp_sm.o)
 .bss           0x000d737c        0x4 ..//addon/wlan/hostap/wpa_supplicant/libwpa_supplicant.a(l2_packet_circle.o)
 .bss           0x000d7380        0x0 ..//addon/wlan/hostap/wpa_supplicant/libwpa_supplicant.a(pmksa_cache.o)
 .bss           0x000d7380        0x0 ..//addon/wlan/hostap/wpa_supplicant/libwpa_supplicant.a(preauth.o)
 .bss           0x000d7380        0x0 ..//addon/wlan/hostap/wpa_supplicant/libwpa_supplicant.a(wpa.o)
 .bss           0x000d7380        0x0 ..//addon/wlan/hostap/wpa_supplicant/libwpa_supplicant.a(wpa_ie.o)
 .bss           0x000d7380       0x81 ..//addon/wlan/hostap/wpa_supplicant/libwpa_supplicant.a(common.o)
 *fill*         0x000d7401        0x3 
 .bss           0x000d7404        0xc ..//addon/wlan/hostap/wpa_supplicant/libwpa_supplicant.a(wpa_debug_circle.o)
                0x000d7404                wpa_debug_show_keys
                0x000d7408                wpa_debug_syslog
                0x000d740c                wpa_debug_timestamp
 .bss           0x000d7410        0x0 ..//addon/wlan/hostap/wpa_supplicant/libwpa_supplicant.a(wpabuf.o)
 .bss           0x000d7410        0x0 ..//addon/wlan/hostap/wpa_supplicant/libwpa_supplicant.a(bss.o)
 .bss           0x000d7410        0x0 ..//addon/wlan/hostap/wpa_supplicant/libwpa_supplicant.a(bssid_ignore.o)
 .bss           0x000d7410        0x0 ..//addon/wlan/hostap/wpa_supplicant/libwpa_supplicant.a(config.o)
 .bss           0x000d7410        0x8 ..//addon/wlan/hostap/wpa_supplicant/libwpa_supplicant.a(config_file.o)
 .bss           0x000d7418        0x0 ..//addon/wlan/hostap/wpa_supplicant/libwpa_supplicant.a(eap_register.o)
 .bss           0x000d7418        0x0 ..//addon/wlan/hostap/wpa_supplicant/libwpa_supplicant.a(events.o)
 .bss           0x000d7418        0x0 ..//addon/wlan/hostap/wpa_supplicant/libwpa_supplicant.a(notify.o)
 .bss           0x000d7418        0x0 ..//addon/wlan/hostap/wpa_supplicant/libwpa_supplicant.a(op_classes.o)
 .bss           0x000d7418        0x0 ..//addon/wlan/hostap/wpa_supplicant/libwpa_supplicant.a(rrm.o)
 .bss           0x000d7418        0x0 ..//addon/wlan/hostap/wpa_supplicant/libwpa_supplicant.a(scan.o)
 .bss           0x000d7418        0x0 ..//addon/wlan/hostap/wpa_supplicant/libwpa_supplicant.a(aes-internal-enc.o)
 .bss           0x000d7418        0x0 ..//addon/wlan/hostap/wpa_supplicant/libwpa_supplicant.a(aes-unwrap.o)
 .bss           0x000d7418        0x0 ..//addon/wlan/hostap/wpa_supplicant/libwpa_supplicant.a(md5-internal.o)
 .bss           0x000d7418        0x0 ..//addon/wlan/hostap/wpa_supplicant/libwpa_supplicant.a(rc4.o)
 .bss           0x000d7418        0x0 ..//addon/wlan/hostap/wpa_supplicant/libwpa_supplicant.a(sha1-internal.o)
 .bss           0x000d7418        0x0 ..//addon/wlan/hostap/wpa_supplicant/libwpa_supplicant.a(sha256-internal.o)
 .bss           0x000d7418        0x0 ..//addon/wlan/hostap/wpa_supplicant/libwpa_supplicant.a(driver_circle.o)
 .bss           0x000d7418        0x0 ..//addon/wlan/hostap/wpa_supplicant/libwpa_supplicant.a(eap.o)
 .bss           0x000d7418        0x0 ..//addon/wlan/hostap/wpa_supplicant/libwpa_supplicant.a(base64.o)
 .bss           0x000d7418        0x0 ..//addon/wlan/hostap/wpa_supplicant/libwpa_supplicant.a(bitfield.o)
 .bss           0x000d7418        0x0 ..//addon/wlan/hostap/wpa_supplicant/libwpa_supplicant.a(config.o)
 .bss           0x000d7418        0x0 ..//addon/wlan/hostap/wpa_supplicant/libwpa_supplicant.a(aes-internal.o)
 .bss           0x000d7418        0x0 ..//addon/wlan/hostap/wpa_supplicant/libwpa_supplicant.a(aes-internal-dec.o)
 .bss           0x000d7418        0x0 ..//addon/wlan/hostap/wpa_supplicant/libwpa_supplicant.a(tls_none.o)
 .bss           0x000d7418        0x0 ..//addon/wlan/hostap/wpa_supplicant/libwpa_supplicant.a(eap_common.o)
 .bss           0x000d7418       0x44 ..//addon/wlan/libwlan.a(bcm4343.o)
                0x000d7454                CBcm4343Device::s_pThis
 .bss           0x000d745c       0x14 ..//addon/wlan/libwlan.a(ether4330.o)
 .bss           0x000d7470       0x10 ..//addon/wlan/libwlan.a(emmc.o)
 .bss           0x000d7480        0xc ..//addon/wlan/libwlan.a(p9arch.o)
 .bss           0x000d748c        0x4 ..//addon/wlan/libwlan.a(p9chan.o)
 .bss           0x000d7490        0x0 ..//addon/wlan/libwlan.a(p9cmd.o)
 .bss           0x000d7490        0x0 ..//addon/wlan/libwlan.a(p9error.o)
 .bss           0x000d7490        0x0 ..//addon/wlan/libwlan.a(p9ether.o)
 .bss           0x000d7490      0x91c ..//addon/wlan/libwlan.a(p9proc.o)
 .bss           0x000d7dac        0x0 ..//addon/wlan/libwlan.a(p9util.o)
 *fill*         0x000d7dac        0x4 
 .bss           0x000d7db0       0x10 ..//lib/usb/libusb.a(usbkeyboard.o)
                0x000d7db0                CUSBKeyboardDevice::s_DeviceNumberPool
 .bss           0x000d7dc0        0x0 ..//lib/usb/libusb.a(dwhcidevice.o)
 .bss           0x000d7dc0        0x4 ..//lib/usb/libusb.a(dwhciframeschednper.o)
                0x000d7dc0                CDWHCIFrameSchedulerNonPeriodic::s_pAllocator
 .bss           0x000d7dc4        0x4 ..//lib/usb/libusb.a(dwhciframeschednsplit.o)
                0x000d7dc4                CDWHCIFrameSchedulerNoSplit::s_pAllocator
 .bss           0x000d7dc8        0x4 ..//lib/usb/libusb.a(dwhciframeschedper.o)
                0x000d7dc8                CDWHCIFrameSchedulerPeriodic::s_pAllocator
 .bss           0x000d7dcc        0x0 ..//lib/usb/libusb.a(dwhcirootport.o)
 .bss           0x000d7dcc        0x4 ..//lib/usb/libusb.a(dwhcixactqueue.o)
                0x000d7dcc                TQueueEntry::s_pAllocator
 .bss           0x000d7dd0        0x4 ..//lib/usb/libusb.a(dwhcixferstagedata.o)
                0x000d7dd0                CDWHCITransferStageData::s_pAllocator
 .bss           0x000d7dd4        0x4 ..//lib/usb/libusb.a(dwhciframeschediso.o)
                0x000d7dd4                CDWHCIFrameSchedulerIsochronous::s_pAllocator
 .bss           0x000d7dd8       0x10 ..//lib/usb/libusb.a(usbdevice.o)
                0x000d7dd8                CUSBDevice::s_DeviceAddressPool
 .bss           0x000d7de8        0x0 ..//lib/usb/libusb.a(usbdevicefactory.o)
 .bss           0x000d7de8        0x0 ..//lib/usb/libusb.a(usbendpoint.o)
 .bss           0x000d7de8        0x0 ..//lib/usb/libusb.a(usbfunction.o)
 .bss           0x000d7de8        0x0 ..//lib/usb/libusb.a(usbgamepadps3.o)
 .bss           0x000d7de8        0x0 ..//lib/usb/libusb.a(usbgamepadps4.o)
 .bss           0x000d7de8        0x0 ..//lib/usb/libusb.a(usbgamepadstandard.o)
 .bss           0x000d7de8        0x0 ..//lib/usb/libusb.a(usbgamepadswitchpro.o)
 .bss           0x000d7de8        0x0 ..//lib/usb/libusb.a(usbgamepadxbox360.o)
 .bss           0x000d7de8        0x0 ..//lib/usb/libusb.a(usbgamepadxboxone.o)
 .bss           0x000d7de8        0x0 ..//lib/usb/libusb.a(usbhiddevice.o)
 .bss           0x000d7de8        0x4 ..//lib/usb/libusb.a(usbhostcontroller.o)
                0x000d7de8                CUSBHostController::s_pThis
 *fill*         0x000d7dec        0x4 
 .bss           0x000d7df0       0x10 ..//lib/usb/libusb.a(usbmassdevice.o)
                0x000d7df0                CUSBBulkOnlyMassStorageDevice::s_DeviceNumberPool
 .bss           0x000d7e00        0x0 ..//lib/usb/libusb.a(usbmidihost.o)
 .bss           0x000d7e00        0x0 ..//lib/usb/libusb.a(usbmouse.o)
 .bss           0x000d7e00       0x10 ..//lib/usb/libusb.a(usbprinter.o)
                0x000d7e00                CUSBPrinterDevice::s_DeviceNumberPool
 .bss           0x000d7e10        0x4 ..//lib/usb/libusb.a(usbrequest.o)
                0x000d7e10                CUSBRequest::s_pAllocator
 *fill*         0x000d7e14        0x4 
 .bss           0x000d7e18       0x10 ..//lib/usb/libusb.a(usbstandardhub.o)
                0x000d7e18                CUSBStandardHub::s_DeviceNumberPool
 .bss           0x000d7e28        0x0 ..//lib/usb/libusb.a(usbstring.o)
 .bss           0x000d7e28        0x0 ..//lib/usb/libusb.a(usbserialch341.o)
 .bss           0x000d7e28        0x0 ..//lib/usb/libusb.a(usbserialcp210x.o)
 .bss           0x000d7e28        0x0 ..//lib/usb/libusb.a(usbserialpl2303.o)
 .bss           0x000d7e28        0x0 ..//lib/usb/libusb.a(usbserialft231x.o)
 .bss           0x000d7e28        0x0 ..//lib/usb/libusb.a(usbserialcdc.o)
 .bss           0x000d7e28        0x0 ..//lib/usb/libusb.a(usbtouchscreen.o)
 .bss           0x000d7e28        0x0 ..//lib/usb/libusb.a(dwhciregister.o)
 .bss           0x000d7e28        0x0 ..//lib/usb/libusb.a(lan7800.o)
 .bss           0x000d7e28        0x0 ..//lib/usb/libusb.a(smsc951x.o)
 .bss           0x000d7e28       0x10 ..//lib/usb/libusb.a(usbbluetooth.o)
                0x000d7e28                CUSBBluetoothDevice::s_DeviceNumberPool
 .bss           0x000d7e38        0x0 ..//lib/usb/libusb.a(usbcdcethernet.o)
 .bss           0x000d7e38       0x10 ..//lib/usb/libusb.a(usbfloppydevice.o)
                0x000d7e38                CUSBFloppyDiskDevice::s_DeviceNumberPool
 .bss           0x000d7e48        0x0 ..//lib/usb/libusb.a(usbconfigparser.o)
 .bss           0x000d7e48       0x10 ..//lib/usb/libusb.a(usbgamepad.o)
                0x000d7e48                CUSBGamePadDevice::s_DeviceNumberPool
 .bss           0x000d7e58       0x10 ..//lib/usb/libusb.a(usbmidi.o)
                0x000d7e58                CUSBMIDIDevice::s_DeviceNumberPool
 .bss           0x000d7e68        0x0 ..//lib/usb/libusb.a(usbserialhost.o)
 .bss           0x000d7e68       0x10 ..//lib/usb/libusb.a(usbserial.o)
                0x000d7e68                CUSBSerialDevice::s_DeviceNumberPool
 .bss           0x000d7e78       0x1a ..//addon/fatfs/libfatfs.a(ff.o)
 *fill*         0x000d7e92        0x2 
 .bss           0x000d7e94       0x1c ..//addon/fatfs/libfatfs.a(diskio.o)
 .bss           0x000d7eb0       0x18 ..//addon/fatfs/libfatfs.a(ffsystem.o)
 .bss           0x000d7ec8        0x0 ..//addon/fatfs/libfatfs.a(ffunicode.o)
 .bss           0x000d7ec8        0x0 ..//addon/SDCard/libsdcard.a(emmc.o)
 .bss           0x000d7ec8        0x0 ..//addon/SDCard/libsdcard.a(mmchost.o)
 .bss           0x000d7ec8        0x0 ..//addon/SDCard/libsdcard.a(sdhost.o)
 .bss           0x000d7ec8        0x0 ..//lib/input/libinput.a(keyboardbehaviour.o)
 .bss           0x000d7ec8        0x0 ..//lib/input/libinput.a(keymap.o)
 .bss           0x000d7ec8       0x10 ..//lib/input/libinput.a(mouse.o)
                0x000d7ec8                CMouseDevice::s_DeviceNumberPool
 .bss           0x000d7ed8       0x10 ..//lib/input/libinput.a(touchscreen.o)
                0x000d7ed8                CTouchScreenDevice::s_DeviceNumberPool
 .bss           0x000d7ee8        0x0 ..//lib/input/libinput.a(mousebehaviour.o)
 .bss           0x000d7ee8        0x0 ..//lib/fs/libfs.a(partitionmanager.o)
 .bss           0x000d7ee8        0x0 ..//lib/fs/libfs.a(partition.o)
 .bss           0x000d7ee8        0x4 ..//lib/net/libnet.a(netsubsystem.o)
                0x000d7ee8                CNetSubSystem::s_pThis
 .bss           0x000d7eec        0x0 ..//lib/net/libnet.a(nettask.o)
 .bss           0x000d7eec        0x0 ..//lib/net/libnet.a(socket.o)
 .bss           0x000d7eec        0x0 ..//lib/net/libnet.a(transportlayer.o)
 .bss           0x000d7eec        0x0 ..//lib/net/libnet.a(networklayer.o)
 .bss           0x000d7eec        0x0 ..//lib/net/libnet.a(linklayer.o)
 .bss           0x000d7eec        0x0 ..//lib/net/libnet.a(netdevlayer.o)
 .bss           0x000d7eec        0x0 ..//lib/net/libnet.a(phytask.o)
 .bss           0x000d7eec        0x0 ..//lib/net/libnet.a(arphandler.o)
 .bss           0x000d7eec        0x0 ..//lib/net/libnet.a(icmphandler.o)
 .bss           0x000d7eec        0x0 ..//lib/net/libnet.a(igmphandler.o)
 .bss           0x000d7eec        0x0 ..//lib/net/libnet.a(routecache.o)
 .bss           0x000d7eec        0x0 ..//lib/net/libnet.a(netconnection.o)
 .bss           0x000d7eec        0x0 ..//lib/net/libnet.a(udpconnection.o)
 .bss           0x000d7eec        0x4 ..//lib/net/libnet.a(tcpconnection.o)
                0x000d7eec                CTCPConnection::s_nConnections
 .bss           0x000d7ef0        0x0 ..//lib/net/libnet.a(retransmissionqueue.o)
 .bss           0x000d7ef0        0x0 ..//lib/net/libnet.a(retranstimeoutcalc.o)
 .bss           0x000d7ef0        0x0 ..//lib/net/libnet.a(tcprejector.o)
 .bss           0x000d7ef0        0x0 ..//lib/net/libnet.a(netconfig.o)
 .bss           0x000d7ef0        0x0 ..//lib/net/libnet.a(ipaddress.o)
 .bss           0x000d7ef0        0x0 ..//lib/net/libnet.a(netqueue.o)
 .bss           0x000d7ef0        0x0 ..//lib/net/libnet.a(checksumcalculator.o)
 .bss           0x000d7ef0        0x0 ..//lib/net/libnet.a(dhcpclient.o)
 .bss           0x000d7ef0        0x4 ..//lib/net/libnet.a(mdnsdaemon.o)
                0x000d7ef0                CmDNSDaemon::s_pThis
 .bss           0x000d7ef4        0x0 ..//lib/net/libnet.a(netsocket.o)
 .bss           0x000d7ef4        0x0 ..//lib/net/libnet.a(dnsclient.o)
 .bss           0x000d7ef4        0x0 ..//lib/sched/libsched.a(task.o)
 .bss           0x000d7ef4        0x4 ..//lib/sched/libsched.a(scheduler.o)
                0x000d7ef4                CScheduler::s_pThis
 .bss           0x000d7ef8        0x0 ..//lib/sched/libsched.a(taskswitch.o)
 .bss           0x000d7ef8        0x0 ..//lib/sched/libsched.a(synchronizationevent.o)
 .bss           0x000d7ef8        0x4 ..//lib/libcircle.a(actled.o)
                0x000d7ef8                CActLED::s_pThis
 .bss           0x000d7efc        0x0 ..//lib/libcircle.a(alloc.o)
 .bss           0x000d7efc        0x0 ..//lib/libcircle.a(assert.o)
 .bss           0x000d7efc        0x0 ..//lib/libcircle.a(display.o)
 .bss           0x000d7efc        0x0 ..//lib/libcircle.a(bcmframebuffer.o)
 .bss           0x000d7efc        0x0 ..//lib/libcircle.a(bcmpropertytags.o)
 .bss           0x000d7efc        0x0 ..//lib/libcircle.a(chargenerator.o)
 .bss           0x000d7efc        0x0 ..//lib/libcircle.a(classallocator.o)
 .bss           0x000d7efc        0x0 ..//lib/libcircle.a(debug.o)
 .bss           0x000d7efc        0x0 ..//lib/libcircle.a(device.o)
 .bss           0x000d7efc        0x4 ..//lib/libcircle.a(devicenameservice.o)
                0x000d7efc                CDeviceNameService::s_This
 .bss           0x000d7f00        0x0 ..//lib/libcircle.a(dmachannel.o)
 .bss           0x000d7f00        0x4 ..//lib/libcircle.a(koptions.o)
                0x000d7f00                CKernelOptions::s_pThis
 .bss           0x000d7f04        0x4 ..//lib/libcircle.a(logger.o)
                0x000d7f04                CLogger::s_pThis
 .bss           0x000d7f08        0x4 ..//lib/libcircle.a(machineinfo.o)
                0x000d7f08                CMachineInfo::s_pThis
 .bss           0x000d7f0c        0x0 ..//lib/libcircle.a(nulldevice.o)
 .bss           0x000d7f0c        0x0 ..//lib/libcircle.a(ptrarray.o)
 .bss           0x000d7f0c        0x0 ..//lib/libcircle.a(ptrlist.o)
 .bss           0x000d7f0c        0x0 ..//lib/libcircle.a(screen.o)
 .bss           0x000d7f0c       0x14 ..//lib/libcircle.a(serial.o)
                0x000d7f0c                CSerialDevice::s_pThis
                0x000d7f10                CSerialDevice::s_nInterruptUseCount
                0x000d7f14                CSerialDevice::s_pInterruptSystem
                0x000d7f18                CSerialDevice::s_bUseFIQ
                0x000d7f1c                CSerialDevice::s_nInterruptDeviceMask
 .bss           0x000d7f20        0x0 ..//lib/libcircle.a(string.o)
 .bss           0x000d7f20       0x14 ..//lib/libcircle.a(sysinit.o)
                0x000d7f24                circle_version_string
                0x000d7f30                __dso_handle
 .bss           0x000d7f34        0x4 ..//lib/libcircle.a(timer.o)
                0x000d7f34                CTimer::s_pThis
 .bss           0x000d7f38        0x0 ..//lib/libcircle.a(util.o)
 .bss           0x000d7f38        0x0 ..//lib/libcircle.a(util_fast.o)
 .bss           0x000d7f38        0x8 ..//lib/libcircle.a(virtualgpiopin.o)
                0x000d7f38                CVirtualGPIOPin::s_nGPIOBaseAddress
                0x000d7f3c                CVirtualGPIOPin::s_SpinLock
 .bss           0x000d7f40        0x8 ..//lib/libcircle.a(chainboot.o)
 .bss           0x000d7f48        0x0 ..//lib/libcircle.a(macaddress.o)
 .bss           0x000d7f48       0x18 ..//lib/libcircle.a(netdevice.o)
                0x000d7f48                CNetDevice::s_nDeviceNumber
                0x000d7f4c                CNetDevice::s_pDevice
 .bss           0x000d7f60        0x0 ..//lib/libcircle.a(new.o)
 .bss           0x000d7f60        0x0 ..//lib/libcircle.a(heapallocator.o)
 .bss           0x000d7f60        0x0 ..//lib/libcircle.a(pageallocator.o)
 .bss           0x000d7f60        0x0 ..//lib/libcircle.a(setjmp.o)
 .bss           0x000d7f60        0x0 ..//lib/libcircle.a(numberpool.o)
 .bss           0x000d7f60        0x4 ..//lib/libcircle.a(ptrlistfiq.o)
                0x000d7f60                TPtrListElement::s_pAllocator
 .bss           0x000d7f64        0x0 ..//lib/libcircle.a(font8x16.o)
 .bss           0x000d7f64        0x4 ..//lib/libcircle.a(exceptionhandler.o)
                0x000d7f64                CExceptionHandler::s_pThis
 .bss           0x000d7f68        0x0 ..//lib/libcircle.a(exceptionstub.o)
 .bss           0x000d7f68        0x4 ..//lib/libcircle.a(memory.o)
                0x000d7f68                CMemorySystem::s_pThis
 .bss           0x000d7f6c        0x0 ..//lib/libcircle.a(pagetable.o)
 .bss           0x000d7f6c        0x0 ..//lib/libcircle.a(startup.o)
 .bss           0x000d7f6c       0x54 ..//lib/libcircle.a(synchronize.o)
 .bss           0x000d7fc0        0x5 ..//lib/libcircle.a(bcmrandom.o)
                0x000d7fc0                CBcmRandomNumberGenerator::s_SpinLock
                0x000d7fc4                CBcmRandomNumberGenerator::s_bInitialized
 *fill*         0x000d7fc5        0x3 
 .bss           0x000d7fc8        0x4 ..//lib/libcircle.a(interrupt.o)
                0x000d7fc8                CInterruptSystem::s_pThis
 .bss           0x000d7fcc        0x4 ..//lib/libcircle.a(gpiopin.o)
                0x000d7fcc                CGPIOPin::s_SpinLock
 .bss           0x000d7fd0        0x0 ..//lib/libcircle.a(usertimer.o)
 .bss           0x000d7fd0        0x0 ..//lib/libcircle.a(cxa_guard.o)
 .bss           0x000d7fd0        0x4 ..//lib/libcircle.a(bcmmailbox.o)
                0x000d7fd0                CBcmMailBox::s_SpinLock
 .bss           0x000d7fd4        0x0 ..//lib/libcircle.a(delayloop.o)
 .bss           0x000d7fd4        0x0 ..//lib/libcircle.a(terminal.o)
 .bss           0x000d7fd4        0x0 ..//lib/libcircle.a(gpiomanager.o)
 .bss           0x000d7fd4        0x0 /Applications/ArmGNUToolchain/14.2.rel1/arm-none-eabi/bin/../lib/gcc/arm-none-eabi/14.2.1/arm/v5te/hard/libgcc.a(_udivsi3.o)
 .bss           0x000d7fd4        0x0 /Applications/ArmGNUToolchain/14.2.rel1/arm-none-eabi/bin/../lib/gcc/arm-none-eabi/14.2.1/arm/v5te/hard/libgcc.a(_divsi3.o)
 .bss           0x000d7fd4        0x0 /Applications/ArmGNUToolchain/14.2.rel1/arm-none-eabi/bin/../lib/gcc/arm-none-eabi/14.2.1/arm/v5te/hard/libgcc.a(_dvmd_tls.o)
 .bss           0x000d7fd4        0x0 /Applications/ArmGNUToolchain/14.2.rel1/arm-none-eabi/bin/../lib/gcc/arm-none-eabi/14.2.1/arm/v5te/hard/libgcc.a(_aeabi_uldivmod.o)
 .bss           0x000d7fd4        0x0 /Applications/ArmGNUToolchain/14.2.rel1/arm-none-eabi/bin/../lib/gcc/arm-none-eabi/14.2.1/arm/v5te/hard/libgcc.a(_udivmoddi4.o)
 *(COMMON)
                0x000d7fd4                        _end = .
LOAD ..//VT100/build/main.o
LOAD ..//VT100/build/kernel.o
LOAD ..//VT100/build/hal.o
LOAD ..//VT100/build/TFontConverter.o
LOAD ..//VT100/build/VT100_FontConverter.o
LOAD ..//VT100/build/TRenderer.o
LOAD ..//VT100/build/TConfig.o
LOAD ..//VT100/build/TKeyboard.o
LOAD ..//VT100/build/TUART.o
LOAD ..//VT100/build/TFileLog.o
LOAD ..//VT100/build/TWlanLog.o
LOAD ..//VT100/build/TSetup.o
LOAD ..//VT100/build/VTTest.o
START GROUP
LOAD ..//addon/wlan/hostap/wpa_supplicant/libwpa_supplicant.a
LOAD ..//addon/wlan/libwlan.a
LOAD ..//lib/usb/libusb.a
LOAD ..//addon/fatfs/libfatfs.a
LOAD ..//addon/SDCard/libsdcard.a
LOAD ..//lib/input/libinput.a
LOAD ..//lib/fs/libfs.a
LOAD ..//lib/net/libnet.a
LOAD ..//lib/sched/libsched.a
LOAD ..//lib/libcircle.a
LOAD /Applications/ArmGNUToolchain/14.2.rel1/arm-none-eabi/bin/../lib/gcc/arm-none-eabi/14.2.1/arm/v5te/hard/libgcc.a
LOAD /Applications/ArmGNUToolchain/14.2.rel1/arm-none-eabi/bin/../lib/gcc/arm-none-eabi/14.2.1/../../../../arm-none-eabi/lib/arm/v5te/hard/libm.a
END GROUP
OUTPUT(..//VT100/build/kernel.elf elf32-littlearm)
LOAD linker stubs

.debug_info     0x00000000   0x23d0cf
 .debug_info    0x00000000     0x4763 ..//VT100/build/main.o
 .debug_info    0x00004763     0x88f2 ..//VT100/build/kernel.o
 .debug_info    0x0000d055     0x1fa3 ..//VT100/build/hal.o
 .debug_info    0x0000eff8     0x174c ..//VT100/build/TFontConverter.o
 .debug_info    0x00010744      0xe0c ..//VT100/build/VT100_FontConverter.o
 .debug_info    0x00011550     0xadc2 ..//VT100/build/TRenderer.o
 .debug_info    0x0001c312     0x6eb8 ..//VT100/build/TConfig.o
 .debug_info    0x000231ca     0x33ff ..//VT100/build/TKeyboard.o
 .debug_info    0x000265c9     0x2272 ..//VT100/build/TUART.o
 .debug_info    0x0002883b     0x21e7 ..//VT100/build/TFileLog.o
 .debug_info    0x0002aa22     0x8975 ..//VT100/build/TWlanLog.o
 .debug_info    0x00033397     0xac05 ..//VT100/build/TSetup.o
 .debug_info    0x0003df9c     0x4947 ..//VT100/build/VTTest.o
 .debug_info    0x000428e3      0xbf2 ..//addon/wlan/hostap/wpa_supplicant/libwpa_supplicant.a(wpasupplicant.o)
 .debug_info    0x000434d5      0xa90 ..//addon/wlan/hostap/wpa_supplicant/libwpa_supplicant.a(eloop_circle.o)
 .debug_info    0x00043f65     0x2302 ..//addon/wlan/hostap/wpa_supplicant/libwpa_supplicant.a(os_circle.o)
 .debug_info    0x00046267     0x6e45 ..//addon/wlan/hostap/wpa_supplicant/libwpa_supplicant.a(main_circle.o)
 .debug_info    0x0004d0ac    0x19b5a ..//addon/wlan/hostap/wpa_supplicant/libwpa_supplicant.a(wpa_supplicant.o)
 .debug_info    0x00066c06     0xc3ee ..//addon/wlan/hostap/wpa_supplicant/libwpa_supplicant.a(wpas_glue.o)
 .debug_info    0x00072ff4     0x29a9 ..//addon/wlan/hostap/wpa_supplicant/libwpa_supplicant.a(hw_features_common.o)
 .debug_info    0x0007599d     0x4cc9 ..//addon/wlan/hostap/wpa_supplicant/libwpa_supplicant.a(ieee802_11_common.o)
 .debug_info    0x0007a666      0x475 ..//addon/wlan/hostap/wpa_supplicant/libwpa_supplicant.a(ptksa_cache.o)
 .debug_info    0x0007aadb     0x3508 ..//addon/wlan/hostap/wpa_supplicant/libwpa_supplicant.a(wpa_common.o)
 .debug_info    0x0007dfe3      0x63a ..//addon/wlan/hostap/wpa_supplicant/libwpa_supplicant.a(aes-omac1.o)
 .debug_info    0x0007e61d      0x3e6 ..//addon/wlan/hostap/wpa_supplicant/libwpa_supplicant.a(md5.o)
 .debug_info    0x0007ea03      0x4e0 ..//addon/wlan/hostap/wpa_supplicant/libwpa_supplicant.a(sha1-pbkdf2.o)
 .debug_info    0x0007eee3      0x324 ..//addon/wlan/hostap/wpa_supplicant/libwpa_supplicant.a(sha1-prf.o)
 .debug_info    0x0007f207      0x3f4 ..//addon/wlan/hostap/wpa_supplicant/libwpa_supplicant.a(sha1.o)
 .debug_info    0x0007f5fb      0x4dd ..//addon/wlan/hostap/wpa_supplicant/libwpa_supplicant.a(sha256-prf.o)
 .debug_info    0x0007fad8      0x3fd ..//addon/wlan/hostap/wpa_supplicant/libwpa_supplicant.a(sha256.o)
 .debug_info    0x0007fed5     0x111b ..//addon/wlan/hostap/wpa_supplicant/libwpa_supplicant.a(driver_common.o)
 .debug_info    0x00080ff0     0x419e ..//addon/wlan/hostap/wpa_supplicant/libwpa_supplicant.a(drivers.o)
 .debug_info    0x0008518e     0x1163 ..//addon/wlan/hostap/wpa_supplicant/libwpa_supplicant.a(eap_methods.o)
 .debug_info    0x000862f1     0x3ce0 ..//addon/wlan/hostap/wpa_supplicant/libwpa_supplicant.a(eapol_supp_sm.o)
 .debug_info    0x00089fd1     0x312f ..//addon/wlan/hostap/wpa_supplicant/libwpa_supplicant.a(l2_packet_circle.o)
 .debug_info    0x0008d100     0x2ec5 ..//addon/wlan/hostap/wpa_supplicant/libwpa_supplicant.a(pmksa_cache.o)
 .debug_info    0x0008ffc5     0x2a3a ..//addon/wlan/hostap/wpa_supplicant/libwpa_supplicant.a(preauth.o)
 .debug_info    0x000929ff     0xcdd7 ..//addon/wlan/hostap/wpa_supplicant/libwpa_supplicant.a(wpa.o)
 .debug_info    0x0009f7d6     0x1958 ..//addon/wlan/hostap/wpa_supplicant/libwpa_supplicant.a(wpa_ie.o)
 .debug_info    0x000a112e     0x27e5 ..//addon/wlan/hostap/wpa_supplicant/libwpa_supplicant.a(common.o)
 .debug_info    0x000a3913      0x4fb ..//addon/wlan/hostap/wpa_supplicant/libwpa_supplicant.a(wpa_debug_circle.o)
 .debug_info    0x000a3e0e     0x17ed ..//addon/wlan/hostap/wpa_supplicant/libwpa_supplicant.a(wpabuf.o)
 .debug_info    0x000a55fb     0xd066 ..//addon/wlan/hostap/wpa_supplicant/libwpa_supplicant.a(bss.o)
 .debug_info    0x000b2661     0x7263 ..//addon/wlan/hostap/wpa_supplicant/libwpa_supplicant.a(bssid_ignore.o)
 .debug_info    0x000b98c4     0x9956 ..//addon/wlan/hostap/wpa_supplicant/libwpa_supplicant.a(config.o)
 .debug_info    0x000c321a     0x30e2 ..//addon/wlan/hostap/wpa_supplicant/libwpa_supplicant.a(config_file.o)
 .debug_info    0x000c62fc       0x9f ..//addon/wlan/hostap/wpa_supplicant/libwpa_supplicant.a(eap_register.o)
 .debug_info    0x000c639b    0x16d0b ..//addon/wlan/hostap/wpa_supplicant/libwpa_supplicant.a(events.o)
 .debug_info    0x000dd0a6     0x9e14 ..//addon/wlan/hostap/wpa_supplicant/libwpa_supplicant.a(notify.o)
 .debug_info    0x000e6eba     0x84a5 ..//addon/wlan/hostap/wpa_supplicant/libwpa_supplicant.a(op_classes.o)
 .debug_info    0x000ef35f     0xc0ff ..//addon/wlan/hostap/wpa_supplicant/libwpa_supplicant.a(rrm.o)
 .debug_info    0x000fb45e    0x10e85 ..//addon/wlan/hostap/wpa_supplicant/libwpa_supplicant.a(scan.o)
 .debug_info    0x0010c2e3      0x7df ..//addon/wlan/hostap/wpa_supplicant/libwpa_supplicant.a(aes-internal-enc.o)
 .debug_info    0x0010cac2      0x312 ..//addon/wlan/hostap/wpa_supplicant/libwpa_supplicant.a(aes-unwrap.o)
 .debug_info    0x0010cdd4      0x581 ..//addon/wlan/hostap/wpa_supplicant/libwpa_supplicant.a(md5-internal.o)
 .debug_info    0x0010d355      0x1d5 ..//addon/wlan/hostap/wpa_supplicant/libwpa_supplicant.a(rc4.o)
 .debug_info    0x0010d52a      0x5b6 ..//addon/wlan/hostap/wpa_supplicant/libwpa_supplicant.a(sha1-internal.o)
 .debug_info    0x0010dae0      0x623 ..//addon/wlan/hostap/wpa_supplicant/libwpa_supplicant.a(sha256-internal.o)
 .debug_info    0x0010e103     0x77f8 ..//addon/wlan/hostap/wpa_supplicant/libwpa_supplicant.a(driver_circle.o)
 .debug_info    0x001158fb     0x6b75 ..//addon/wlan/hostap/wpa_supplicant/libwpa_supplicant.a(eap.o)
 .debug_info    0x0011c470      0x675 ..//addon/wlan/hostap/wpa_supplicant/libwpa_supplicant.a(base64.o)
 .debug_info    0x0011cae5      0x2a4 ..//addon/wlan/hostap/wpa_supplicant/libwpa_supplicant.a(bitfield.o)
 .debug_info    0x0011cd89      0x651 ..//addon/wlan/hostap/wpa_supplicant/libwpa_supplicant.a(config.o)
 .debug_info    0x0011d3da      0x1b1 ..//addon/wlan/hostap/wpa_supplicant/libwpa_supplicant.a(aes-internal.o)
 .debug_info    0x0011d58b      0x945 ..//addon/wlan/hostap/wpa_supplicant/libwpa_supplicant.a(aes-internal-dec.o)
 .debug_info    0x0011ded0      0xde7 ..//addon/wlan/hostap/wpa_supplicant/libwpa_supplicant.a(tls_none.o)
 .debug_info    0x0011ecb7      0xb63 ..//addon/wlan/hostap/wpa_supplicant/libwpa_supplicant.a(eap_common.o)
 .debug_info    0x0011f81a     0x2758 ..//addon/wlan/libwlan.a(bcm4343.o)
 .debug_info    0x00121f72     0xa5ef ..//addon/wlan/libwlan.a(ether4330.o)
 .debug_info    0x0012c561     0x1b87 ..//addon/wlan/libwlan.a(emmc.o)
 .debug_info    0x0012e0e8     0x1b5f ..//addon/wlan/libwlan.a(p9arch.o)
 .debug_info    0x0012fc47      0xaad ..//addon/wlan/libwlan.a(p9chan.o)
 .debug_info    0x001306f4      0x6b3 ..//addon/wlan/libwlan.a(p9cmd.o)
 .debug_info    0x00130da7      0x3f7 ..//addon/wlan/libwlan.a(p9error.o)
 .debug_info    0x0013119e      0x5f8 ..//addon/wlan/libwlan.a(p9ether.o)
 .debug_info    0x00131796      0xea2 ..//addon/wlan/libwlan.a(p9proc.o)
 .debug_info    0x00132638     0x14d6 ..//addon/wlan/libwlan.a(p9util.o)
 .debug_info    0x00133b0e     0x2ac5 ..//lib/usb/libusb.a(usbkeyboard.o)
 .debug_info    0x001365d3     0x9ab0 ..//lib/usb/libusb.a(dwhcidevice.o)
 .debug_info    0x00140083     0x23dc ..//lib/usb/libusb.a(dwhciframeschednper.o)
 .debug_info    0x0014245f     0x1069 ..//lib/usb/libusb.a(dwhciframeschednsplit.o)
 .debug_info    0x001434c8     0x1e1d ..//lib/usb/libusb.a(dwhciframeschedper.o)
 .debug_info    0x001452e5     0x16f4 ..//lib/usb/libusb.a(dwhcirootport.o)
 .debug_info    0x001469d9     0x2654 ..//lib/usb/libusb.a(dwhcixactqueue.o)
 .debug_info    0x0014902d     0x32af ..//lib/usb/libusb.a(dwhcixferstagedata.o)
 .debug_info    0x0014c2dc     0x12b2 ..//lib/usb/libusb.a(dwhciframeschediso.o)
 .debug_info    0x0014d58e     0x3cea ..//lib/usb/libusb.a(usbdevice.o)
 .debug_info    0x00151278     0x3291 ..//lib/usb/libusb.a(usbdevicefactory.o)
 .debug_info    0x00154509     0x161e ..//lib/usb/libusb.a(usbendpoint.o)
 .debug_info    0x00155b27     0x2609 ..//lib/usb/libusb.a(usbfunction.o)
 .debug_info    0x00158130     0x2170 ..//lib/usb/libusb.a(usbgamepadps3.o)
 .debug_info    0x0015a2a0     0x22f6 ..//lib/usb/libusb.a(usbgamepadps4.o)
 .debug_info    0x0015c596     0x2583 ..//lib/usb/libusb.a(usbgamepadstandard.o)
 .debug_info    0x0015eb19     0x1f42 ..//lib/usb/libusb.a(usbgamepadswitchpro.o)
 .debug_info    0x00160a5b     0x1d1e ..//lib/usb/libusb.a(usbgamepadxbox360.o)
 .debug_info    0x00162779     0x1bc6 ..//lib/usb/libusb.a(usbgamepadxboxone.o)
 .debug_info    0x0016433f     0x2bbb ..//lib/usb/libusb.a(usbhiddevice.o)
 .debug_info    0x00166efa     0x2496 ..//lib/usb/libusb.a(usbhostcontroller.o)
 .debug_info    0x00169390     0x385b ..//lib/usb/libusb.a(usbmassdevice.o)
 .debug_info    0x0016cbeb     0x3150 ..//lib/usb/libusb.a(usbmidihost.o)
 .debug_info    0x0016fd3b     0x24e5 ..//lib/usb/libusb.a(usbmouse.o)
 .debug_info    0x00172220     0x1ff0 ..//lib/usb/libusb.a(usbprinter.o)
 .debug_info    0x00174210     0x138c ..//lib/usb/libusb.a(usbrequest.o)
 .debug_info    0x0017559c     0x409d ..//lib/usb/libusb.a(usbstandardhub.o)
 .debug_info    0x00179639      0xcea ..//lib/usb/libusb.a(usbstring.o)
 .debug_info    0x0017a323     0x1e76 ..//lib/usb/libusb.a(usbserialch341.o)
 .debug_info    0x0017c199     0x1f6d ..//lib/usb/libusb.a(usbserialcp210x.o)
 .debug_info    0x0017e106     0x26b5 ..//lib/usb/libusb.a(usbserialpl2303.o)
 .debug_info    0x001807bb     0x2105 ..//lib/usb/libusb.a(usbserialft231x.o)
 .debug_info    0x001828c0     0x1a2e ..//lib/usb/libusb.a(usbserialcdc.o)
 .debug_info    0x001842ee     0x23c6 ..//lib/usb/libusb.a(usbtouchscreen.o)
 .debug_info    0x001866b4     0x14d8 ..//lib/usb/libusb.a(dwhciregister.o)
 .debug_info    0x00187b8c     0x4308 ..//lib/usb/libusb.a(lan7800.o)
 .debug_info    0x0018be94     0x47f4 ..//lib/usb/libusb.a(smsc951x.o)
 .debug_info    0x00190688     0x2ab4 ..//lib/usb/libusb.a(usbbluetooth.o)
 .debug_info    0x0019313c     0x318f ..//lib/usb/libusb.a(usbcdcethernet.o)
 .debug_info    0x001962cb     0x354d ..//lib/usb/libusb.a(usbfloppydevice.o)
 .debug_info    0x00199818     0x167e ..//lib/usb/libusb.a(usbconfigparser.o)
 .debug_info    0x0019ae96     0x1d29 ..//lib/usb/libusb.a(usbgamepad.o)
 .debug_info    0x0019cbbf     0x2051 ..//lib/usb/libusb.a(usbmidi.o)
 .debug_info    0x0019ec10     0x2efa ..//lib/usb/libusb.a(usbserialhost.o)
 .debug_info    0x001a1b0a     0x11ec ..//lib/usb/libusb.a(usbserial.o)
 .debug_info    0x001a2cf6     0x73a6 ..//addon/fatfs/libfatfs.a(ff.o)
 .debug_info    0x001aa09c      0x94b ..//addon/fatfs/libfatfs.a(diskio.o)
 .debug_info    0x001aa9e7     0x106b ..//addon/fatfs/libfatfs.a(ffsystem.o)
 .debug_info    0x001aba52      0x379 ..//addon/fatfs/libfatfs.a(ffunicode.o)
 .debug_info    0x001abdcb     0x3bc3 ..//addon/SDCard/libsdcard.a(emmc.o)
 .debug_info    0x001af98e      0xc4d ..//addon/SDCard/libsdcard.a(mmchost.o)
 .debug_info    0x001b05db     0x68e3 ..//addon/SDCard/libsdcard.a(sdhost.o)
 .debug_info    0x001b6ebe     0x14e1 ..//lib/input/libinput.a(keyboardbehaviour.o)
 .debug_info    0x001b839f      0xfad ..//lib/input/libinput.a(keymap.o)
 .debug_info    0x001b934c     0x1409 ..//lib/input/libinput.a(mouse.o)
 .debug_info    0x001ba755      0xe57 ..//lib/input/libinput.a(touchscreen.o)
 .debug_info    0x001bb5ac     0x1050 ..//lib/input/libinput.a(mousebehaviour.o)
 .debug_info    0x001bc5fc     0x1713 ..//lib/fs/libfs.a(partitionmanager.o)
 .debug_info    0x001bdd0f      0x6cd ..//lib/fs/libfs.a(partition.o)
 .debug_info    0x001be3dc     0x3081 ..//lib/net/libnet.a(netsubsystem.o)
 .debug_info    0x001c145d     0x2991 ..//lib/net/libnet.a(nettask.o)
 .debug_info    0x001c3dee     0x3602 ..//lib/net/libnet.a(socket.o)
 .debug_info    0x001c73f0     0x4aea ..//lib/net/libnet.a(transportlayer.o)
 .debug_info    0x001cbeda     0x3796 ..//lib/net/libnet.a(networklayer.o)
 .debug_info    0x001cf670     0x2f9a ..//lib/net/libnet.a(linklayer.o)
 .debug_info    0x001d260a     0x2262 ..//lib/net/libnet.a(netdevlayer.o)
 .debug_info    0x001d486c      0xd90 ..//lib/net/libnet.a(phytask.o)
 .debug_info    0x001d55fc     0x3027 ..//lib/net/libnet.a(arphandler.o)
 .debug_info    0x001d8623     0x378c ..//lib/net/libnet.a(icmphandler.o)
 .debug_info    0x001dbdaf     0x3203 ..//lib/net/libnet.a(igmphandler.o)
 .debug_info    0x001defb2      0x7ff ..//lib/net/libnet.a(routecache.o)
 .debug_info    0x001df7b1     0x2901 ..//lib/net/libnet.a(netconnection.o)
 .debug_info    0x001e20b2     0x3911 ..//lib/net/libnet.a(udpconnection.o)
 .debug_info    0x001e59c3     0x63fa ..//lib/net/libnet.a(tcpconnection.o)
 .debug_info    0x001ebdbd      0x826 ..//lib/net/libnet.a(retransmissionqueue.o)
 .debug_info    0x001ec5e3     0x1035 ..//lib/net/libnet.a(retranstimeoutcalc.o)
 .debug_info    0x001ed618     0x2cdb ..//lib/net/libnet.a(tcprejector.o)
 .debug_info    0x001f02f3     0x1197 ..//lib/net/libnet.a(netconfig.o)
 .debug_info    0x001f148a     0x117b ..//lib/net/libnet.a(ipaddress.o)
 .debug_info    0x001f2605      0x928 ..//lib/net/libnet.a(netqueue.o)
 .debug_info    0x001f2f2d      0xc82 ..//lib/net/libnet.a(checksumcalculator.o)
 .debug_info    0x001f3baf     0x5867 ..//lib/net/libnet.a(dhcpclient.o)
 .debug_info    0x001f9416     0x4b15 ..//lib/net/libnet.a(mdnsdaemon.o)
 .debug_info    0x001fdf2b     0x397e ..//lib/net/libnet.a(netsocket.o)
 .debug_info    0x002018a9     0x3147 ..//lib/net/libnet.a(dnsclient.o)
 .debug_info    0x002049f0     0x134c ..//lib/sched/libsched.a(task.o)
 .debug_info    0x00205d3c     0x2d29 ..//lib/sched/libsched.a(scheduler.o)
 .debug_info    0x00208a65      0x88f ..//lib/sched/libsched.a(synchronizationevent.o)
 .debug_info    0x002092f4     0x1449 ..//lib/libcircle.a(actled.o)
 .debug_info    0x0020a73d      0xb97 ..//lib/libcircle.a(alloc.o)
 .debug_info    0x0020b2d4      0xee7 ..//lib/libcircle.a(assert.o)
 .debug_info    0x0020c1bb      0x5a4 ..//lib/libcircle.a(display.o)
 .debug_info    0x0020c75f     0x24aa ..//lib/libcircle.a(bcmframebuffer.o)
 .debug_info    0x0020ec09      0xce9 ..//lib/libcircle.a(bcmpropertytags.o)
 .debug_info    0x0020f8f2      0x44f ..//lib/libcircle.a(chargenerator.o)
 .debug_info    0x0020fd41     0x16e5 ..//lib/libcircle.a(classallocator.o)
 .debug_info    0x00211426      0xee0 ..//lib/libcircle.a(debug.o)
 .debug_info    0x00212306      0x9e2 ..//lib/libcircle.a(device.o)
 .debug_info    0x00212ce8     0x1056 ..//lib/libcircle.a(devicenameservice.o)
 .debug_info    0x00213d3e     0x26f4 ..//lib/libcircle.a(dmachannel.o)
 .debug_info    0x00216432     0x1881 ..//lib/libcircle.a(koptions.o)
 .debug_info    0x00217cb3     0x2423 ..//lib/libcircle.a(logger.o)
 .debug_info    0x0021a0d6      0xff4 ..//lib/libcircle.a(machineinfo.o)
 .debug_info    0x0021b0ca      0x756 ..//lib/libcircle.a(nulldevice.o)
 .debug_info    0x0021b820      0x6aa ..//lib/libcircle.a(ptrarray.o)
 .debug_info    0x0021beca      0x7dd ..//lib/libcircle.a(ptrlist.o)
 .debug_info    0x0021c6a7     0x1586 ..//lib/libcircle.a(screen.o)
 .debug_info    0x0021dc2d     0x2ccc ..//lib/libcircle.a(serial.o)
 .debug_info    0x002208f9     0x2f2c ..//lib/libcircle.a(string.o)
 .debug_info    0x00223825     0x1a7a ..//lib/libcircle.a(sysinit.o)
 .debug_info    0x0022529f     0x2a08 ..//lib/libcircle.a(timer.o)
 .debug_info    0x00227ca7      0x9e7 ..//lib/libcircle.a(util.o)
 .debug_info    0x0022868e     0x109e ..//lib/libcircle.a(virtualgpiopin.o)
 .debug_info    0x0022972c      0x239 ..//lib/libcircle.a(chainboot.o)
 .debug_info    0x00229965      0xbb0 ..//lib/libcircle.a(macaddress.o)
 .debug_info    0x0022a515      0x6db ..//lib/libcircle.a(netdevice.o)
 .debug_info    0x0022abf0      0xaad ..//lib/libcircle.a(new.o)
 .debug_info    0x0022b69d     0x15e7 ..//lib/libcircle.a(heapallocator.o)
 .debug_info    0x0022cc84      0x5d9 ..//lib/libcircle.a(pageallocator.o)
 .debug_info    0x0022d25d     0x10a3 ..//lib/libcircle.a(numberpool.o)
 .debug_info    0x0022e300     0x1065 ..//lib/libcircle.a(ptrlistfiq.o)
 .debug_info    0x0022f365       0xd7 ..//lib/libcircle.a(font8x16.o)
 .debug_info    0x0022f43c     0x153b ..//lib/libcircle.a(exceptionhandler.o)
 .debug_info    0x00230977      0xec7 ..//lib/libcircle.a(memory.o)
 .debug_info    0x0023183e      0x29d ..//lib/libcircle.a(pagetable.o)
 .debug_info    0x00231adb      0x248 ..//lib/libcircle.a(synchronize.o)
 .debug_info    0x00231d23      0x4f5 ..//lib/libcircle.a(bcmrandom.o)
 .debug_info    0x00232218     0x1105 ..//lib/libcircle.a(interrupt.o)
 .debug_info    0x0023331d     0x2cf7 ..//lib/libcircle.a(gpiopin.o)
 .debug_info    0x00236014      0x951 ..//lib/libcircle.a(usertimer.o)
 .debug_info    0x00236965      0x11a ..//lib/libcircle.a(cxa_guard.o)
 .debug_info    0x00236a7f     0x1116 ..//lib/libcircle.a(bcmmailbox.o)
 .debug_info    0x00237b95     0x4af1 ..//lib/libcircle.a(terminal.o)
 .debug_info    0x0023c686      0xa49 ..//lib/libcircle.a(gpiomanager.o)

.debug_abbrev   0x00000000    0x3d158
 .debug_abbrev  0x00000000      0x42f ..//VT100/build/main.o
 .debug_abbrev  0x0000042f      0xa13 ..//VT100/build/kernel.o
 .debug_abbrev  0x00000e42      0x4d7 ..//VT100/build/hal.o
 .debug_abbrev  0x00001319      0x493 ..//VT100/build/TFontConverter.o
 .debug_abbrev  0x000017ac      0x357 ..//VT100/build/VT100_FontConverter.o
 .debug_abbrev  0x00001b03      0x98e ..//VT100/build/TRenderer.o
 .debug_abbrev  0x00002491      0x96a ..//VT100/build/TConfig.o
 .debug_abbrev  0x00002dfb      0x7a2 ..//VT100/build/TKeyboard.o
 .debug_abbrev  0x0000359d      0x5db ..//VT100/build/TUART.o
 .debug_abbrev  0x00003b78      0x5c6 ..//VT100/build/TFileLog.o
 .debug_abbrev  0x0000413e      0x993 ..//VT100/build/TWlanLog.o
 .debug_abbrev  0x00004ad1      0xad2 ..//VT100/build/TSetup.o
 .debug_abbrev  0x000055a3      0x5f2 ..//VT100/build/VTTest.o
 .debug_abbrev  0x00005b95      0x480 ..//addon/wlan/hostap/wpa_supplicant/libwpa_supplicant.a(wpasupplicant.o)
 .debug_abbrev  0x00006015      0x399 ..//addon/wlan/hostap/wpa_supplicant/libwpa_supplicant.a(eloop_circle.o)
 .debug_abbrev  0x000063ae      0x5cf ..//addon/wlan/hostap/wpa_supplicant/libwpa_supplicant.a(os_circle.o)
 .debug_abbrev  0x0000697d      0x2ff ..//addon/wlan/hostap/wpa_supplicant/libwpa_supplicant.a(main_circle.o)
 .debug_abbrev  0x00006c7c      0x995 ..//addon/wlan/hostap/wpa_supplicant/libwpa_supplicant.a(wpa_supplicant.o)
 .debug_abbrev  0x00007611      0x718 ..//addon/wlan/hostap/wpa_supplicant/libwpa_supplicant.a(wpas_glue.o)
 .debug_abbrev  0x00007d29      0x5b5 ..//addon/wlan/hostap/wpa_supplicant/libwpa_supplicant.a(hw_features_common.o)
 .debug_abbrev  0x000082de      0x606 ..//addon/wlan/hostap/wpa_supplicant/libwpa_supplicant.a(ieee802_11_common.o)
 .debug_abbrev  0x000088e4      0x1c4 ..//addon/wlan/hostap/wpa_supplicant/libwpa_supplicant.a(ptksa_cache.o)
 .debug_abbrev  0x00008aa8      0x44a ..//addon/wlan/hostap/wpa_supplicant/libwpa_supplicant.a(wpa_common.o)
 .debug_abbrev  0x00008ef2      0x226 ..//addon/wlan/hostap/wpa_supplicant/libwpa_supplicant.a(aes-omac1.o)
 .debug_abbrev  0x00009118      0x14c ..//addon/wlan/hostap/wpa_supplicant/libwpa_supplicant.a(md5.o)
 .debug_abbrev  0x00009264      0x1e6 ..//addon/wlan/hostap/wpa_supplicant/libwpa_supplicant.a(sha1-pbkdf2.o)
 .debug_abbrev  0x0000944a      0x184 ..//addon/wlan/hostap/wpa_supplicant/libwpa_supplicant.a(sha1-prf.o)
 .debug_abbrev  0x000095ce      0x161 ..//addon/wlan/hostap/wpa_supplicant/libwpa_supplicant.a(sha1.o)
 .debug_abbrev  0x0000972f      0x1eb ..//addon/wlan/hostap/wpa_supplicant/libwpa_supplicant.a(sha256-prf.o)
 .debug_abbrev  0x0000991a      0x170 ..//addon/wlan/hostap/wpa_supplicant/libwpa_supplicant.a(sha256.o)
 .debug_abbrev  0x00009a8a      0x32d ..//addon/wlan/hostap/wpa_supplicant/libwpa_supplicant.a(driver_common.o)
 .debug_abbrev  0x00009db7      0x1fb ..//addon/wlan/hostap/wpa_supplicant/libwpa_supplicant.a(drivers.o)
 .debug_abbrev  0x00009fb2      0x397 ..//addon/wlan/hostap/wpa_supplicant/libwpa_supplicant.a(eap_methods.o)
 .debug_abbrev  0x0000a349      0x59d ..//addon/wlan/hostap/wpa_supplicant/libwpa_supplicant.a(eapol_supp_sm.o)
 .debug_abbrev  0x0000a8e6      0x4ef ..//addon/wlan/hostap/wpa_supplicant/libwpa_supplicant.a(l2_packet_circle.o)
 .debug_abbrev  0x0000add5      0x5c1 ..//addon/wlan/hostap/wpa_supplicant/libwpa_supplicant.a(pmksa_cache.o)
 .debug_abbrev  0x0000b396      0x5b4 ..//addon/wlan/hostap/wpa_supplicant/libwpa_supplicant.a(preauth.o)
 .debug_abbrev  0x0000b94a      0x7a4 ..//addon/wlan/hostap/wpa_supplicant/libwpa_supplicant.a(wpa.o)
 .debug_abbrev  0x0000c0ee      0x460 ..//addon/wlan/hostap/wpa_supplicant/libwpa_supplicant.a(wpa_ie.o)
 .debug_abbrev  0x0000c54e      0x545 ..//addon/wlan/hostap/wpa_supplicant/libwpa_supplicant.a(common.o)
 .debug_abbrev  0x0000ca93      0x28e ..//addon/wlan/hostap/wpa_supplicant/libwpa_supplicant.a(wpa_debug_circle.o)
 .debug_abbrev  0x0000cd21      0x446 ..//addon/wlan/hostap/wpa_supplicant/libwpa_supplicant.a(wpabuf.o)
 .debug_abbrev  0x0000d167      0x770 ..//addon/wlan/hostap/wpa_supplicant/libwpa_supplicant.a(bss.o)
 .debug_abbrev  0x0000d8d7      0x4b0 ..//addon/wlan/hostap/wpa_supplicant/libwpa_supplicant.a(bssid_ignore.o)
 .debug_abbrev  0x0000dd87      0x6a0 ..//addon/wlan/hostap/wpa_supplicant/libwpa_supplicant.a(config.o)
 .debug_abbrev  0x0000e427      0x40b ..//addon/wlan/hostap/wpa_supplicant/libwpa_supplicant.a(config_file.o)
 .debug_abbrev  0x0000e832       0x56 ..//addon/wlan/hostap/wpa_supplicant/libwpa_supplicant.a(eap_register.o)
 .debug_abbrev  0x0000e888      0x834 ..//addon/wlan/hostap/wpa_supplicant/libwpa_supplicant.a(events.o)
 .debug_abbrev  0x0000f0bc      0x5b6 ..//addon/wlan/hostap/wpa_supplicant/libwpa_supplicant.a(notify.o)
 .debug_abbrev  0x0000f672      0x5c2 ..//addon/wlan/hostap/wpa_supplicant/libwpa_supplicant.a(op_classes.o)
 .debug_abbrev  0x0000fc34      0x730 ..//addon/wlan/hostap/wpa_supplicant/libwpa_supplicant.a(rrm.o)
 .debug_abbrev  0x00010364      0x798 ..//addon/wlan/hostap/wpa_supplicant/libwpa_supplicant.a(scan.o)
 .debug_abbrev  0x00010afc      0x21f ..//addon/wlan/hostap/wpa_supplicant/libwpa_supplicant.a(aes-internal-enc.o)
 .debug_abbrev  0x00010d1b      0x150 ..//addon/wlan/hostap/wpa_supplicant/libwpa_supplicant.a(aes-unwrap.o)
 .debug_abbrev  0x00010e6b      0x238 ..//addon/wlan/hostap/wpa_supplicant/libwpa_supplicant.a(md5-internal.o)
 .debug_abbrev  0x000110a3      0x10b ..//addon/wlan/hostap/wpa_supplicant/libwpa_supplicant.a(rc4.o)
 .debug_abbrev  0x000111ae      0x27d ..//addon/wlan/hostap/wpa_supplicant/libwpa_supplicant.a(sha1-internal.o)
 .debug_abbrev  0x0001142b      0x272 ..//addon/wlan/hostap/wpa_supplicant/libwpa_supplicant.a(sha256-internal.o)
 .debug_abbrev  0x0001169d      0x795 ..//addon/wlan/hostap/wpa_supplicant/libwpa_supplicant.a(driver_circle.o)
 .debug_abbrev  0x00011e32      0x70b ..//addon/wlan/hostap/wpa_supplicant/libwpa_supplicant.a(eap.o)
 .debug_abbrev  0x0001253d      0x188 ..//addon/wlan/hostap/wpa_supplicant/libwpa_supplicant.a(base64.o)
 .debug_abbrev  0x000126c5      0x1da ..//addon/wlan/hostap/wpa_supplicant/libwpa_supplicant.a(bitfield.o)
 .debug_abbrev  0x0001289f      0x276 ..//addon/wlan/hostap/wpa_supplicant/libwpa_supplicant.a(config.o)
 .debug_abbrev  0x00012b15      0x116 ..//addon/wlan/hostap/wpa_supplicant/libwpa_supplicant.a(aes-internal.o)
 .debug_abbrev  0x00012c2b      0x251 ..//addon/wlan/hostap/wpa_supplicant/libwpa_supplicant.a(aes-internal-dec.o)
 .debug_abbrev  0x00012e7c      0x28e ..//addon/wlan/hostap/wpa_supplicant/libwpa_supplicant.a(tls_none.o)
 .debug_abbrev  0x0001310a      0x316 ..//addon/wlan/hostap/wpa_supplicant/libwpa_supplicant.a(eap_common.o)
 .debug_abbrev  0x00013420      0x726 ..//addon/wlan/libwlan.a(bcm4343.o)
 .debug_abbrev  0x00013b46      0x5b5 ..//addon/wlan/libwlan.a(ether4330.o)
 .debug_abbrev  0x000140fb      0x3f8 ..//addon/wlan/libwlan.a(emmc.o)
 .debug_abbrev  0x000144f3      0x518 ..//addon/wlan/libwlan.a(p9arch.o)
 .debug_abbrev  0x00014a0b      0x360 ..//addon/wlan/libwlan.a(p9chan.o)
 .debug_abbrev  0x00014d6b      0x2b9 ..//addon/wlan/libwlan.a(p9cmd.o)
 .debug_abbrev  0x00015024      0x1c8 ..//addon/wlan/libwlan.a(p9error.o)
 .debug_abbrev  0x000151ec      0x1b9 ..//addon/wlan/libwlan.a(p9ether.o)
 .debug_abbrev  0x000153a5      0x4a9 ..//addon/wlan/libwlan.a(p9proc.o)
 .debug_abbrev  0x0001584e      0x3bf ..//addon/wlan/libwlan.a(p9util.o)
 .debug_abbrev  0x00015c0d      0x6e1 ..//lib/usb/libusb.a(usbkeyboard.o)
 .debug_abbrev  0x000162ee      0x93e ..//lib/usb/libusb.a(dwhcidevice.o)
 .debug_abbrev  0x00016c2c      0x5f6 ..//lib/usb/libusb.a(dwhciframeschednper.o)
 .debug_abbrev  0x00017222      0x440 ..//lib/usb/libusb.a(dwhciframeschednsplit.o)
 .debug_abbrev  0x00017662      0x597 ..//lib/usb/libusb.a(dwhciframeschedper.o)
 .debug_abbrev  0x00017bf9      0x523 ..//lib/usb/libusb.a(dwhcirootport.o)
 .debug_abbrev  0x0001811c      0x50a ..//lib/usb/libusb.a(dwhcixactqueue.o)
 .debug_abbrev  0x00018626      0x694 ..//lib/usb/libusb.a(dwhcixferstagedata.o)
 .debug_abbrev  0x00018cba      0x483 ..//lib/usb/libusb.a(dwhciframeschediso.o)
 .debug_abbrev  0x0001913d      0x7e1 ..//lib/usb/libusb.a(usbdevice.o)
 .debug_abbrev  0x0001991e      0x4cc ..//lib/usb/libusb.a(usbdevicefactory.o)
 .debug_abbrev  0x00019dea      0x3f2 ..//lib/usb/libusb.a(usbendpoint.o)
 .debug_abbrev  0x0001a1dc      0x4ec ..//lib/usb/libusb.a(usbfunction.o)
 .debug_abbrev  0x0001a6c8      0x5ad ..//lib/usb/libusb.a(usbgamepadps3.o)
 .debug_abbrev  0x0001ac75      0x714 ..//lib/usb/libusb.a(usbgamepadps4.o)
 .debug_abbrev  0x0001b389      0x66a ..//lib/usb/libusb.a(usbgamepadstandard.o)
 .debug_abbrev  0x0001b9f3      0x643 ..//lib/usb/libusb.a(usbgamepadswitchpro.o)
 .debug_abbrev  0x0001c036      0x600 ..//lib/usb/libusb.a(usbgamepadxbox360.o)
 .debug_abbrev  0x0001c636      0x58a ..//lib/usb/libusb.a(usbgamepadxboxone.o)
 .debug_abbrev  0x0001cbc0      0x5b3 ..//lib/usb/libusb.a(usbhiddevice.o)
 .debug_abbrev  0x0001d173      0x5c7 ..//lib/usb/libusb.a(usbhostcontroller.o)
 .debug_abbrev  0x0001d73a      0x69c ..//lib/usb/libusb.a(usbmassdevice.o)
 .debug_abbrev  0x0001ddd6      0x6ad ..//lib/usb/libusb.a(usbmidihost.o)
 .debug_abbrev  0x0001e483      0x5cc ..//lib/usb/libusb.a(usbmouse.o)
 .debug_abbrev  0x0001ea4f      0x539 ..//lib/usb/libusb.a(usbprinter.o)
 .debug_abbrev  0x0001ef88      0x369 ..//lib/usb/libusb.a(usbrequest.o)
 .debug_abbrev  0x0001f2f1      0x78a ..//lib/usb/libusb.a(usbstandardhub.o)
 .debug_abbrev  0x0001fa7b      0x346 ..//lib/usb/libusb.a(usbstring.o)
 .debug_abbrev  0x0001fdc1      0x4c2 ..//lib/usb/libusb.a(usbserialch341.o)
 .debug_abbrev  0x00020283      0x510 ..//lib/usb/libusb.a(usbserialcp210x.o)
 .debug_abbrev  0x00020793      0x5c9 ..//lib/usb/libusb.a(usbserialpl2303.o)
 .debug_abbrev  0x00020d5c      0x51d ..//lib/usb/libusb.a(usbserialft231x.o)
 .debug_abbrev  0x00021279      0x48b ..//lib/usb/libusb.a(usbserialcdc.o)
 .debug_abbrev  0x00021704      0x67c ..//lib/usb/libusb.a(usbtouchscreen.o)
 .debug_abbrev  0x00021d80      0x3bb ..//lib/usb/libusb.a(dwhciregister.o)
 .debug_abbrev  0x0002213b      0x7c1 ..//lib/usb/libusb.a(lan7800.o)
 .debug_abbrev  0x000228fc      0x7fc ..//lib/usb/libusb.a(smsc951x.o)
 .debug_abbrev  0x000230f8      0x5e2 ..//lib/usb/libusb.a(usbbluetooth.o)
 .debug_abbrev  0x000236da      0x61e ..//lib/usb/libusb.a(usbcdcethernet.o)
 .debug_abbrev  0x00023cf8      0x708 ..//lib/usb/libusb.a(usbfloppydevice.o)
 .debug_abbrev  0x00024400      0x403 ..//lib/usb/libusb.a(usbconfigparser.o)
 .debug_abbrev  0x00024803      0x5a2 ..//lib/usb/libusb.a(usbgamepad.o)
 .debug_abbrev  0x00024da5      0x60e ..//lib/usb/libusb.a(usbmidi.o)
 .debug_abbrev  0x000253b3      0x62f ..//lib/usb/libusb.a(usbserialhost.o)
 .debug_abbrev  0x000259e2      0x45e ..//lib/usb/libusb.a(usbserial.o)
 .debug_abbrev  0x00025e40      0x445 ..//addon/fatfs/libfatfs.a(ff.o)
 .debug_abbrev  0x00026285      0x2a1 ..//addon/fatfs/libfatfs.a(diskio.o)
 .debug_abbrev  0x00026526      0x3bf ..//addon/fatfs/libfatfs.a(ffsystem.o)
 .debug_abbrev  0x000268e5      0x146 ..//addon/fatfs/libfatfs.a(ffunicode.o)
 .debug_abbrev  0x00026a2b      0x6f0 ..//addon/SDCard/libsdcard.a(emmc.o)
 .debug_abbrev  0x0002711b      0x3dc ..//addon/SDCard/libsdcard.a(mmchost.o)
 .debug_abbrev  0x000274f7      0x884 ..//addon/SDCard/libsdcard.a(sdhost.o)
 .debug_abbrev  0x00027d7b      0x424 ..//lib/input/libinput.a(keyboardbehaviour.o)
 .debug_abbrev  0x0002819f      0x406 ..//lib/input/libinput.a(keymap.o)
 .debug_abbrev  0x000285a5      0x43b ..//lib/input/libinput.a(mouse.o)
 .debug_abbrev  0x000289e0      0x423 ..//lib/input/libinput.a(touchscreen.o)
 .debug_abbrev  0x00028e03      0x445 ..//lib/input/libinput.a(mousebehaviour.o)
 .debug_abbrev  0x00029248      0x495 ..//lib/fs/libfs.a(partitionmanager.o)
 .debug_abbrev  0x000296dd      0x2b8 ..//lib/fs/libfs.a(partition.o)
 .debug_abbrev  0x00029995      0x505 ..//lib/net/libnet.a(netsubsystem.o)
 .debug_abbrev  0x00029e9a      0x479 ..//lib/net/libnet.a(nettask.o)
 .debug_abbrev  0x0002a313      0x5a6 ..//lib/net/libnet.a(socket.o)
 .debug_abbrev  0x0002a8b9      0x690 ..//lib/net/libnet.a(transportlayer.o)
 .debug_abbrev  0x0002af49      0x57a ..//lib/net/libnet.a(networklayer.o)
 .debug_abbrev  0x0002b4c3      0x58e ..//lib/net/libnet.a(linklayer.o)
 .debug_abbrev  0x0002ba51      0x4f3 ..//lib/net/libnet.a(netdevlayer.o)
 .debug_abbrev  0x0002bf44      0x3ee ..//lib/net/libnet.a(phytask.o)
 .debug_abbrev  0x0002c332      0x610 ..//lib/net/libnet.a(arphandler.o)
 .debug_abbrev  0x0002c942      0x52c ..//lib/net/libnet.a(icmphandler.o)
 .debug_abbrev  0x0002ce6e      0x5fa ..//lib/net/libnet.a(igmphandler.o)
 .debug_abbrev  0x0002d468      0x28b ..//lib/net/libnet.a(routecache.o)
 .debug_abbrev  0x0002d6f3      0x447 ..//lib/net/libnet.a(netconnection.o)
 .debug_abbrev  0x0002db3a      0x61b ..//lib/net/libnet.a(udpconnection.o)
 .debug_abbrev  0x0002e155      0x79a ..//lib/net/libnet.a(tcpconnection.o)
 .debug_abbrev  0x0002e8ef      0x1f7 ..//lib/net/libnet.a(retransmissionqueue.o)
 .debug_abbrev  0x0002eae6      0x397 ..//lib/net/libnet.a(retranstimeoutcalc.o)
 .debug_abbrev  0x0002ee7d      0x4ed ..//lib/net/libnet.a(tcprejector.o)
 .debug_abbrev  0x0002f36a      0x2c0 ..//lib/net/libnet.a(netconfig.o)
 .debug_abbrev  0x0002f62a      0x30c ..//lib/net/libnet.a(ipaddress.o)
 .debug_abbrev  0x0002f936      0x2d9 ..//lib/net/libnet.a(netqueue.o)
 .debug_abbrev  0x0002fc0f      0x34f ..//lib/net/libnet.a(checksumcalculator.o)
 .debug_abbrev  0x0002ff5e      0x78a ..//lib/net/libnet.a(dhcpclient.o)
 .debug_abbrev  0x000306e8      0x723 ..//lib/net/libnet.a(mdnsdaemon.o)
 .debug_abbrev  0x00030e0b      0x50f ..//lib/net/libnet.a(netsocket.o)
 .debug_abbrev  0x0003131a      0x598 ..//lib/net/libnet.a(dnsclient.o)
 .debug_abbrev  0x000318b2      0x49d ..//lib/sched/libsched.a(task.o)
 .debug_abbrev  0x00031d4f      0x6bb ..//lib/sched/libsched.a(scheduler.o)
 .debug_abbrev  0x0003240a      0x2a0 ..//lib/sched/libsched.a(synchronizationevent.o)
 .debug_abbrev  0x000326aa      0x465 ..//lib/libcircle.a(actled.o)
 .debug_abbrev  0x00032b0f      0x2f6 ..//lib/libcircle.a(alloc.o)
 .debug_abbrev  0x00032e05      0x2e6 ..//lib/libcircle.a(assert.o)
 .debug_abbrev  0x000330eb      0x29a ..//lib/libcircle.a(display.o)
 .debug_abbrev  0x00033385      0x77f ..//lib/libcircle.a(bcmframebuffer.o)
 .debug_abbrev  0x00033b04      0x338 ..//lib/libcircle.a(bcmpropertytags.o)
 .debug_abbrev  0x00033e3c      0x1d1 ..//lib/libcircle.a(chargenerator.o)
 .debug_abbrev  0x0003400d      0x41f ..//lib/libcircle.a(classallocator.o)
 .debug_abbrev  0x0003442c      0x2de ..//lib/libcircle.a(debug.o)
 .debug_abbrev  0x0003470a      0x34e ..//lib/libcircle.a(device.o)
 .debug_abbrev  0x00034a58      0x3ee ..//lib/libcircle.a(devicenameservice.o)
 .debug_abbrev  0x00034e46      0x52e ..//lib/libcircle.a(dmachannel.o)
 .debug_abbrev  0x00035374      0x4a6 ..//lib/libcircle.a(koptions.o)
 .debug_abbrev  0x0003581a      0x5f4 ..//lib/libcircle.a(logger.o)
 .debug_abbrev  0x00035e0e      0x436 ..//lib/libcircle.a(machineinfo.o)
 .debug_abbrev  0x00036244      0x2bc ..//lib/libcircle.a(nulldevice.o)
 .debug_abbrev  0x00036500      0x224 ..//lib/libcircle.a(ptrarray.o)
 .debug_abbrev  0x00036724      0x20a ..//lib/libcircle.a(ptrlist.o)
 .debug_abbrev  0x0003692e      0x47a ..//lib/libcircle.a(screen.o)
 .debug_abbrev  0x00036da8      0x693 ..//lib/libcircle.a(serial.o)
 .debug_abbrev  0x0003743b      0x4ab ..//lib/libcircle.a(string.o)
 .debug_abbrev  0x000378e6      0x523 ..//lib/libcircle.a(sysinit.o)
 .debug_abbrev  0x00037e09      0x6c3 ..//lib/libcircle.a(timer.o)
 .debug_abbrev  0x000384cc      0x259 ..//lib/libcircle.a(util.o)
 .debug_abbrev  0x00038725      0x4db ..//lib/libcircle.a(virtualgpiopin.o)
 .debug_abbrev  0x00038c00      0x145 ..//lib/libcircle.a(chainboot.o)
 .debug_abbrev  0x00038d45      0x2f8 ..//lib/libcircle.a(macaddress.o)
 .debug_abbrev  0x0003903d      0x2a8 ..//lib/libcircle.a(netdevice.o)
 .debug_abbrev  0x000392e5      0x2a4 ..//lib/libcircle.a(new.o)
 .debug_abbrev  0x00039589      0x4b7 ..//lib/libcircle.a(heapallocator.o)
 .debug_abbrev  0x00039a40      0x2a9 ..//lib/libcircle.a(pageallocator.o)
 .debug_abbrev  0x00039ce9      0x371 ..//lib/libcircle.a(numberpool.o)
 .debug_abbrev  0x0003a05a      0x358 ..//lib/libcircle.a(ptrlistfiq.o)
 .debug_abbrev  0x0003a3b2       0x98 ..//lib/libcircle.a(font8x16.o)
 .debug_abbrev  0x0003a44a      0x50d ..//lib/libcircle.a(exceptionhandler.o)
 .debug_abbrev  0x0003a957      0x40f ..//lib/libcircle.a(memory.o)
 .debug_abbrev  0x0003ad66      0x1b0 ..//lib/libcircle.a(pagetable.o)
 .debug_abbrev  0x0003af16      0x124 ..//lib/libcircle.a(synchronize.o)
 .debug_abbrev  0x0003b03a      0x287 ..//lib/libcircle.a(bcmrandom.o)
 .debug_abbrev  0x0003b2c1      0x4ea ..//lib/libcircle.a(interrupt.o)
 .debug_abbrev  0x0003b7ab      0x633 ..//lib/libcircle.a(gpiopin.o)
 .debug_abbrev  0x0003bdde      0x32d ..//lib/libcircle.a(usertimer.o)
 .debug_abbrev  0x0003c10b       0xd7 ..//lib/libcircle.a(cxa_guard.o)
 .debug_abbrev  0x0003c1e2      0x450 ..//lib/libcircle.a(bcmmailbox.o)
 .debug_abbrev  0x0003c632      0x79a ..//lib/libcircle.a(terminal.o)
 .debug_abbrev  0x0003cdcc      0x38c ..//lib/libcircle.a(gpiomanager.o)

.debug_loclists
                0x00000000    0x9ece7
 .debug_loclists
                0x00000000       0x34 ..//VT100/build/main.o
 .debug_loclists
                0x00000034      0xb8c ..//VT100/build/kernel.o
 .debug_loclists
                0x00000bc0      0x91d ..//VT100/build/hal.o
 .debug_loclists
                0x000014dd       0xbe ..//VT100/build/TFontConverter.o
 .debug_loclists
                0x0000159b      0x7ca ..//VT100/build/VT100_FontConverter.o
 .debug_loclists
                0x00001d65     0x61c5 ..//VT100/build/TRenderer.o
 .debug_loclists
                0x00007f2a     0x1c64 ..//VT100/build/TConfig.o
 .debug_loclists
                0x00009b8e      0xa12 ..//VT100/build/TKeyboard.o
 .debug_loclists
                0x0000a5a0      0x404 ..//VT100/build/TUART.o
 .debug_loclists
                0x0000a9a4      0x537 ..//VT100/build/TFileLog.o
 .debug_loclists
                0x0000aedb     0x198e ..//VT100/build/TWlanLog.o
 .debug_loclists
                0x0000c869     0x233e ..//VT100/build/TSetup.o
 .debug_loclists
                0x0000eba7     0x107c ..//VT100/build/VTTest.o
 .debug_loclists
                0x0000fc23       0xe1 ..//addon/wlan/hostap/wpa_supplicant/libwpa_supplicant.a(wpasupplicant.o)
 .debug_loclists
                0x0000fd04      0x839 ..//addon/wlan/hostap/wpa_supplicant/libwpa_supplicant.a(eloop_circle.o)
 .debug_loclists
                0x0001053d      0x9e2 ..//addon/wlan/hostap/wpa_supplicant/libwpa_supplicant.a(os_circle.o)
 .debug_loclists
                0x00010f1f       0x66 ..//addon/wlan/hostap/wpa_supplicant/libwpa_supplicant.a(main_circle.o)
 .debug_loclists
                0x00010f85     0x90dc ..//addon/wlan/hostap/wpa_supplicant/libwpa_supplicant.a(wpa_supplicant.o)
 .debug_loclists
                0x0001a061     0x223d ..//addon/wlan/hostap/wpa_supplicant/libwpa_supplicant.a(wpas_glue.o)
 .debug_loclists
                0x0001c29e     0x116f ..//addon/wlan/hostap/wpa_supplicant/libwpa_supplicant.a(hw_features_common.o)
 .debug_loclists
                0x0001d40d     0x483d ..//addon/wlan/hostap/wpa_supplicant/libwpa_supplicant.a(ieee802_11_common.o)
 .debug_loclists
                0x00021c4a       0x54 ..//addon/wlan/hostap/wpa_supplicant/libwpa_supplicant.a(ptksa_cache.o)
 .debug_loclists
                0x00021c9e     0x3a85 ..//addon/wlan/hostap/wpa_supplicant/libwpa_supplicant.a(wpa_common.o)
 .debug_loclists
                0x00025723      0x4df ..//addon/wlan/hostap/wpa_supplicant/libwpa_supplicant.a(aes-omac1.o)
 .debug_loclists
                0x00025c02      0x115 ..//addon/wlan/hostap/wpa_supplicant/libwpa_supplicant.a(md5.o)
 .debug_loclists
                0x00025d17      0x128 ..//addon/wlan/hostap/wpa_supplicant/libwpa_supplicant.a(sha1-pbkdf2.o)
 .debug_loclists
                0x00025e3f       0xbb ..//addon/wlan/hostap/wpa_supplicant/libwpa_supplicant.a(sha1-prf.o)
 .debug_loclists
                0x00025efa      0x115 ..//addon/wlan/hostap/wpa_supplicant/libwpa_supplicant.a(sha1.o)
 .debug_loclists
                0x0002600f      0x1cf ..//addon/wlan/hostap/wpa_supplicant/libwpa_supplicant.a(sha256-prf.o)
 .debug_loclists
                0x000261de      0x115 ..//addon/wlan/hostap/wpa_supplicant/libwpa_supplicant.a(sha256.o)
 .debug_loclists
                0x000262f3      0xb33 ..//addon/wlan/hostap/wpa_supplicant/libwpa_supplicant.a(driver_common.o)
 .debug_loclists
                0x00026e26      0x3f6 ..//addon/wlan/hostap/wpa_supplicant/libwpa_supplicant.a(eap_methods.o)
 .debug_loclists
                0x0002721c     0x15a0 ..//addon/wlan/hostap/wpa_supplicant/libwpa_supplicant.a(eapol_supp_sm.o)
 .debug_loclists
                0x000287bc      0x655 ..//addon/wlan/hostap/wpa_supplicant/libwpa_supplicant.a(l2_packet_circle.o)
 .debug_loclists
                0x00028e11     0x1170 ..//addon/wlan/hostap/wpa_supplicant/libwpa_supplicant.a(pmksa_cache.o)
 .debug_loclists
                0x00029f81      0xaec ..//addon/wlan/hostap/wpa_supplicant/libwpa_supplicant.a(preauth.o)
 .debug_loclists
                0x0002aa6d     0x70a0 ..//addon/wlan/hostap/wpa_supplicant/libwpa_supplicant.a(wpa.o)
 .debug_loclists
                0x00031b0d      0x884 ..//addon/wlan/hostap/wpa_supplicant/libwpa_supplicant.a(wpa_ie.o)
 .debug_loclists
                0x00032391     0x265b ..//addon/wlan/hostap/wpa_supplicant/libwpa_supplicant.a(common.o)
 .debug_loclists
                0x000349ec      0x172 ..//addon/wlan/hostap/wpa_supplicant/libwpa_supplicant.a(wpa_debug_circle.o)
 .debug_loclists
                0x00034b5e      0xdbb ..//addon/wlan/hostap/wpa_supplicant/libwpa_supplicant.a(wpabuf.o)
 .debug_loclists
                0x00035919     0x3686 ..//addon/wlan/hostap/wpa_supplicant/libwpa_supplicant.a(bss.o)
 .debug_loclists
                0x00038f9f      0x4c9 ..//addon/wlan/hostap/wpa_supplicant/libwpa_supplicant.a(bssid_ignore.o)
 .debug_loclists
                0x00039468     0x43e8 ..//addon/wlan/hostap/wpa_supplicant/libwpa_supplicant.a(config.o)
 .debug_loclists
                0x0003d850      0xaba ..//addon/wlan/hostap/wpa_supplicant/libwpa_supplicant.a(config_file.o)
 .debug_loclists
                0x0003e30a     0x7c47 ..//addon/wlan/hostap/wpa_supplicant/libwpa_supplicant.a(events.o)
 .debug_loclists
                0x00045f51      0x3da ..//addon/wlan/hostap/wpa_supplicant/libwpa_supplicant.a(notify.o)
 .debug_loclists
                0x0004632b      0xadf ..//addon/wlan/hostap/wpa_supplicant/libwpa_supplicant.a(op_classes.o)
 .debug_loclists
                0x00046e0a     0x3ab3 ..//addon/wlan/hostap/wpa_supplicant/libwpa_supplicant.a(rrm.o)
 .debug_loclists
                0x0004a8bd     0x4a3b ..//addon/wlan/hostap/wpa_supplicant/libwpa_supplicant.a(scan.o)
 .debug_loclists
                0x0004f2f8      0x318 ..//addon/wlan/hostap/wpa_supplicant/libwpa_supplicant.a(aes-internal-enc.o)
 .debug_loclists
                0x0004f610      0x1c0 ..//addon/wlan/hostap/wpa_supplicant/libwpa_supplicant.a(aes-unwrap.o)
 .debug_loclists
                0x0004f7d0      0xb47 ..//addon/wlan/hostap/wpa_supplicant/libwpa_supplicant.a(md5-internal.o)
 .debug_loclists
                0x00050317      0x1f8 ..//addon/wlan/hostap/wpa_supplicant/libwpa_supplicant.a(rc4.o)
 .debug_loclists
                0x0005050f     0x13b3 ..//addon/wlan/hostap/wpa_supplicant/libwpa_supplicant.a(sha1-internal.o)
 .debug_loclists
                0x000518c2      0x4a5 ..//addon/wlan/hostap/wpa_supplicant/libwpa_supplicant.a(sha256-internal.o)
 .debug_loclists
                0x00051d67      0xf46 ..//addon/wlan/hostap/wpa_supplicant/libwpa_supplicant.a(driver_circle.o)
 .debug_loclists
                0x00052cad     0x273a ..//addon/wlan/hostap/wpa_supplicant/libwpa_supplicant.a(eap.o)
 .debug_loclists
                0x000553e7      0x699 ..//addon/wlan/hostap/wpa_supplicant/libwpa_supplicant.a(base64.o)
 .debug_loclists
                0x00055a80      0x101 ..//addon/wlan/hostap/wpa_supplicant/libwpa_supplicant.a(bitfield.o)
 .debug_loclists
                0x00055b81      0x197 ..//addon/wlan/hostap/wpa_supplicant/libwpa_supplicant.a(config.o)
 .debug_loclists
                0x00055d18      0x1ee ..//addon/wlan/hostap/wpa_supplicant/libwpa_supplicant.a(aes-internal.o)
 .debug_loclists
                0x00055f06      0x496 ..//addon/wlan/hostap/wpa_supplicant/libwpa_supplicant.a(aes-internal-dec.o)
 .debug_loclists
                0x0005639c      0x1d8 ..//addon/wlan/hostap/wpa_supplicant/libwpa_supplicant.a(tls_none.o)
 .debug_loclists
                0x00056574      0x87c ..//addon/wlan/hostap/wpa_supplicant/libwpa_supplicant.a(eap_common.o)
 .debug_loclists
                0x00056df0      0xc31 ..//addon/wlan/libwlan.a(bcm4343.o)
 .debug_loclists
                0x00057a21     0x46dc ..//addon/wlan/libwlan.a(ether4330.o)
 .debug_loclists
                0x0005c0fd      0xa0c ..//addon/wlan/libwlan.a(emmc.o)
 .debug_loclists
                0x0005cb09      0x5e7 ..//addon/wlan/libwlan.a(p9arch.o)
 .debug_loclists
                0x0005d0f0      0x20a ..//addon/wlan/libwlan.a(p9chan.o)
 .debug_loclists
                0x0005d2fa      0x1c0 ..//addon/wlan/libwlan.a(p9cmd.o)
 .debug_loclists
                0x0005d4ba       0x74 ..//addon/wlan/libwlan.a(p9error.o)
 .debug_loclists
                0x0005d52e      0x383 ..//addon/wlan/libwlan.a(p9ether.o)
 .debug_loclists
                0x0005d8b1      0x334 ..//addon/wlan/libwlan.a(p9proc.o)
 .debug_loclists
                0x0005dbe5      0x2ef ..//addon/wlan/libwlan.a(p9util.o)
 .debug_loclists
                0x0005ded4      0x5a3 ..//lib/usb/libusb.a(usbkeyboard.o)
 .debug_loclists
                0x0005e477     0x1f83 ..//lib/usb/libusb.a(dwhcidevice.o)
 .debug_loclists
                0x000603fa      0x473 ..//lib/usb/libusb.a(dwhciframeschednper.o)
 .debug_loclists
                0x0006086d      0x31b ..//lib/usb/libusb.a(dwhciframeschednsplit.o)
 .debug_loclists
                0x00060b88      0x42c ..//lib/usb/libusb.a(dwhciframeschedper.o)
 .debug_loclists
                0x00060fb4      0x1e0 ..//lib/usb/libusb.a(dwhcirootport.o)
 .debug_loclists
                0x00061194      0xa23 ..//lib/usb/libusb.a(dwhcixactqueue.o)
 .debug_loclists
                0x00061bb7      0xa7c ..//lib/usb/libusb.a(dwhcixferstagedata.o)
 .debug_loclists
                0x00062633      0x4f9 ..//lib/usb/libusb.a(dwhciframeschediso.o)
 .debug_loclists
                0x00062b2c      0xb77 ..//lib/usb/libusb.a(usbdevice.o)
 .debug_loclists
                0x000636a3      0x630 ..//lib/usb/libusb.a(usbdevicefactory.o)
 .debug_loclists
                0x00063cd3      0x596 ..//lib/usb/libusb.a(usbendpoint.o)
 .debug_loclists
                0x00064269      0x583 ..//lib/usb/libusb.a(usbfunction.o)
 .debug_loclists
                0x000647ec      0x402 ..//lib/usb/libusb.a(usbgamepadps3.o)
 .debug_loclists
                0x00064bee      0x62f ..//lib/usb/libusb.a(usbgamepadps4.o)
 .debug_loclists
                0x0006521d      0xe77 ..//lib/usb/libusb.a(usbgamepadstandard.o)
 .debug_loclists
                0x00066094      0x299 ..//lib/usb/libusb.a(usbgamepadswitchpro.o)
 .debug_loclists
                0x0006632d      0x451 ..//lib/usb/libusb.a(usbgamepadxbox360.o)
 .debug_loclists
                0x0006677e      0x293 ..//lib/usb/libusb.a(usbgamepadxboxone.o)
 .debug_loclists
                0x00066a11      0x819 ..//lib/usb/libusb.a(usbhiddevice.o)
 .debug_loclists
                0x0006722a      0x7db ..//lib/usb/libusb.a(usbhostcontroller.o)
 .debug_loclists
                0x00067a05      0x8af ..//lib/usb/libusb.a(usbmassdevice.o)
 .debug_loclists
                0x000682b4      0x8f3 ..//lib/usb/libusb.a(usbmidihost.o)
 .debug_loclists
                0x00068ba7      0xf60 ..//lib/usb/libusb.a(usbmouse.o)
 .debug_loclists
                0x00069b07      0x191 ..//lib/usb/libusb.a(usbprinter.o)
 .debug_loclists
                0x00069c98      0x5e5 ..//lib/usb/libusb.a(usbrequest.o)
 .debug_loclists
                0x0006a27d      0x7c4 ..//lib/usb/libusb.a(usbstandardhub.o)
 .debug_loclists
                0x0006aa41      0x292 ..//lib/usb/libusb.a(usbstring.o)
 .debug_loclists
                0x0006acd3      0x27d ..//lib/usb/libusb.a(usbserialch341.o)
 .debug_loclists
                0x0006af50      0x346 ..//lib/usb/libusb.a(usbserialcp210x.o)
 .debug_loclists
                0x0006b296      0x249 ..//lib/usb/libusb.a(usbserialpl2303.o)
 .debug_loclists
                0x0006b4df      0x296 ..//lib/usb/libusb.a(usbserialft231x.o)
 .debug_loclists
                0x0006b775      0x182 ..//lib/usb/libusb.a(usbserialcdc.o)
 .debug_loclists
                0x0006b8f7      0xbbc ..//lib/usb/libusb.a(usbtouchscreen.o)
 .debug_loclists
                0x0006c4b3      0x259 ..//lib/usb/libusb.a(dwhciregister.o)
 .debug_loclists
                0x0006c70c      0xbdc ..//lib/usb/libusb.a(lan7800.o)
 .debug_loclists
                0x0006d2e8      0xe08 ..//lib/usb/libusb.a(smsc951x.o)
 .debug_loclists
                0x0006e0f0      0x422 ..//lib/usb/libusb.a(usbbluetooth.o)
 .debug_loclists
                0x0006e512      0x65f ..//lib/usb/libusb.a(usbcdcethernet.o)
 .debug_loclists
                0x0006eb71      0x7a1 ..//lib/usb/libusb.a(usbfloppydevice.o)
 .debug_loclists
                0x0006f312      0x54d ..//lib/usb/libusb.a(usbconfigparser.o)
 .debug_loclists
                0x0006f85f      0x2bc ..//lib/usb/libusb.a(usbgamepad.o)
 .debug_loclists
                0x0006fb1b      0xe0c ..//lib/usb/libusb.a(usbmidi.o)
 .debug_loclists
                0x00070927      0xc1c ..//lib/usb/libusb.a(usbserialhost.o)
 .debug_loclists
                0x00071543      0x90d ..//lib/usb/libusb.a(usbserial.o)
 .debug_loclists
                0x00071e50     0x7219 ..//addon/fatfs/libfatfs.a(ff.o)
 .debug_loclists
                0x00079069      0x43b ..//addon/fatfs/libfatfs.a(diskio.o)
 .debug_loclists
                0x000794a4      0x38b ..//addon/fatfs/libfatfs.a(ffsystem.o)
 .debug_loclists
                0x0007982f      0x38c ..//addon/fatfs/libfatfs.a(ffunicode.o)
 .debug_loclists
                0x00079bbb     0x1412 ..//addon/SDCard/libsdcard.a(emmc.o)
 .debug_loclists
                0x0007afcd      0x4a6 ..//addon/SDCard/libsdcard.a(mmchost.o)
 .debug_loclists
                0x0007b473     0x2685 ..//addon/SDCard/libsdcard.a(sdhost.o)
 .debug_loclists
                0x0007daf8      0x5b6 ..//lib/input/libinput.a(keyboardbehaviour.o)
 .debug_loclists
                0x0007e0ae      0x4f5 ..//lib/input/libinput.a(keymap.o)
 .debug_loclists
                0x0007e5a3      0x568 ..//lib/input/libinput.a(mouse.o)
 .debug_loclists
                0x0007eb0b      0x3dc ..//lib/input/libinput.a(touchscreen.o)
 .debug_loclists
                0x0007eee7      0x81f ..//lib/input/libinput.a(mousebehaviour.o)
 .debug_loclists
                0x0007f706      0x10d ..//lib/fs/libfs.a(partitionmanager.o)
 .debug_loclists
                0x0007f813      0x26c ..//lib/fs/libfs.a(partition.o)
 .debug_loclists
                0x0007fa7f      0x175 ..//lib/net/libnet.a(netsubsystem.o)
 .debug_loclists
                0x0007fbf4       0x6f ..//lib/net/libnet.a(nettask.o)
 .debug_loclists
                0x0007fc63      0xa3a ..//lib/net/libnet.a(socket.o)
 .debug_loclists
                0x0008069d     0x108b ..//lib/net/libnet.a(transportlayer.o)
 .debug_loclists
                0x00081728      0xbf1 ..//lib/net/libnet.a(networklayer.o)
 .debug_loclists
                0x00082319      0x9f8 ..//lib/net/libnet.a(linklayer.o)
 .debug_loclists
                0x00082d11      0x364 ..//lib/net/libnet.a(netdevlayer.o)
 .debug_loclists
                0x00083075       0xac ..//lib/net/libnet.a(phytask.o)
 .debug_loclists
                0x00083121      0xc6f ..//lib/net/libnet.a(arphandler.o)
 .debug_loclists
                0x00083d90      0x764 ..//lib/net/libnet.a(icmphandler.o)
 .debug_loclists
                0x000844f4      0x3c9 ..//lib/net/libnet.a(igmphandler.o)
 .debug_loclists
                0x000848bd      0x26d ..//lib/net/libnet.a(routecache.o)
 .debug_loclists
                0x00084b2a      0x18c ..//lib/net/libnet.a(netconnection.o)
 .debug_loclists
                0x00084cb6      0xb46 ..//lib/net/libnet.a(udpconnection.o)
 .debug_loclists
                0x000857fc     0x1963 ..//lib/net/libnet.a(tcpconnection.o)
 .debug_loclists
                0x0008715f      0x46c ..//lib/net/libnet.a(retransmissionqueue.o)
 .debug_loclists
                0x000875cb      0x39c ..//lib/net/libnet.a(retranstimeoutcalc.o)
 .debug_loclists
                0x00087967      0x542 ..//lib/net/libnet.a(tcprejector.o)
 .debug_loclists
                0x00087ea9      0x314 ..//lib/net/libnet.a(netconfig.o)
 .debug_loclists
                0x000881bd      0x9ff ..//lib/net/libnet.a(ipaddress.o)
 .debug_loclists
                0x00088bbc      0x30d ..//lib/net/libnet.a(netqueue.o)
 .debug_loclists
                0x00088ec9      0x6b2 ..//lib/net/libnet.a(checksumcalculator.o)
 .debug_loclists
                0x0008957b      0xd3f ..//lib/net/libnet.a(dhcpclient.o)
 .debug_loclists
                0x0008a2ba      0x6e7 ..//lib/net/libnet.a(mdnsdaemon.o)
 .debug_loclists
                0x0008a9a1      0x2e7 ..//lib/net/libnet.a(netsocket.o)
 .debug_loclists
                0x0008ac88      0x5f5 ..//lib/net/libnet.a(dnsclient.o)
 .debug_loclists
                0x0008b27d      0x2c3 ..//lib/sched/libsched.a(task.o)
 .debug_loclists
                0x0008b540      0xdd1 ..//lib/sched/libsched.a(scheduler.o)
 .debug_loclists
                0x0008c311      0x158 ..//lib/sched/libsched.a(synchronizationevent.o)
 .debug_loclists
                0x0008c469      0x189 ..//lib/libcircle.a(actled.o)
 .debug_loclists
                0x0008c5f2      0x2b0 ..//lib/libcircle.a(alloc.o)
 .debug_loclists
                0x0008c8a2       0x55 ..//lib/libcircle.a(assert.o)
 .debug_loclists
                0x0008c8f7      0x532 ..//lib/libcircle.a(display.o)
 .debug_loclists
                0x0008ce29      0x7e2 ..//lib/libcircle.a(bcmframebuffer.o)
 .debug_loclists
                0x0008d60b      0x2bd ..//lib/libcircle.a(bcmpropertytags.o)
 .debug_loclists
                0x0008d8c8      0x19e ..//lib/libcircle.a(chargenerator.o)
 .debug_loclists
                0x0008da66      0x5ab ..//lib/libcircle.a(classallocator.o)
 .debug_loclists
                0x0008e011      0x13c ..//lib/libcircle.a(debug.o)
 .debug_loclists
                0x0008e14d      0x2d0 ..//lib/libcircle.a(device.o)
 .debug_loclists
                0x0008e41d      0x7c4 ..//lib/libcircle.a(devicenameservice.o)
 .debug_loclists
                0x0008ebe1     0x146a ..//lib/libcircle.a(dmachannel.o)
 .debug_loclists
                0x0009004b      0x5ed ..//lib/libcircle.a(koptions.o)
 .debug_loclists
                0x00090638      0x77c ..//lib/libcircle.a(logger.o)
 .debug_loclists
                0x00090db4      0x4c7 ..//lib/libcircle.a(machineinfo.o)
 .debug_loclists
                0x0009127b       0x79 ..//lib/libcircle.a(nulldevice.o)
 .debug_loclists
                0x000912f4      0x404 ..//lib/libcircle.a(ptrarray.o)
 .debug_loclists
                0x000916f8      0x373 ..//lib/libcircle.a(ptrlist.o)
 .debug_loclists
                0x00091a6b      0x5a7 ..//lib/libcircle.a(screen.o)
 .debug_loclists
                0x00092012     0x13bf ..//lib/libcircle.a(serial.o)
 .debug_loclists
                0x000933d1     0x2397 ..//lib/libcircle.a(string.o)
 .debug_loclists
                0x00095768       0xb1 ..//lib/libcircle.a(sysinit.o)
 .debug_loclists
                0x00095819     0x1034 ..//lib/libcircle.a(timer.o)
 .debug_loclists
                0x0009684d     0x1231 ..//lib/libcircle.a(util.o)
 .debug_loclists
                0x00097a7e      0x292 ..//lib/libcircle.a(virtualgpiopin.o)
 .debug_loclists
                0x00097d10      0x10e ..//lib/libcircle.a(chainboot.o)
 .debug_loclists
                0x00097e1e      0x743 ..//lib/libcircle.a(macaddress.o)
 .debug_loclists
                0x00098561       0xab ..//lib/libcircle.a(netdevice.o)
 .debug_loclists
                0x0009860c      0x1ed ..//lib/libcircle.a(new.o)
 .debug_loclists
                0x000987f9      0x467 ..//lib/libcircle.a(heapallocator.o)
 .debug_loclists
                0x00098c60      0x1c7 ..//lib/libcircle.a(pageallocator.o)
 .debug_loclists
                0x00098e27      0x247 ..//lib/libcircle.a(numberpool.o)
 .debug_loclists
                0x0009906e      0x85c ..//lib/libcircle.a(ptrlistfiq.o)
 .debug_loclists
                0x000998ca      0x284 ..//lib/libcircle.a(exceptionhandler.o)
 .debug_loclists
                0x00099b4e      0x1da ..//lib/libcircle.a(memory.o)
 .debug_loclists
                0x00099d28       0x59 ..//lib/libcircle.a(pagetable.o)
 .debug_loclists
                0x00099d81       0xf0 ..//lib/libcircle.a(synchronize.o)
 .debug_loclists
                0x00099e71      0x14e ..//lib/libcircle.a(bcmrandom.o)
 .debug_loclists
                0x00099fbf      0x972 ..//lib/libcircle.a(interrupt.o)
 .debug_loclists
                0x0009a931     0x1519 ..//lib/libcircle.a(gpiopin.o)
 .debug_loclists
                0x0009be4a      0x31d ..//lib/libcircle.a(usertimer.o)
 .debug_loclists
                0x0009c167       0x50 ..//lib/libcircle.a(cxa_guard.o)
 .debug_loclists
                0x0009c1b7      0x2b7 ..//lib/libcircle.a(bcmmailbox.o)
 .debug_loclists
                0x0009c46e     0x2426 ..//lib/libcircle.a(terminal.o)
 .debug_loclists
                0x0009e894      0x453 ..//lib/libcircle.a(gpiomanager.o)

.debug_aranges  0x00000000     0x1d88
 .debug_aranges
                0x00000000       0x20 ..//VT100/build/main.o
 .debug_aranges
                0x00000020       0x38 ..//VT100/build/kernel.o
 .debug_aranges
                0x00000058       0x20 ..//VT100/build/hal.o
 .debug_aranges
                0x00000078       0x20 ..//VT100/build/TFontConverter.o
 .debug_aranges
                0x00000098       0x20 ..//VT100/build/VT100_FontConverter.o
 .debug_aranges
                0x000000b8       0x20 ..//VT100/build/TRenderer.o
 .debug_aranges
                0x000000d8       0x20 ..//VT100/build/TConfig.o
 .debug_aranges
                0x000000f8       0x20 ..//VT100/build/TKeyboard.o
 .debug_aranges
                0x00000118       0x30 ..//VT100/build/TUART.o
 .debug_aranges
                0x00000148       0x20 ..//VT100/build/TFileLog.o
 .debug_aranges
                0x00000168       0x20 ..//VT100/build/TWlanLog.o
 .debug_aranges
                0x00000188       0x30 ..//VT100/build/TSetup.o
 .debug_aranges
                0x000001b8       0x20 ..//VT100/build/VTTest.o
 .debug_aranges
                0x000001d8       0x20 ..//addon/wlan/hostap/wpa_supplicant/libwpa_supplicant.a(wpasupplicant.o)
 .debug_aranges
                0x000001f8       0x20 ..//addon/wlan/hostap/wpa_supplicant/libwpa_supplicant.a(eloop_circle.o)
 .debug_aranges
                0x00000218       0x20 ..//addon/wlan/hostap/wpa_supplicant/libwpa_supplicant.a(os_circle.o)
 .debug_aranges
                0x00000238       0x20 ..//addon/wlan/hostap/wpa_supplicant/libwpa_supplicant.a(main_circle.o)
 .debug_aranges
                0x00000258       0x20 ..//addon/wlan/hostap/wpa_supplicant/libwpa_supplicant.a(wpa_supplicant.o)
 .debug_aranges
                0x00000278       0x20 ..//addon/wlan/hostap/wpa_supplicant/libwpa_supplicant.a(wpas_glue.o)
 .debug_aranges
                0x00000298       0x20 ..//addon/wlan/hostap/wpa_supplicant/libwpa_supplicant.a(hw_features_common.o)
 .debug_aranges
                0x000002b8       0x20 ..//addon/wlan/hostap/wpa_supplicant/libwpa_supplicant.a(ieee802_11_common.o)
 .debug_aranges
                0x000002d8       0x20 ..//addon/wlan/hostap/wpa_supplicant/libwpa_supplicant.a(ptksa_cache.o)
 .debug_aranges
                0x000002f8       0x20 ..//addon/wlan/hostap/wpa_supplicant/libwpa_supplicant.a(wpa_common.o)
 .debug_aranges
                0x00000318       0x20 ..//addon/wlan/hostap/wpa_supplicant/libwpa_supplicant.a(aes-omac1.o)
 .debug_aranges
                0x00000338       0x20 ..//addon/wlan/hostap/wpa_supplicant/libwpa_supplicant.a(md5.o)
 .debug_aranges
                0x00000358       0x20 ..//addon/wlan/hostap/wpa_supplicant/libwpa_supplicant.a(sha1-pbkdf2.o)
 .debug_aranges
                0x00000378       0x20 ..//addon/wlan/hostap/wpa_supplicant/libwpa_supplicant.a(sha1-prf.o)
 .debug_aranges
                0x00000398       0x20 ..//addon/wlan/hostap/wpa_supplicant/libwpa_supplicant.a(sha1.o)
 .debug_aranges
                0x000003b8       0x20 ..//addon/wlan/hostap/wpa_supplicant/libwpa_supplicant.a(sha256-prf.o)
 .debug_aranges
                0x000003d8       0x20 ..//addon/wlan/hostap/wpa_supplicant/libwpa_supplicant.a(sha256.o)
 .debug_aranges
                0x000003f8       0x20 ..//addon/wlan/hostap/wpa_supplicant/libwpa_supplicant.a(driver_common.o)
 .debug_aranges
                0x00000418       0x18 ..//addon/wlan/hostap/wpa_supplicant/libwpa_supplicant.a(drivers.o)
 .debug_aranges
                0x00000430       0x20 ..//addon/wlan/hostap/wpa_supplicant/libwpa_supplicant.a(eap_methods.o)
 .debug_aranges
                0x00000450       0x20 ..//addon/wlan/hostap/wpa_supplicant/libwpa_supplicant.a(eapol_supp_sm.o)
 .debug_aranges
                0x00000470       0x20 ..//addon/wlan/hostap/wpa_supplicant/libwpa_supplicant.a(l2_packet_circle.o)
 .debug_aranges
                0x00000490       0x20 ..//addon/wlan/hostap/wpa_supplicant/libwpa_supplicant.a(pmksa_cache.o)
 .debug_aranges
                0x000004b0       0x20 ..//addon/wlan/hostap/wpa_supplicant/libwpa_supplicant.a(preauth.o)
 .debug_aranges
                0x000004d0       0x20 ..//addon/wlan/hostap/wpa_supplicant/libwpa_supplicant.a(wpa.o)
 .debug_aranges
                0x000004f0       0x20 ..//addon/wlan/hostap/wpa_supplicant/libwpa_supplicant.a(wpa_ie.o)
 .debug_aranges
                0x00000510       0x20 ..//addon/wlan/hostap/wpa_supplicant/libwpa_supplicant.a(common.o)
 .debug_aranges
                0x00000530       0x20 ..//addon/wlan/hostap/wpa_supplicant/libwpa_supplicant.a(wpa_debug_circle.o)
 .debug_aranges
                0x00000550       0x20 ..//addon/wlan/hostap/wpa_supplicant/libwpa_supplicant.a(wpabuf.o)
 .debug_aranges
                0x00000570       0x20 ..//addon/wlan/hostap/wpa_supplicant/libwpa_supplicant.a(bss.o)
 .debug_aranges
                0x00000590       0x20 ..//addon/wlan/hostap/wpa_supplicant/libwpa_supplicant.a(bssid_ignore.o)
 .debug_aranges
                0x000005b0       0x20 ..//addon/wlan/hostap/wpa_supplicant/libwpa_supplicant.a(config.o)
 .debug_aranges
                0x000005d0       0x20 ..//addon/wlan/hostap/wpa_supplicant/libwpa_supplicant.a(config_file.o)
 .debug_aranges
                0x000005f0       0x20 ..//addon/wlan/hostap/wpa_supplicant/libwpa_supplicant.a(eap_register.o)
 .debug_aranges
                0x00000610       0x20 ..//addon/wlan/hostap/wpa_supplicant/libwpa_supplicant.a(events.o)
 .debug_aranges
                0x00000630       0x20 ..//addon/wlan/hostap/wpa_supplicant/libwpa_supplicant.a(notify.o)
 .debug_aranges
                0x00000650       0x20 ..//addon/wlan/hostap/wpa_supplicant/libwpa_supplicant.a(op_classes.o)
 .debug_aranges
                0x00000670       0x20 ..//addon/wlan/hostap/wpa_supplicant/libwpa_supplicant.a(rrm.o)
 .debug_aranges
                0x00000690       0x20 ..//addon/wlan/hostap/wpa_supplicant/libwpa_supplicant.a(scan.o)
 .debug_aranges
                0x000006b0       0x20 ..//addon/wlan/hostap/wpa_supplicant/libwpa_supplicant.a(aes-internal-enc.o)
 .debug_aranges
                0x000006d0       0x20 ..//addon/wlan/hostap/wpa_supplicant/libwpa_supplicant.a(aes-unwrap.o)
 .debug_aranges
                0x000006f0       0x20 ..//addon/wlan/hostap/wpa_supplicant/libwpa_supplicant.a(md5-internal.o)
 .debug_aranges
                0x00000710       0x20 ..//addon/wlan/hostap/wpa_supplicant/libwpa_supplicant.a(rc4.o)
 .debug_aranges
                0x00000730       0x20 ..//addon/wlan/hostap/wpa_supplicant/libwpa_supplicant.a(sha1-internal.o)
 .debug_aranges
                0x00000750       0x20 ..//addon/wlan/hostap/wpa_supplicant/libwpa_supplicant.a(sha256-internal.o)
 .debug_aranges
                0x00000770       0x20 ..//addon/wlan/hostap/wpa_supplicant/libwpa_supplicant.a(driver_circle.o)
 .debug_aranges
                0x00000790       0x20 ..//addon/wlan/hostap/wpa_supplicant/libwpa_supplicant.a(eap.o)
 .debug_aranges
                0x000007b0       0x20 ..//addon/wlan/hostap/wpa_supplicant/libwpa_supplicant.a(base64.o)
 .debug_aranges
                0x000007d0       0x20 ..//addon/wlan/hostap/wpa_supplicant/libwpa_supplicant.a(bitfield.o)
 .debug_aranges
                0x000007f0       0x20 ..//addon/wlan/hostap/wpa_supplicant/libwpa_supplicant.a(config.o)
 .debug_aranges
                0x00000810       0x20 ..//addon/wlan/hostap/wpa_supplicant/libwpa_supplicant.a(aes-internal.o)
 .debug_aranges
                0x00000830       0x20 ..//addon/wlan/hostap/wpa_supplicant/libwpa_supplicant.a(aes-internal-dec.o)
 .debug_aranges
                0x00000850       0x20 ..//addon/wlan/hostap/wpa_supplicant/libwpa_supplicant.a(tls_none.o)
 .debug_aranges
                0x00000870       0x20 ..//addon/wlan/hostap/wpa_supplicant/libwpa_supplicant.a(eap_common.o)
 .debug_aranges
                0x00000890       0x40 ..//addon/wlan/libwlan.a(bcm4343.o)
 .debug_aranges
                0x000008d0       0x20 ..//addon/wlan/libwlan.a(ether4330.o)
 .debug_aranges
                0x000008f0       0x20 ..//addon/wlan/libwlan.a(emmc.o)
 .debug_aranges
                0x00000910       0x20 ..//addon/wlan/libwlan.a(p9arch.o)
 .debug_aranges
                0x00000930       0x20 ..//addon/wlan/libwlan.a(p9chan.o)
 .debug_aranges
                0x00000950       0x20 ..//addon/wlan/libwlan.a(p9cmd.o)
 .debug_aranges
                0x00000970       0x20 ..//addon/wlan/libwlan.a(p9error.o)
 .debug_aranges
                0x00000990       0x20 ..//addon/wlan/libwlan.a(p9ether.o)
 .debug_aranges
                0x000009b0       0x38 ..//addon/wlan/libwlan.a(p9proc.o)
 .debug_aranges
                0x000009e8       0x20 ..//addon/wlan/libwlan.a(p9util.o)
 .debug_aranges
                0x00000a08       0x28 ..//lib/usb/libusb.a(usbkeyboard.o)
 .debug_aranges
                0x00000a30       0x20 ..//lib/usb/libusb.a(dwhcidevice.o)
 .debug_aranges
                0x00000a50       0x20 ..//lib/usb/libusb.a(dwhciframeschednper.o)
 .debug_aranges
                0x00000a70       0x20 ..//lib/usb/libusb.a(dwhciframeschednsplit.o)
 .debug_aranges
                0x00000a90       0x20 ..//lib/usb/libusb.a(dwhciframeschedper.o)
 .debug_aranges
                0x00000ab0       0x20 ..//lib/usb/libusb.a(dwhcirootport.o)
 .debug_aranges
                0x00000ad0       0x20 ..//lib/usb/libusb.a(dwhcixactqueue.o)
 .debug_aranges
                0x00000af0       0x20 ..//lib/usb/libusb.a(dwhcixferstagedata.o)
 .debug_aranges
                0x00000b10       0x20 ..//lib/usb/libusb.a(dwhciframeschediso.o)
 .debug_aranges
                0x00000b30       0x30 ..//lib/usb/libusb.a(usbdevice.o)
 .debug_aranges
                0x00000b60       0x20 ..//lib/usb/libusb.a(usbdevicefactory.o)
 .debug_aranges
                0x00000b80       0x20 ..//lib/usb/libusb.a(usbendpoint.o)
 .debug_aranges
                0x00000ba0       0x20 ..//lib/usb/libusb.a(usbfunction.o)
 .debug_aranges
                0x00000bc0       0x30 ..//lib/usb/libusb.a(usbgamepadps3.o)
 .debug_aranges
                0x00000bf0       0x28 ..//lib/usb/libusb.a(usbgamepadps4.o)
 .debug_aranges
                0x00000c18       0x40 ..//lib/usb/libusb.a(usbgamepadstandard.o)
 .debug_aranges
                0x00000c58       0x30 ..//lib/usb/libusb.a(usbgamepadswitchpro.o)
 .debug_aranges
                0x00000c88       0x30 ..//lib/usb/libusb.a(usbgamepadxbox360.o)
 .debug_aranges
                0x00000cb8       0x38 ..//lib/usb/libusb.a(usbgamepadxboxone.o)
 .debug_aranges
                0x00000cf0       0x20 ..//lib/usb/libusb.a(usbhiddevice.o)
 .debug_aranges
                0x00000d10       0x28 ..//lib/usb/libusb.a(usbhostcontroller.o)
 .debug_aranges
                0x00000d38       0x28 ..//lib/usb/libusb.a(usbmassdevice.o)
 .debug_aranges
                0x00000d60       0x20 ..//lib/usb/libusb.a(usbmidihost.o)
 .debug_aranges
                0x00000d80       0x20 ..//lib/usb/libusb.a(usbmouse.o)
 .debug_aranges
                0x00000da0       0x28 ..//lib/usb/libusb.a(usbprinter.o)
 .debug_aranges
                0x00000dc8       0x20 ..//lib/usb/libusb.a(usbrequest.o)
 .debug_aranges
                0x00000de8       0x28 ..//lib/usb/libusb.a(usbstandardhub.o)
 .debug_aranges
                0x00000e10       0x20 ..//lib/usb/libusb.a(usbstring.o)
 .debug_aranges
                0x00000e30       0x20 ..//lib/usb/libusb.a(usbserialch341.o)
 .debug_aranges
                0x00000e50       0x20 ..//lib/usb/libusb.a(usbserialcp210x.o)
 .debug_aranges
                0x00000e70       0x20 ..//lib/usb/libusb.a(usbserialpl2303.o)
 .debug_aranges
                0x00000e90       0x20 ..//lib/usb/libusb.a(usbserialft231x.o)
 .debug_aranges
                0x00000eb0       0x20 ..//lib/usb/libusb.a(usbserialcdc.o)
 .debug_aranges
                0x00000ed0       0x20 ..//lib/usb/libusb.a(usbtouchscreen.o)
 .debug_aranges
                0x00000ef0       0x20 ..//lib/usb/libusb.a(dwhciregister.o)
 .debug_aranges
                0x00000f10       0x38 ..//lib/usb/libusb.a(lan7800.o)
 .debug_aranges
                0x00000f48       0x38 ..//lib/usb/libusb.a(smsc951x.o)
 .debug_aranges
                0x00000f80       0x28 ..//lib/usb/libusb.a(usbbluetooth.o)
 .debug_aranges
                0x00000fa8       0x48 ..//lib/usb/libusb.a(usbcdcethernet.o)
 .debug_aranges
                0x00000ff0       0x28 ..//lib/usb/libusb.a(usbfloppydevice.o)
 .debug_aranges
                0x00001018       0x20 ..//lib/usb/libusb.a(usbconfigparser.o)
 .debug_aranges
                0x00001038       0x48 ..//lib/usb/libusb.a(usbgamepad.o)
 .debug_aranges
                0x00001080       0x28 ..//lib/usb/libusb.a(usbmidi.o)
 .debug_aranges
                0x000010a8       0x20 ..//lib/usb/libusb.a(usbserialhost.o)
 .debug_aranges
                0x000010c8       0x28 ..//lib/usb/libusb.a(usbserial.o)
 .debug_aranges
                0x000010f0       0x20 ..//addon/fatfs/libfatfs.a(ff.o)
 .debug_aranges
                0x00001110       0x20 ..//addon/fatfs/libfatfs.a(diskio.o)
 .debug_aranges
                0x00001130       0x20 ..//addon/fatfs/libfatfs.a(ffsystem.o)
 .debug_aranges
                0x00001150       0x20 ..//addon/fatfs/libfatfs.a(ffunicode.o)
 .debug_aranges
                0x00001170       0x20 ..//addon/SDCard/libsdcard.a(emmc.o)
 .debug_aranges
                0x00001190       0x20 ..//addon/SDCard/libsdcard.a(mmchost.o)
 .debug_aranges
                0x000011b0       0x20 ..//addon/SDCard/libsdcard.a(sdhost.o)
 .debug_aranges
                0x000011d0       0x20 ..//lib/input/libinput.a(keyboardbehaviour.o)
 .debug_aranges
                0x000011f0       0x20 ..//lib/input/libinput.a(keymap.o)
 .debug_aranges
                0x00001210       0x28 ..//lib/input/libinput.a(mouse.o)
 .debug_aranges
                0x00001238       0x28 ..//lib/input/libinput.a(touchscreen.o)
 .debug_aranges
                0x00001260       0x20 ..//lib/input/libinput.a(mousebehaviour.o)
 .debug_aranges
                0x00001280       0x20 ..//lib/fs/libfs.a(partitionmanager.o)
 .debug_aranges
                0x000012a0       0x20 ..//lib/fs/libfs.a(partition.o)
 .debug_aranges
                0x000012c0       0x20 ..//lib/net/libnet.a(netsubsystem.o)
 .debug_aranges
                0x000012e0       0x20 ..//lib/net/libnet.a(nettask.o)
 .debug_aranges
                0x00001300       0x20 ..//lib/net/libnet.a(socket.o)
 .debug_aranges
                0x00001320       0x90 ..//lib/net/libnet.a(transportlayer.o)
 .debug_aranges
                0x000013b0       0x20 ..//lib/net/libnet.a(networklayer.o)
 .debug_aranges
                0x000013d0       0x20 ..//lib/net/libnet.a(linklayer.o)
 .debug_aranges
                0x000013f0       0x40 ..//lib/net/libnet.a(netdevlayer.o)
 .debug_aranges
                0x00001430       0x28 ..//lib/net/libnet.a(phytask.o)
 .debug_aranges
                0x00001458       0x20 ..//lib/net/libnet.a(arphandler.o)
 .debug_aranges
                0x00001478       0x20 ..//lib/net/libnet.a(icmphandler.o)
 .debug_aranges
                0x00001498       0x20 ..//lib/net/libnet.a(igmphandler.o)
 .debug_aranges
                0x000014b8       0x20 ..//lib/net/libnet.a(routecache.o)
 .debug_aranges
                0x000014d8       0x20 ..//lib/net/libnet.a(netconnection.o)
 .debug_aranges
                0x000014f8       0x20 ..//lib/net/libnet.a(udpconnection.o)
 .debug_aranges
                0x00001518       0x20 ..//lib/net/libnet.a(tcpconnection.o)
 .debug_aranges
                0x00001538       0x20 ..//lib/net/libnet.a(retransmissionqueue.o)
 .debug_aranges
                0x00001558       0x20 ..//lib/net/libnet.a(retranstimeoutcalc.o)
 .debug_aranges
                0x00001578       0x90 ..//lib/net/libnet.a(tcprejector.o)
 .debug_aranges
                0x00001608       0x20 ..//lib/net/libnet.a(netconfig.o)
 .debug_aranges
                0x00001628       0x20 ..//lib/net/libnet.a(ipaddress.o)
 .debug_aranges
                0x00001648       0x20 ..//lib/net/libnet.a(netqueue.o)
 .debug_aranges
                0x00001668       0x20 ..//lib/net/libnet.a(checksumcalculator.o)
 .debug_aranges
                0x00001688       0x20 ..//lib/net/libnet.a(dhcpclient.o)
 .debug_aranges
                0x000016a8       0x20 ..//lib/net/libnet.a(mdnsdaemon.o)
 .debug_aranges
                0x000016c8       0x60 ..//lib/net/libnet.a(netsocket.o)
 .debug_aranges
                0x00001728       0x20 ..//lib/net/libnet.a(dnsclient.o)
 .debug_aranges
                0x00001748       0x20 ..//lib/sched/libsched.a(task.o)
 .debug_aranges
                0x00001768       0x20 ..//lib/sched/libsched.a(scheduler.o)
 .debug_aranges
                0x00001788       0x20 ..//lib/sched/libsched.a(synchronizationevent.o)
 .debug_aranges
                0x000017a8       0x20 ..//lib/libcircle.a(actled.o)
 .debug_aranges
                0x000017c8       0x20 ..//lib/libcircle.a(alloc.o)
 .debug_aranges
                0x000017e8       0x20 ..//lib/libcircle.a(assert.o)
 .debug_aranges
                0x00001808       0x20 ..//lib/libcircle.a(display.o)
 .debug_aranges
                0x00001828       0x20 ..//lib/libcircle.a(bcmframebuffer.o)
 .debug_aranges
                0x00001848       0x20 ..//lib/libcircle.a(bcmpropertytags.o)
 .debug_aranges
                0x00001868       0x20 ..//lib/libcircle.a(chargenerator.o)
 .debug_aranges
                0x00001888       0x20 ..//lib/libcircle.a(classallocator.o)
 .debug_aranges
                0x000018a8       0x20 ..//lib/libcircle.a(debug.o)
 .debug_aranges
                0x000018c8       0x20 ..//lib/libcircle.a(device.o)
 .debug_aranges
                0x000018e8       0x20 ..//lib/libcircle.a(devicenameservice.o)
 .debug_aranges
                0x00001908       0x20 ..//lib/libcircle.a(dmachannel.o)
 .debug_aranges
                0x00001928       0x20 ..//lib/libcircle.a(koptions.o)
 .debug_aranges
                0x00001948       0x20 ..//lib/libcircle.a(logger.o)
 .debug_aranges
                0x00001968       0x20 ..//lib/libcircle.a(machineinfo.o)
 .debug_aranges
                0x00001988       0x20 ..//lib/libcircle.a(nulldevice.o)
 .debug_aranges
                0x000019a8       0x20 ..//lib/libcircle.a(ptrarray.o)
 .debug_aranges
                0x000019c8       0x20 ..//lib/libcircle.a(ptrlist.o)
 .debug_aranges
                0x000019e8       0x20 ..//lib/libcircle.a(screen.o)
 .debug_aranges
                0x00001a08       0x20 ..//lib/libcircle.a(serial.o)
 .debug_aranges
                0x00001a28       0x20 ..//lib/libcircle.a(string.o)
 .debug_aranges
                0x00001a48       0x20 ..//lib/libcircle.a(sysinit.o)
 .debug_aranges
                0x00001a68       0x20 ..//lib/libcircle.a(timer.o)
 .debug_aranges
                0x00001a88       0x20 ..//lib/libcircle.a(util.o)
 .debug_aranges
                0x00001aa8       0x28 ..//lib/libcircle.a(virtualgpiopin.o)
 .debug_aranges
                0x00001ad0       0x20 ..//lib/libcircle.a(chainboot.o)
 .debug_aranges
                0x00001af0       0x20 ..//lib/libcircle.a(macaddress.o)
 .debug_aranges
                0x00001b10       0x28 ..//lib/libcircle.a(netdevice.o)
 .debug_aranges
                0x00001b38       0x20 ..//lib/libcircle.a(new.o)
 .debug_aranges
                0x00001b58       0x20 ..//lib/libcircle.a(heapallocator.o)
 .debug_aranges
                0x00001b78       0x20 ..//lib/libcircle.a(pageallocator.o)
 .debug_aranges
                0x00001b98       0x20 ..//lib/libcircle.a(numberpool.o)
 .debug_aranges
                0x00001bb8       0x20 ..//lib/libcircle.a(ptrlistfiq.o)
 .debug_aranges
                0x00001bd8       0x18 ..//lib/libcircle.a(font8x16.o)
 .debug_aranges
                0x00001bf0       0x20 ..//lib/libcircle.a(exceptionhandler.o)
 .debug_aranges
                0x00001c10       0x20 ..//lib/libcircle.a(memory.o)
 .debug_aranges
                0x00001c30       0x20 ..//lib/libcircle.a(pagetable.o)
 .debug_aranges
                0x00001c50       0x20 ..//lib/libcircle.a(synchronize.o)
 .debug_aranges
                0x00001c70       0x28 ..//lib/libcircle.a(bcmrandom.o)
 .debug_aranges
                0x00001c98       0x20 ..//lib/libcircle.a(interrupt.o)
 .debug_aranges
                0x00001cb8       0x28 ..//lib/libcircle.a(gpiopin.o)
 .debug_aranges
                0x00001ce0       0x20 ..//lib/libcircle.a(usertimer.o)
 .debug_aranges
                0x00001d00       0x20 ..//lib/libcircle.a(cxa_guard.o)
 .debug_aranges
                0x00001d20       0x28 ..//lib/libcircle.a(bcmmailbox.o)
 .debug_aranges
                0x00001d48       0x20 ..//lib/libcircle.a(terminal.o)
 .debug_aranges
                0x00001d68       0x20 ..//lib/libcircle.a(gpiomanager.o)

.debug_rnglists
                0x00000000     0xc7dd
 .debug_rnglists
                0x00000000       0x13 ..//VT100/build/main.o
 .debug_rnglists
                0x00000013      0x1b6 ..//VT100/build/kernel.o
 .debug_rnglists
                0x000001c9       0x9e ..//VT100/build/hal.o
 .debug_rnglists
                0x00000267       0x1e ..//VT100/build/TFontConverter.o
 .debug_rnglists
                0x00000285      0x2ca ..//VT100/build/VT100_FontConverter.o
 .debug_rnglists
                0x0000054f      0xf9a ..//VT100/build/TRenderer.o
 .debug_rnglists
                0x000014e9      0x3ee ..//VT100/build/TConfig.o
 .debug_rnglists
                0x000018d7      0x140 ..//VT100/build/TKeyboard.o
 .debug_rnglists
                0x00001a17       0xbd ..//VT100/build/TUART.o
 .debug_rnglists
                0x00001ad4      0x10d ..//VT100/build/TFileLog.o
 .debug_rnglists
                0x00001be1      0x335 ..//VT100/build/TWlanLog.o
 .debug_rnglists
                0x00001f16      0x3e4 ..//VT100/build/TSetup.o
 .debug_rnglists
                0x000022fa      0x181 ..//VT100/build/VTTest.o
 .debug_rnglists
                0x0000247b       0x76 ..//addon/wlan/hostap/wpa_supplicant/libwpa_supplicant.a(eloop_circle.o)
 .debug_rnglists
                0x000024f1       0x2d ..//addon/wlan/hostap/wpa_supplicant/libwpa_supplicant.a(os_circle.o)
 .debug_rnglists
                0x0000251e      0xd48 ..//addon/wlan/hostap/wpa_supplicant/libwpa_supplicant.a(wpa_supplicant.o)
 .debug_rnglists
                0x00003266      0x113 ..//addon/wlan/hostap/wpa_supplicant/libwpa_supplicant.a(wpas_glue.o)
 .debug_rnglists
                0x00003379      0x174 ..//addon/wlan/hostap/wpa_supplicant/libwpa_supplicant.a(hw_features_common.o)
 .debug_rnglists
                0x000034ed      0x378 ..//addon/wlan/hostap/wpa_supplicant/libwpa_supplicant.a(ieee802_11_common.o)
 .debug_rnglists
                0x00003865      0x19b ..//addon/wlan/hostap/wpa_supplicant/libwpa_supplicant.a(wpa_common.o)
 .debug_rnglists
                0x00003a00       0x32 ..//addon/wlan/hostap/wpa_supplicant/libwpa_supplicant.a(aes-omac1.o)
 .debug_rnglists
                0x00003a32       0x14 ..//addon/wlan/hostap/wpa_supplicant/libwpa_supplicant.a(sha1-pbkdf2.o)
 .debug_rnglists
                0x00003a46       0x21 ..//addon/wlan/hostap/wpa_supplicant/libwpa_supplicant.a(sha256-prf.o)
 .debug_rnglists
                0x00003a67       0x53 ..//addon/wlan/hostap/wpa_supplicant/libwpa_supplicant.a(driver_common.o)
 .debug_rnglists
                0x00003aba       0x17 ..//addon/wlan/hostap/wpa_supplicant/libwpa_supplicant.a(eap_methods.o)
 .debug_rnglists
                0x00003ad1      0x171 ..//addon/wlan/hostap/wpa_supplicant/libwpa_supplicant.a(eapol_supp_sm.o)
 .debug_rnglists
                0x00003c42       0xce ..//addon/wlan/hostap/wpa_supplicant/libwpa_supplicant.a(pmksa_cache.o)
 .debug_rnglists
                0x00003d10       0x8f ..//addon/wlan/hostap/wpa_supplicant/libwpa_supplicant.a(preauth.o)
 .debug_rnglists
                0x00003d9f      0x712 ..//addon/wlan/hostap/wpa_supplicant/libwpa_supplicant.a(wpa.o)
 .debug_rnglists
                0x000044b1       0xb1 ..//addon/wlan/hostap/wpa_supplicant/libwpa_supplicant.a(wpa_ie.o)
 .debug_rnglists
                0x00004562      0x154 ..//addon/wlan/hostap/wpa_supplicant/libwpa_supplicant.a(common.o)
 .debug_rnglists
                0x000046b6      0x219 ..//addon/wlan/hostap/wpa_supplicant/libwpa_supplicant.a(wpabuf.o)
 .debug_rnglists
                0x000048cf      0x3b5 ..//addon/wlan/hostap/wpa_supplicant/libwpa_supplicant.a(bss.o)
 .debug_rnglists
                0x00004c84       0x41 ..//addon/wlan/hostap/wpa_supplicant/libwpa_supplicant.a(bssid_ignore.o)
 .debug_rnglists
                0x00004cc5      0x318 ..//addon/wlan/hostap/wpa_supplicant/libwpa_supplicant.a(config.o)
 .debug_rnglists
                0x00004fdd       0xa8 ..//addon/wlan/hostap/wpa_supplicant/libwpa_supplicant.a(config_file.o)
 .debug_rnglists
                0x00005085      0xa60 ..//addon/wlan/hostap/wpa_supplicant/libwpa_supplicant.a(events.o)
 .debug_rnglists
                0x00005ae5       0x36 ..//addon/wlan/hostap/wpa_supplicant/libwpa_supplicant.a(notify.o)
 .debug_rnglists
                0x00005b1b      0x129 ..//addon/wlan/hostap/wpa_supplicant/libwpa_supplicant.a(op_classes.o)
 .debug_rnglists
                0x00005c44      0x58d ..//addon/wlan/hostap/wpa_supplicant/libwpa_supplicant.a(rrm.o)
 .debug_rnglists
                0x000061d1      0x69d ..//addon/wlan/hostap/wpa_supplicant/libwpa_supplicant.a(scan.o)
 .debug_rnglists
                0x0000686e       0x9a ..//addon/wlan/hostap/wpa_supplicant/libwpa_supplicant.a(aes-internal-enc.o)
 .debug_rnglists
                0x00006908       0x36 ..//addon/wlan/hostap/wpa_supplicant/libwpa_supplicant.a(md5-internal.o)
 .debug_rnglists
                0x0000693e       0x2c ..//addon/wlan/hostap/wpa_supplicant/libwpa_supplicant.a(rc4.o)
 .debug_rnglists
                0x0000696a       0x26 ..//addon/wlan/hostap/wpa_supplicant/libwpa_supplicant.a(sha1-internal.o)
 .debug_rnglists
                0x00006990       0x56 ..//addon/wlan/hostap/wpa_supplicant/libwpa_supplicant.a(sha256-internal.o)
 .debug_rnglists
                0x000069e6       0x61 ..//addon/wlan/hostap/wpa_supplicant/libwpa_supplicant.a(driver_circle.o)
 .debug_rnglists
                0x00006a47      0x499 ..//addon/wlan/hostap/wpa_supplicant/libwpa_supplicant.a(eap.o)
 .debug_rnglists
                0x00006ee0       0x2b ..//addon/wlan/hostap/wpa_supplicant/libwpa_supplicant.a(base64.o)
 .debug_rnglists
                0x00006f0b       0x1c ..//addon/wlan/hostap/wpa_supplicant/libwpa_supplicant.a(bitfield.o)
 .debug_rnglists
                0x00006f27       0x23 ..//addon/wlan/hostap/wpa_supplicant/libwpa_supplicant.a(config.o)
 .debug_rnglists
                0x00006f4a      0x17c ..//addon/wlan/hostap/wpa_supplicant/libwpa_supplicant.a(aes-internal-dec.o)
 .debug_rnglists
                0x000070c6       0x8e ..//addon/wlan/hostap/wpa_supplicant/libwpa_supplicant.a(eap_common.o)
 .debug_rnglists
                0x00007154       0x8f ..//addon/wlan/libwlan.a(bcm4343.o)
 .debug_rnglists
                0x000071e3      0x80b ..//addon/wlan/libwlan.a(ether4330.o)
 .debug_rnglists
                0x000079ee      0x1b6 ..//addon/wlan/libwlan.a(emmc.o)
 .debug_rnglists
                0x00007ba4       0x7a ..//addon/wlan/libwlan.a(p9arch.o)
 .debug_rnglists
                0x00007c1e       0x2c ..//addon/wlan/libwlan.a(p9cmd.o)
 .debug_rnglists
                0x00007c4a       0x3b ..//addon/wlan/libwlan.a(p9ether.o)
 .debug_rnglists
                0x00007c85       0x32 ..//addon/wlan/libwlan.a(p9proc.o)
 .debug_rnglists
                0x00007cb7       0x66 ..//lib/usb/libusb.a(usbkeyboard.o)
 .debug_rnglists
                0x00007d1d      0x237 ..//lib/usb/libusb.a(dwhcidevice.o)
 .debug_rnglists
                0x00007f54       0x43 ..//lib/usb/libusb.a(dwhciframeschednper.o)
 .debug_rnglists
                0x00007f97       0x23 ..//lib/usb/libusb.a(dwhciframeschednsplit.o)
 .debug_rnglists
                0x00007fba       0x34 ..//lib/usb/libusb.a(dwhciframeschedper.o)
 .debug_rnglists
                0x00007fee       0x22 ..//lib/usb/libusb.a(dwhcirootport.o)
 .debug_rnglists
                0x00008010      0x12f ..//lib/usb/libusb.a(dwhcixactqueue.o)
 .debug_rnglists
                0x0000813f       0x58 ..//lib/usb/libusb.a(dwhcixferstagedata.o)
 .debug_rnglists
                0x00008197       0x3f ..//lib/usb/libusb.a(dwhciframeschediso.o)
 .debug_rnglists
                0x000081d6       0xe2 ..//lib/usb/libusb.a(usbdevice.o)
 .debug_rnglists
                0x000082b8       0x47 ..//lib/usb/libusb.a(usbdevicefactory.o)
 .debug_rnglists
                0x000082ff       0x3b ..//lib/usb/libusb.a(usbendpoint.o)
 .debug_rnglists
                0x0000833a       0x66 ..//lib/usb/libusb.a(usbfunction.o)
 .debug_rnglists
                0x000083a0       0x3b ..//lib/usb/libusb.a(usbgamepadps3.o)
 .debug_rnglists
                0x000083db       0x98 ..//lib/usb/libusb.a(usbgamepadps4.o)
 .debug_rnglists
                0x00008473       0xe2 ..//lib/usb/libusb.a(usbgamepadstandard.o)
 .debug_rnglists
                0x00008555       0x2f ..//lib/usb/libusb.a(usbgamepadswitchpro.o)
 .debug_rnglists
                0x00008584       0x77 ..//lib/usb/libusb.a(usbgamepadxbox360.o)
 .debug_rnglists
                0x000085fb       0x47 ..//lib/usb/libusb.a(usbgamepadxboxone.o)
 .debug_rnglists
                0x00008642       0x17 ..//lib/usb/libusb.a(usbhiddevice.o)
 .debug_rnglists
                0x00008659       0xb8 ..//lib/usb/libusb.a(usbhostcontroller.o)
 .debug_rnglists
                0x00008711       0x76 ..//lib/usb/libusb.a(usbmassdevice.o)
 .debug_rnglists
                0x00008787       0x3d ..//lib/usb/libusb.a(usbmidihost.o)
 .debug_rnglists
                0x000087c4       0x70 ..//lib/usb/libusb.a(usbmouse.o)
 .debug_rnglists
                0x00008834       0x29 ..//lib/usb/libusb.a(usbprinter.o)
 .debug_rnglists
                0x0000885d       0xdd ..//lib/usb/libusb.a(usbstandardhub.o)
 .debug_rnglists
                0x0000893a       0x2c ..//lib/usb/libusb.a(usbstring.o)
 .debug_rnglists
                0x00008966       0x17 ..//lib/usb/libusb.a(usbserialcp210x.o)
 .debug_rnglists
                0x0000897d       0x31 ..//lib/usb/libusb.a(usbserialpl2303.o)
 .debug_rnglists
                0x000089ae       0x17 ..//lib/usb/libusb.a(usbserialft231x.o)
 .debug_rnglists
                0x000089c5       0x6c ..//lib/usb/libusb.a(usbtouchscreen.o)
 .debug_rnglists
                0x00008a31       0x13 ..//lib/usb/libusb.a(dwhciregister.o)
 .debug_rnglists
                0x00008a44       0x56 ..//lib/usb/libusb.a(lan7800.o)
 .debug_rnglists
                0x00008a9a       0xb5 ..//lib/usb/libusb.a(smsc951x.o)
 .debug_rnglists
                0x00008b4f       0x35 ..//lib/usb/libusb.a(usbbluetooth.o)
 .debug_rnglists
                0x00008b84       0x69 ..//lib/usb/libusb.a(usbcdcethernet.o)
 .debug_rnglists
                0x00008bed       0xdb ..//lib/usb/libusb.a(usbfloppydevice.o)
 .debug_rnglists
                0x00008cc8       0x6b ..//lib/usb/libusb.a(usbconfigparser.o)
 .debug_rnglists
                0x00008d33       0x4d ..//lib/usb/libusb.a(usbgamepad.o)
 .debug_rnglists
                0x00008d80       0x98 ..//lib/usb/libusb.a(usbmidi.o)
 .debug_rnglists
                0x00008e18       0x48 ..//lib/usb/libusb.a(usbserialhost.o)
 .debug_rnglists
                0x00008e60       0x29 ..//lib/usb/libusb.a(usbserial.o)
 .debug_rnglists
                0x00008e89      0x984 ..//addon/fatfs/libfatfs.a(ff.o)
 .debug_rnglists
                0x0000980d       0x17 ..//addon/fatfs/libfatfs.a(diskio.o)
 .debug_rnglists
                0x00009824       0x3d ..//addon/fatfs/libfatfs.a(ffsystem.o)
 .debug_rnglists
                0x00009861       0x1d ..//addon/fatfs/libfatfs.a(ffunicode.o)
 .debug_rnglists
                0x0000987e      0x12f ..//addon/SDCard/libsdcard.a(emmc.o)
 .debug_rnglists
                0x000099ad       0x17 ..//addon/SDCard/libsdcard.a(mmchost.o)
 .debug_rnglists
                0x000099c4      0x4a0 ..//addon/SDCard/libsdcard.a(sdhost.o)
 .debug_rnglists
                0x00009e64       0x32 ..//lib/input/libinput.a(keyboardbehaviour.o)
 .debug_rnglists
                0x00009e96       0x44 ..//lib/input/libinput.a(keymap.o)
 .debug_rnglists
                0x00009eda       0x35 ..//lib/input/libinput.a(mouse.o)
 .debug_rnglists
                0x00009f0f       0x35 ..//lib/input/libinput.a(touchscreen.o)
 .debug_rnglists
                0x00009f44       0x4d ..//lib/input/libinput.a(mousebehaviour.o)
 .debug_rnglists
                0x00009f91       0x58 ..//lib/fs/libfs.a(partitionmanager.o)
 .debug_rnglists
                0x00009fe9       0x17 ..//lib/fs/libfs.a(partition.o)
 .debug_rnglists
                0x0000a000       0x2d ..//lib/net/libnet.a(netsubsystem.o)
 .debug_rnglists
                0x0000a02d       0x13 ..//lib/net/libnet.a(nettask.o)
 .debug_rnglists
                0x0000a040       0x65 ..//lib/net/libnet.a(socket.o)
 .debug_rnglists
                0x0000a0a5      0x158 ..//lib/net/libnet.a(transportlayer.o)
 .debug_rnglists
                0x0000a1fd       0x78 ..//lib/net/libnet.a(networklayer.o)
 .debug_rnglists
                0x0000a275       0x34 ..//lib/net/libnet.a(linklayer.o)
 .debug_rnglists
                0x0000a2a9       0x2c ..//lib/net/libnet.a(netdevlayer.o)
 .debug_rnglists
                0x0000a2d5       0x26 ..//lib/net/libnet.a(phytask.o)
 .debug_rnglists
                0x0000a2fb      0x132 ..//lib/net/libnet.a(arphandler.o)
 .debug_rnglists
                0x0000a42d       0x31 ..//lib/net/libnet.a(icmphandler.o)
 .debug_rnglists
                0x0000a45e       0x5c ..//lib/net/libnet.a(igmphandler.o)
 .debug_rnglists
                0x0000a4ba       0x32 ..//lib/net/libnet.a(routecache.o)
 .debug_rnglists
                0x0000a4ec       0x17 ..//lib/net/libnet.a(netconnection.o)
 .debug_rnglists
                0x0000a503       0x22 ..//lib/net/libnet.a(udpconnection.o)
 .debug_rnglists
                0x0000a525      0x139 ..//lib/net/libnet.a(tcpconnection.o)
 .debug_rnglists
                0x0000a65e       0x9b ..//lib/net/libnet.a(retranstimeoutcalc.o)
 .debug_rnglists
                0x0000a6f9       0x68 ..//lib/net/libnet.a(tcprejector.o)
 .debug_rnglists
                0x0000a761       0x54 ..//lib/net/libnet.a(ipaddress.o)
 .debug_rnglists
                0x0000a7b5       0x69 ..//lib/net/libnet.a(netqueue.o)
 .debug_rnglists
                0x0000a81e       0x22 ..//lib/net/libnet.a(checksumcalculator.o)
 .debug_rnglists
                0x0000a840       0xc7 ..//lib/net/libnet.a(dhcpclient.o)
 .debug_rnglists
                0x0000a907       0xb2 ..//lib/net/libnet.a(mdnsdaemon.o)
 .debug_rnglists
                0x0000a9b9       0x50 ..//lib/net/libnet.a(netsocket.o)
 .debug_rnglists
                0x0000aa09       0x42 ..//lib/net/libnet.a(dnsclient.o)
 .debug_rnglists
                0x0000aa4b       0x27 ..//lib/sched/libsched.a(task.o)
 .debug_rnglists
                0x0000aa72      0x211 ..//lib/sched/libsched.a(scheduler.o)
 .debug_rnglists
                0x0000ac83       0x13 ..//lib/sched/libsched.a(synchronizationevent.o)
 .debug_rnglists
                0x0000ac96       0x50 ..//lib/libcircle.a(actled.o)
 .debug_rnglists
                0x0000ace6       0x25 ..//lib/libcircle.a(alloc.o)
 .debug_rnglists
                0x0000ad0b       0x3e ..//lib/libcircle.a(bcmframebuffer.o)
 .debug_rnglists
                0x0000ad49       0x81 ..//lib/libcircle.a(classallocator.o)
 .debug_rnglists
                0x0000adca       0x31 ..//lib/libcircle.a(debug.o)
 .debug_rnglists
                0x0000adfb       0x14 ..//lib/libcircle.a(device.o)
 .debug_rnglists
                0x0000ae0f       0xb3 ..//lib/libcircle.a(devicenameservice.o)
 .debug_rnglists
                0x0000aec2      0x105 ..//lib/libcircle.a(dmachannel.o)
 .debug_rnglists
                0x0000afc7      0x142 ..//lib/libcircle.a(koptions.o)
 .debug_rnglists
                0x0000b109       0xed ..//lib/libcircle.a(logger.o)
 .debug_rnglists
                0x0000b1f6       0x17 ..//lib/libcircle.a(machineinfo.o)
 .debug_rnglists
                0x0000b20d       0x1c ..//lib/libcircle.a(ptrarray.o)
 .debug_rnglists
                0x0000b229       0x1e ..//lib/libcircle.a(ptrlist.o)
 .debug_rnglists
                0x0000b247       0x41 ..//lib/libcircle.a(screen.o)
 .debug_rnglists
                0x0000b288      0x2a0 ..//lib/libcircle.a(serial.o)
 .debug_rnglists
                0x0000b528      0x238 ..//lib/libcircle.a(string.o)
 .debug_rnglists
                0x0000b760       0x1a ..//lib/libcircle.a(sysinit.o)
 .debug_rnglists
                0x0000b77a      0x23e ..//lib/libcircle.a(timer.o)
 .debug_rnglists
                0x0000b9b8       0xe0 ..//lib/libcircle.a(util.o)
 .debug_rnglists
                0x0000ba98       0x85 ..//lib/libcircle.a(virtualgpiopin.o)
 .debug_rnglists
                0x0000bb1d       0x50 ..//lib/libcircle.a(macaddress.o)
 .debug_rnglists
                0x0000bb6d       0x42 ..//lib/libcircle.a(netdevice.o)
 .debug_rnglists
                0x0000bbaf       0x33 ..//lib/libcircle.a(new.o)
 .debug_rnglists
                0x0000bbe2       0x98 ..//lib/libcircle.a(heapallocator.o)
 .debug_rnglists
                0x0000bc7a       0x53 ..//lib/libcircle.a(pageallocator.o)
 .debug_rnglists
                0x0000bccd       0x7c ..//lib/libcircle.a(ptrlistfiq.o)
 .debug_rnglists
                0x0000bd49       0x5b ..//lib/libcircle.a(exceptionhandler.o)
 .debug_rnglists
                0x0000bda4       0x21 ..//lib/libcircle.a(memory.o)
 .debug_rnglists
                0x0000bdc5       0x1a ..//lib/libcircle.a(pagetable.o)
 .debug_rnglists
                0x0000bddf       0x6b ..//lib/libcircle.a(bcmrandom.o)
 .debug_rnglists
                0x0000be4a      0x11f ..//lib/libcircle.a(interrupt.o)
 .debug_rnglists
                0x0000bf69      0x1f1 ..//lib/libcircle.a(gpiopin.o)
 .debug_rnglists
                0x0000c15a       0x22 ..//lib/libcircle.a(usertimer.o)
 .debug_rnglists
                0x0000c17c       0xc6 ..//lib/libcircle.a(bcmmailbox.o)
 .debug_rnglists
                0x0000c242      0x551 ..//lib/libcircle.a(terminal.o)
 .debug_rnglists
                0x0000c793       0x4a ..//lib/libcircle.a(gpiomanager.o)

.debug_line     0x00000000    0x9ef87
 .debug_line    0x00000000      0x40f ..//VT100/build/main.o
 .debug_line    0x0000040f     0x1760 ..//VT100/build/kernel.o
 .debug_line    0x00001b6f      0x7ac ..//VT100/build/hal.o
 .debug_line    0x0000231b      0x2a9 ..//VT100/build/TFontConverter.o
 .debug_line    0x000025c4      0x9c0 ..//VT100/build/VT100_FontConverter.o
 .debug_line    0x00002f84     0x681e ..//VT100/build/TRenderer.o
 .debug_line    0x000097a2     0x22e3 ..//VT100/build/TConfig.o
 .debug_line    0x0000ba85     0x1161 ..//VT100/build/TKeyboard.o
 .debug_line    0x0000cbe6      0x615 ..//VT100/build/TUART.o
 .debug_line    0x0000d1fb      0x7c0 ..//VT100/build/TFileLog.o
 .debug_line    0x0000d9bb     0x1eea ..//VT100/build/TWlanLog.o
 .debug_line    0x0000f8a5     0x357a ..//VT100/build/TSetup.o
 .debug_line    0x00012e1f     0x2118 ..//VT100/build/VTTest.o
 .debug_line    0x00014f37      0x21d ..//addon/wlan/hostap/wpa_supplicant/libwpa_supplicant.a(wpasupplicant.o)
 .debug_line    0x00015154      0x769 ..//addon/wlan/hostap/wpa_supplicant/libwpa_supplicant.a(eloop_circle.o)
 .debug_line    0x000158bd      0x7b3 ..//addon/wlan/hostap/wpa_supplicant/libwpa_supplicant.a(os_circle.o)
 .debug_line    0x00016070      0x221 ..//addon/wlan/hostap/wpa_supplicant/libwpa_supplicant.a(main_circle.o)
 .debug_line    0x00016291     0x9338 ..//addon/wlan/hostap/wpa_supplicant/libwpa_supplicant.a(wpa_supplicant.o)
 .debug_line    0x0001f5c9     0x185b ..//addon/wlan/hostap/wpa_supplicant/libwpa_supplicant.a(wpas_glue.o)
 .debug_line    0x00020e24     0x1305 ..//addon/wlan/hostap/wpa_supplicant/libwpa_supplicant.a(hw_features_common.o)
 .debug_line    0x00022129     0x3bce ..//addon/wlan/hostap/wpa_supplicant/libwpa_supplicant.a(ieee802_11_common.o)
 .debug_line    0x00025cf7       0xde ..//addon/wlan/hostap/wpa_supplicant/libwpa_supplicant.a(ptksa_cache.o)
 .debug_line    0x00025dd5     0x2462 ..//addon/wlan/hostap/wpa_supplicant/libwpa_supplicant.a(wpa_common.o)
 .debug_line    0x00028237      0x367 ..//addon/wlan/hostap/wpa_supplicant/libwpa_supplicant.a(aes-omac1.o)
 .debug_line    0x0002859e      0x1cf ..//addon/wlan/hostap/wpa_supplicant/libwpa_supplicant.a(md5.o)
 .debug_line    0x0002876d      0x1d0 ..//addon/wlan/hostap/wpa_supplicant/libwpa_supplicant.a(sha1-pbkdf2.o)
 .debug_line    0x0002893d      0x171 ..//addon/wlan/hostap/wpa_supplicant/libwpa_supplicant.a(sha1-prf.o)
 .debug_line    0x00028aae      0x1e9 ..//addon/wlan/hostap/wpa_supplicant/libwpa_supplicant.a(sha1.o)
 .debug_line    0x00028c97      0x226 ..//addon/wlan/hostap/wpa_supplicant/libwpa_supplicant.a(sha256-prf.o)
 .debug_line    0x00028ebd      0x1ee ..//addon/wlan/hostap/wpa_supplicant/libwpa_supplicant.a(sha256.o)
 .debug_line    0x000290ab      0x52a ..//addon/wlan/hostap/wpa_supplicant/libwpa_supplicant.a(driver_common.o)
 .debug_line    0x000295d5       0xcf ..//addon/wlan/hostap/wpa_supplicant/libwpa_supplicant.a(drivers.o)
 .debug_line    0x000296a4      0x5c3 ..//addon/wlan/hostap/wpa_supplicant/libwpa_supplicant.a(eap_methods.o)
 .debug_line    0x00029c67     0x1a38 ..//addon/wlan/hostap/wpa_supplicant/libwpa_supplicant.a(eapol_supp_sm.o)
 .debug_line    0x0002b69f      0x5ef ..//addon/wlan/hostap/wpa_supplicant/libwpa_supplicant.a(l2_packet_circle.o)
 .debug_line    0x0002bc8e     0x1229 ..//addon/wlan/hostap/wpa_supplicant/libwpa_supplicant.a(pmksa_cache.o)
 .debug_line    0x0002ceb7      0xa6e ..//addon/wlan/hostap/wpa_supplicant/libwpa_supplicant.a(preauth.o)
 .debug_line    0x0002d925     0x4f9c ..//addon/wlan/hostap/wpa_supplicant/libwpa_supplicant.a(wpa.o)
 .debug_line    0x000328c1      0x6d5 ..//addon/wlan/hostap/wpa_supplicant/libwpa_supplicant.a(wpa_ie.o)
 .debug_line    0x00032f96     0x1b9e ..//addon/wlan/hostap/wpa_supplicant/libwpa_supplicant.a(common.o)
 .debug_line    0x00034b34      0x18b ..//addon/wlan/hostap/wpa_supplicant/libwpa_supplicant.a(wpa_debug_circle.o)
 .debug_line    0x00034cbf      0xc86 ..//addon/wlan/hostap/wpa_supplicant/libwpa_supplicant.a(wpabuf.o)
 .debug_line    0x00035945     0x2856 ..//addon/wlan/hostap/wpa_supplicant/libwpa_supplicant.a(bss.o)
 .debug_line    0x0003819b      0x542 ..//addon/wlan/hostap/wpa_supplicant/libwpa_supplicant.a(bssid_ignore.o)
 .debug_line    0x000386dd     0x4197 ..//addon/wlan/hostap/wpa_supplicant/libwpa_supplicant.a(config.o)
 .debug_line    0x0003c874      0x8bf ..//addon/wlan/hostap/wpa_supplicant/libwpa_supplicant.a(config_file.o)
 .debug_line    0x0003d133       0x4b ..//addon/wlan/hostap/wpa_supplicant/libwpa_supplicant.a(eap_register.o)
 .debug_line    0x0003d17e     0x5f6e ..//addon/wlan/hostap/wpa_supplicant/libwpa_supplicant.a(events.o)
 .debug_line    0x000430ec      0x772 ..//addon/wlan/hostap/wpa_supplicant/libwpa_supplicant.a(notify.o)
 .debug_line    0x0004385e      0xdce ..//addon/wlan/hostap/wpa_supplicant/libwpa_supplicant.a(op_classes.o)
 .debug_line    0x0004462c     0x25d4 ..//addon/wlan/hostap/wpa_supplicant/libwpa_supplicant.a(rrm.o)
 .debug_line    0x00046c00     0x4c0e ..//addon/wlan/hostap/wpa_supplicant/libwpa_supplicant.a(scan.o)
 .debug_line    0x0004b80e      0x54d ..//addon/wlan/hostap/wpa_supplicant/libwpa_supplicant.a(aes-internal-enc.o)
 .debug_line    0x0004bd5b      0x18c ..//addon/wlan/hostap/wpa_supplicant/libwpa_supplicant.a(aes-unwrap.o)
 .debug_line    0x0004bee7      0x476 ..//addon/wlan/hostap/wpa_supplicant/libwpa_supplicant.a(md5-internal.o)
 .debug_line    0x0004c35d      0x1a5 ..//addon/wlan/hostap/wpa_supplicant/libwpa_supplicant.a(rc4.o)
 .debug_line    0x0004c502      0xb26 ..//addon/wlan/hostap/wpa_supplicant/libwpa_supplicant.a(sha1-internal.o)
 .debug_line    0x0004d028      0x4c2 ..//addon/wlan/hostap/wpa_supplicant/libwpa_supplicant.a(sha256-internal.o)
 .debug_line    0x0004d4ea      0xc2f ..//addon/wlan/hostap/wpa_supplicant/libwpa_supplicant.a(driver_circle.o)
 .debug_line    0x0004e119     0x2f61 ..//addon/wlan/hostap/wpa_supplicant/libwpa_supplicant.a(eap.o)
 .debug_line    0x0005107a      0x4d3 ..//addon/wlan/hostap/wpa_supplicant/libwpa_supplicant.a(base64.o)
 .debug_line    0x0005154d      0x1d2 ..//addon/wlan/hostap/wpa_supplicant/libwpa_supplicant.a(bitfield.o)
 .debug_line    0x0005171f      0x2ab ..//addon/wlan/hostap/wpa_supplicant/libwpa_supplicant.a(config.o)
 .debug_line    0x000519ca      0x2e5 ..//addon/wlan/hostap/wpa_supplicant/libwpa_supplicant.a(aes-internal.o)
 .debug_line    0x00051caf      0x773 ..//addon/wlan/hostap/wpa_supplicant/libwpa_supplicant.a(aes-internal-dec.o)
 .debug_line    0x00052422      0x184 ..//addon/wlan/hostap/wpa_supplicant/libwpa_supplicant.a(tls_none.o)
 .debug_line    0x000525a6      0x524 ..//addon/wlan/hostap/wpa_supplicant/libwpa_supplicant.a(eap_common.o)
 .debug_line    0x00052aca      0xa3a ..//addon/wlan/libwlan.a(bcm4343.o)
 .debug_line    0x00053504     0x3e58 ..//addon/wlan/libwlan.a(ether4330.o)
 .debug_line    0x0005735c      0xe23 ..//addon/wlan/libwlan.a(emmc.o)
 .debug_line    0x0005817f      0x4c1 ..//addon/wlan/libwlan.a(p9arch.o)
 .debug_line    0x00058640      0x30a ..//addon/wlan/libwlan.a(p9chan.o)
 .debug_line    0x0005894a      0x2bc ..//addon/wlan/libwlan.a(p9cmd.o)
 .debug_line    0x00058c06      0x1ec ..//addon/wlan/libwlan.a(p9error.o)
 .debug_line    0x00058df2      0x3dd ..//addon/wlan/libwlan.a(p9ether.o)
 .debug_line    0x000591cf      0x38c ..//addon/wlan/libwlan.a(p9proc.o)
 .debug_line    0x0005955b      0x369 ..//addon/wlan/libwlan.a(p9util.o)
 .debug_line    0x000598c4      0x6d5 ..//lib/usb/libusb.a(usbkeyboard.o)
 .debug_line    0x00059f99     0x2873 ..//lib/usb/libusb.a(dwhcidevice.o)
 .debug_line    0x0005c80c      0x4db ..//lib/usb/libusb.a(dwhciframeschednper.o)
 .debug_line    0x0005cce7      0x2d5 ..//lib/usb/libusb.a(dwhciframeschednsplit.o)
 .debug_line    0x0005cfbc      0x4f9 ..//lib/usb/libusb.a(dwhciframeschedper.o)
 .debug_line    0x0005d4b5      0x42a ..//lib/usb/libusb.a(dwhcirootport.o)
 .debug_line    0x0005d8df      0x81d ..//lib/usb/libusb.a(dwhcixactqueue.o)
 .debug_line    0x0005e0fc      0xd18 ..//lib/usb/libusb.a(dwhcixferstagedata.o)
 .debug_line    0x0005ee14      0x546 ..//lib/usb/libusb.a(dwhciframeschediso.o)
 .debug_line    0x0005f35a      0xf9a ..//lib/usb/libusb.a(usbdevice.o)
 .debug_line    0x000602f4      0xb99 ..//lib/usb/libusb.a(usbdevicefactory.o)
 .debug_line    0x00060e8d      0x4c4 ..//lib/usb/libusb.a(usbendpoint.o)
 .debug_line    0x00061351      0x6ff ..//lib/usb/libusb.a(usbfunction.o)
 .debug_line    0x00061a50      0x5f6 ..//lib/usb/libusb.a(usbgamepadps3.o)
 .debug_line    0x00062046      0xa74 ..//lib/usb/libusb.a(usbgamepadps4.o)
 .debug_line    0x00062aba      0x934 ..//lib/usb/libusb.a(usbgamepadstandard.o)
 .debug_line    0x000633ee      0x6b7 ..//lib/usb/libusb.a(usbgamepadswitchpro.o)
 .debug_line    0x00063aa5      0x5ae ..//lib/usb/libusb.a(usbgamepadxbox360.o)
 .debug_line    0x00064053      0x5b1 ..//lib/usb/libusb.a(usbgamepadxboxone.o)
 .debug_line    0x00064604      0x7c2 ..//lib/usb/libusb.a(usbhiddevice.o)
 .debug_line    0x00064dc6      0x746 ..//lib/usb/libusb.a(usbhostcontroller.o)
 .debug_line    0x0006550c      0xccd ..//lib/usb/libusb.a(usbmassdevice.o)
 .debug_line    0x000661d9      0x84a ..//lib/usb/libusb.a(usbmidihost.o)
 .debug_line    0x00066a23      0x8e3 ..//lib/usb/libusb.a(usbmouse.o)
 .debug_line    0x00067306      0x415 ..//lib/usb/libusb.a(usbprinter.o)
 .debug_line    0x0006771b      0x434 ..//lib/usb/libusb.a(usbrequest.o)
 .debug_line    0x00067b4f      0xddf ..//lib/usb/libusb.a(usbstandardhub.o)
 .debug_line    0x0006892e      0x4d4 ..//lib/usb/libusb.a(usbstring.o)
 .debug_line    0x00068e02      0x531 ..//lib/usb/libusb.a(usbserialch341.o)
 .debug_line    0x00069333      0x5c8 ..//lib/usb/libusb.a(usbserialcp210x.o)
 .debug_line    0x000698fb      0x778 ..//lib/usb/libusb.a(usbserialpl2303.o)
 .debug_line    0x0006a073      0x556 ..//lib/usb/libusb.a(usbserialft231x.o)
 .debug_line    0x0006a5c9      0x362 ..//lib/usb/libusb.a(usbserialcdc.o)
 .debug_line    0x0006a92b      0xa1d ..//lib/usb/libusb.a(usbtouchscreen.o)
 .debug_line    0x0006b348      0x399 ..//lib/usb/libusb.a(dwhciregister.o)
 .debug_line    0x0006b6e1      0xdd4 ..//lib/usb/libusb.a(lan7800.o)
 .debug_line    0x0006c4b5      0xe6f ..//lib/usb/libusb.a(smsc951x.o)
 .debug_line    0x0006d324      0x628 ..//lib/usb/libusb.a(usbbluetooth.o)
 .debug_line    0x0006d94c      0x7cd ..//lib/usb/libusb.a(usbcdcethernet.o)
 .debug_line    0x0006e119      0xb30 ..//lib/usb/libusb.a(usbfloppydevice.o)
 .debug_line    0x0006ec49      0x448 ..//lib/usb/libusb.a(usbconfigparser.o)
 .debug_line    0x0006f091      0x3b2 ..//lib/usb/libusb.a(usbgamepad.o)
 .debug_line    0x0006f443      0x905 ..//lib/usb/libusb.a(usbmidi.o)
 .debug_line    0x0006fd48      0x879 ..//lib/usb/libusb.a(usbserialhost.o)
 .debug_line    0x000705c1      0x4fc ..//lib/usb/libusb.a(usbserial.o)
 .debug_line    0x00070abd     0x6d30 ..//addon/fatfs/libfatfs.a(ff.o)
 .debug_line    0x000777ed      0x3b0 ..//addon/fatfs/libfatfs.a(diskio.o)
 .debug_line    0x00077b9d      0x42d ..//addon/fatfs/libfatfs.a(ffsystem.o)
 .debug_line    0x00077fca      0x294 ..//addon/fatfs/libfatfs.a(ffunicode.o)
 .debug_line    0x0007825e     0x149a ..//addon/SDCard/libsdcard.a(emmc.o)
 .debug_line    0x000796f8      0x48f ..//addon/SDCard/libsdcard.a(mmchost.o)
 .debug_line    0x00079b87     0x2aba ..//addon/SDCard/libsdcard.a(sdhost.o)
 .debug_line    0x0007c641      0x431 ..//lib/input/libinput.a(keyboardbehaviour.o)
 .debug_line    0x0007ca72      0x47c ..//lib/input/libinput.a(keymap.o)
 .debug_line    0x0007ceee      0x338 ..//lib/input/libinput.a(mouse.o)
 .debug_line    0x0007d226      0x475 ..//lib/input/libinput.a(touchscreen.o)
 .debug_line    0x0007d69b      0x694 ..//lib/input/libinput.a(mousebehaviour.o)
 .debug_line    0x0007dd2f      0x39b ..//lib/fs/libfs.a(partitionmanager.o)
 .debug_line    0x0007e0ca      0x258 ..//lib/fs/libfs.a(partition.o)
 .debug_line    0x0007e322      0x4ae ..//lib/net/libnet.a(netsubsystem.o)
 .debug_line    0x0007e7d0      0x285 ..//lib/net/libnet.a(nettask.o)
 .debug_line    0x0007ea55      0x8f1 ..//lib/net/libnet.a(socket.o)
 .debug_line    0x0007f346     0x11cd ..//lib/net/libnet.a(transportlayer.o)
 .debug_line    0x00080513      0xb3e ..//lib/net/libnet.a(networklayer.o)
 .debug_line    0x00081051      0xa61 ..//lib/net/libnet.a(linklayer.o)
 .debug_line    0x00081ab2      0x4bf ..//lib/net/libnet.a(netdevlayer.o)
 .debug_line    0x00081f71      0x1d0 ..//lib/net/libnet.a(phytask.o)
 .debug_line    0x00082141      0xcd2 ..//lib/net/libnet.a(arphandler.o)
 .debug_line    0x00082e13      0x6c7 ..//lib/net/libnet.a(icmphandler.o)
 .debug_line    0x000834da      0x7f9 ..//lib/net/libnet.a(igmphandler.o)
 .debug_line    0x00083cd3      0x26a ..//lib/net/libnet.a(routecache.o)
 .debug_line    0x00083f3d      0x32d ..//lib/net/libnet.a(netconnection.o)
 .debug_line    0x0008426a      0xb2b ..//lib/net/libnet.a(udpconnection.o)
 .debug_line    0x00084d95     0x1e7c ..//lib/net/libnet.a(tcpconnection.o)
 .debug_line    0x00086c11      0x3a9 ..//lib/net/libnet.a(retransmissionqueue.o)
 .debug_line    0x00086fba      0x4ea ..//lib/net/libnet.a(retranstimeoutcalc.o)
 .debug_line    0x000874a4      0x59d ..//lib/net/libnet.a(tcprejector.o)
 .debug_line    0x00087a41      0x3a2 ..//lib/net/libnet.a(netconfig.o)
 .debug_line    0x00087de3      0x64b ..//lib/net/libnet.a(ipaddress.o)
 .debug_line    0x0008842e      0x3f5 ..//lib/net/libnet.a(netqueue.o)
 .debug_line    0x00088823      0x42a ..//lib/net/libnet.a(checksumcalculator.o)
 .debug_line    0x00088c4d     0x12de ..//lib/net/libnet.a(dhcpclient.o)
 .debug_line    0x00089f2b      0xb1d ..//lib/net/libnet.a(mdnsdaemon.o)
 .debug_line    0x0008aa48      0x479 ..//lib/net/libnet.a(netsocket.o)
 .debug_line    0x0008aec1      0x6d9 ..//lib/net/libnet.a(dnsclient.o)
 .debug_line    0x0008b59a      0x46d ..//lib/sched/libsched.a(task.o)
 .debug_line    0x0008ba07     0x1019 ..//lib/sched/libsched.a(scheduler.o)
 .debug_line    0x0008ca20      0x209 ..//lib/sched/libsched.a(synchronizationevent.o)
 .debug_line    0x0008cc29      0x343 ..//lib/libcircle.a(actled.o)
 .debug_line    0x0008cf6c      0x26c ..//lib/libcircle.a(alloc.o)
 .debug_line    0x0008d1d8      0x13a ..//lib/libcircle.a(assert.o)
 .debug_line    0x0008d312      0x1fb ..//lib/libcircle.a(display.o)
 .debug_line    0x0008d50d      0x731 ..//lib/libcircle.a(bcmframebuffer.o)
 .debug_line    0x0008dc3e      0x2af ..//lib/libcircle.a(bcmpropertytags.o)
 .debug_line    0x0008deed      0x178 ..//lib/libcircle.a(chargenerator.o)
 .debug_line    0x0008e065      0x5aa ..//lib/libcircle.a(classallocator.o)
 .debug_line    0x0008e60f      0x1b7 ..//lib/libcircle.a(debug.o)
 .debug_line    0x0008e7c6      0x212 ..//lib/libcircle.a(device.o)
 .debug_line    0x0008e9d8      0x729 ..//lib/libcircle.a(devicenameservice.o)
 .debug_line    0x0008f101     0x1117 ..//lib/libcircle.a(dmachannel.o)
 .debug_line    0x00090218      0x824 ..//lib/libcircle.a(koptions.o)
 .debug_line    0x00090a3c      0xa46 ..//lib/libcircle.a(logger.o)
 .debug_line    0x00091482      0x535 ..//lib/libcircle.a(machineinfo.o)
 .debug_line    0x000919b7       0xf2 ..//lib/libcircle.a(nulldevice.o)
 .debug_line    0x00091aa9      0x307 ..//lib/libcircle.a(ptrarray.o)
 .debug_line    0x00091db0      0x3ff ..//lib/libcircle.a(ptrlist.o)
 .debug_line    0x000921af      0x44c ..//lib/libcircle.a(screen.o)
 .debug_line    0x000925fb     0x16ac ..//lib/libcircle.a(serial.o)
 .debug_line    0x00093ca7     0x19f9 ..//lib/libcircle.a(string.o)
 .debug_line    0x000956a0      0x2ed ..//lib/libcircle.a(sysinit.o)
 .debug_line    0x0009598d     0x122b ..//lib/libcircle.a(timer.o)
 .debug_line    0x00096bb8      0xad4 ..//lib/libcircle.a(util.o)
 .debug_line    0x0009768c      0x3c7 ..//lib/libcircle.a(virtualgpiopin.o)
 .debug_line    0x00097a53       0xec ..//lib/libcircle.a(chainboot.o)
 .debug_line    0x00097b3f      0x479 ..//lib/libcircle.a(macaddress.o)
 .debug_line    0x00097fb8      0x1a0 ..//lib/libcircle.a(netdevice.o)
 .debug_line    0x00098158      0x1a4 ..//lib/libcircle.a(new.o)
 .debug_line    0x000982fc      0x540 ..//lib/libcircle.a(heapallocator.o)
 .debug_line    0x0009883c      0x286 ..//lib/libcircle.a(pageallocator.o)
 .debug_line    0x00098ac2      0x23d ..//lib/libcircle.a(numberpool.o)
 .debug_line    0x00098cff      0x632 ..//lib/libcircle.a(ptrlistfiq.o)
 .debug_line    0x00099331       0x49 ..//lib/libcircle.a(font8x16.o)
 .debug_line    0x0009937a      0x38f ..//lib/libcircle.a(exceptionhandler.o)
 .debug_line    0x00099709      0x2fd ..//lib/libcircle.a(memory.o)
 .debug_line    0x00099a06      0x11d ..//lib/libcircle.a(pagetable.o)
 .debug_line    0x00099b23      0x164 ..//lib/libcircle.a(synchronize.o)
 .debug_line    0x00099c87      0x21b ..//lib/libcircle.a(bcmrandom.o)
 .debug_line    0x00099ea2      0x91a ..//lib/libcircle.a(interrupt.o)
 .debug_line    0x0009a7bc     0x11a2 ..//lib/libcircle.a(gpiopin.o)
 .debug_line    0x0009b95e      0x323 ..//lib/libcircle.a(usertimer.o)
 .debug_line    0x0009bc81       0xda ..//lib/libcircle.a(cxa_guard.o)
 .debug_line    0x0009bd5b      0x435 ..//lib/libcircle.a(bcmmailbox.o)
 .debug_line    0x0009c190     0x2a0b ..//lib/libcircle.a(terminal.o)
 .debug_line    0x0009eb9b      0x3ec ..//lib/libcircle.a(gpiomanager.o)

.debug_str      0x00000000    0x3b8de
 .debug_str     0x00000000    0x3b8de ..//VT100/build/main.o
                               0x520c (size before relaxing)
 .debug_str     0x0003b8de     0x730d ..//VT100/build/kernel.o
 .debug_str     0x0003b8de     0x1772 ..//VT100/build/hal.o
 .debug_str     0x0003b8de     0x194d ..//VT100/build/TFontConverter.o
 .debug_str     0x0003b8de      0x640 ..//VT100/build/VT100_FontConverter.o
 .debug_str     0x0003b8de     0x43e7 ..//VT100/build/TRenderer.o
 .debug_str     0x0003b8de     0x33c6 ..//VT100/build/TConfig.o
 .debug_str     0x0003b8de     0x2a58 ..//VT100/build/TKeyboard.o
 .debug_str     0x0003b8de     0x1e9f ..//VT100/build/TUART.o
 .debug_str     0x0003b8de     0x1873 ..//VT100/build/TFileLog.o
 .debug_str     0x0003b8de     0x603a ..//VT100/build/TWlanLog.o
 .debug_str     0x0003b8de     0x7ced ..//VT100/build/TSetup.o
 .debug_str     0x0003b8de     0x2877 ..//VT100/build/VTTest.o
 .debug_str     0x0003b8de      0xc55 ..//addon/wlan/hostap/wpa_supplicant/libwpa_supplicant.a(wpasupplicant.o)
 .debug_str     0x0003b8de      0x457 ..//addon/wlan/hostap/wpa_supplicant/libwpa_supplicant.a(eloop_circle.o)
 .debug_str     0x0003b8de     0x1a1a ..//addon/wlan/hostap/wpa_supplicant/libwpa_supplicant.a(os_circle.o)
 .debug_str     0x0003b8de     0x578d ..//addon/wlan/hostap/wpa_supplicant/libwpa_supplicant.a(main_circle.o)
 .debug_str     0x0003b8de     0xabae ..//addon/wlan/hostap/wpa_supplicant/libwpa_supplicant.a(wpa_supplicant.o)
 .debug_str     0x0003b8de     0x7638 ..//addon/wlan/hostap/wpa_supplicant/libwpa_supplicant.a(wpas_glue.o)
 .debug_str     0x0003b8de     0x15d1 ..//addon/wlan/hostap/wpa_supplicant/libwpa_supplicant.a(hw_features_common.o)
 .debug_str     0x0003b8de     0x1f61 ..//addon/wlan/hostap/wpa_supplicant/libwpa_supplicant.a(ieee802_11_common.o)
 .debug_str     0x0003b8de      0x2e0 ..//addon/wlan/hostap/wpa_supplicant/libwpa_supplicant.a(ptksa_cache.o)
 .debug_str     0x0003b8de      0xc85 ..//addon/wlan/hostap/wpa_supplicant/libwpa_supplicant.a(wpa_common.o)
 .debug_str     0x0003b8de      0x246 ..//addon/wlan/hostap/wpa_supplicant/libwpa_supplicant.a(aes-omac1.o)
 .debug_str     0x0003b8de      0x1ed ..//addon/wlan/hostap/wpa_supplicant/libwpa_supplicant.a(md5.o)
 .debug_str     0x0003b8de      0x245 ..//addon/wlan/hostap/wpa_supplicant/libwpa_supplicant.a(sha1-pbkdf2.o)
 .debug_str     0x0003b8de      0x207 ..//addon/wlan/hostap/wpa_supplicant/libwpa_supplicant.a(sha1-prf.o)
 .debug_str     0x0003b8de      0x200 ..//addon/wlan/hostap/wpa_supplicant/libwpa_supplicant.a(sha1.o)
 .debug_str     0x0003b8de      0x247 ..//addon/wlan/hostap/wpa_supplicant/libwpa_supplicant.a(sha256-prf.o)
 .debug_str     0x0003b8de      0x20d ..//addon/wlan/hostap/wpa_supplicant/libwpa_supplicant.a(sha256.o)
 .debug_str     0x0003b8de     0x1091 ..//addon/wlan/hostap/wpa_supplicant/libwpa_supplicant.a(driver_common.o)
 .debug_str     0x0003b8de     0x2e85 ..//addon/wlan/hostap/wpa_supplicant/libwpa_supplicant.a(drivers.o)
 .debug_str     0x0003b8de      0xcc1 ..//addon/wlan/hostap/wpa_supplicant/libwpa_supplicant.a(eap_methods.o)
 .debug_str     0x0003b8de     0x1d2a ..//addon/wlan/hostap/wpa_supplicant/libwpa_supplicant.a(eapol_supp_sm.o)
 .debug_str     0x0003b8de     0x30a2 ..//addon/wlan/hostap/wpa_supplicant/libwpa_supplicant.a(l2_packet_circle.o)
 .debug_str     0x0003b8de     0x1197 ..//addon/wlan/hostap/wpa_supplicant/libwpa_supplicant.a(pmksa_cache.o)
 .debug_str     0x0003b8de     0x149c ..//addon/wlan/hostap/wpa_supplicant/libwpa_supplicant.a(preauth.o)
 .debug_str     0x0003b8de     0x2b3b ..//addon/wlan/hostap/wpa_supplicant/libwpa_supplicant.a(wpa.o)
 .debug_str     0x0003b8de      0xe8f ..//addon/wlan/hostap/wpa_supplicant/libwpa_supplicant.a(wpa_ie.o)
 .debug_str     0x0003b8de      0x735 ..//addon/wlan/hostap/wpa_supplicant/libwpa_supplicant.a(common.o)
 .debug_str     0x0003b8de      0x364 ..//addon/wlan/hostap/wpa_supplicant/libwpa_supplicant.a(wpa_debug_circle.o)
 .debug_str     0x0003b8de      0x389 ..//addon/wlan/hostap/wpa_supplicant/libwpa_supplicant.a(wpabuf.o)
 .debug_str     0x0003b8de     0x77b8 ..//addon/wlan/hostap/wpa_supplicant/libwpa_supplicant.a(bss.o)
 .debug_str     0x0003b8de     0x5409 ..//addon/wlan/hostap/wpa_supplicant/libwpa_supplicant.a(bssid_ignore.o)
 .debug_str     0x0003b8de     0x2b0f ..//addon/wlan/hostap/wpa_supplicant/libwpa_supplicant.a(config.o)
 .debug_str     0x0003b8de     0x2134 ..//addon/wlan/hostap/wpa_supplicant/libwpa_supplicant.a(config_file.o)
 .debug_str     0x0003b8de      0x1a7 ..//addon/wlan/hostap/wpa_supplicant/libwpa_supplicant.a(eap_register.o)
 .debug_str     0x0003b8de     0xac1f ..//addon/wlan/hostap/wpa_supplicant/libwpa_supplicant.a(events.o)
 .debug_str     0x0003b8de     0x765d ..//addon/wlan/hostap/wpa_supplicant/libwpa_supplicant.a(notify.o)
 .debug_str     0x0003b8de     0x56fd ..//addon/wlan/hostap/wpa_supplicant/libwpa_supplicant.a(op_classes.o)
 .debug_str     0x0003b8de     0x63a7 ..//addon/wlan/hostap/wpa_supplicant/libwpa_supplicant.a(rrm.o)
 .debug_str     0x0003b8de     0x8954 ..//addon/wlan/hostap/wpa_supplicant/libwpa_supplicant.a(scan.o)
 .debug_str     0x0003b8de      0x210 ..//addon/wlan/hostap/wpa_supplicant/libwpa_supplicant.a(aes-internal-enc.o)
 .debug_str     0x0003b8de      0x1e4 ..//addon/wlan/hostap/wpa_supplicant/libwpa_supplicant.a(aes-unwrap.o)
 .debug_str     0x0003b8de      0x21c ..//addon/wlan/hostap/wpa_supplicant/libwpa_supplicant.a(md5-internal.o)
 .debug_str     0x0003b8de      0x1ae ..//addon/wlan/hostap/wpa_supplicant/libwpa_supplicant.a(rc4.o)
 .debug_str     0x0003b8de      0x25d ..//addon/wlan/hostap/wpa_supplicant/libwpa_supplicant.a(sha1-internal.o)
 .debug_str     0x0003b8de      0x24c ..//addon/wlan/hostap/wpa_supplicant/libwpa_supplicant.a(sha256-internal.o)
 .debug_str     0x0003b8de     0x4b6d ..//addon/wlan/hostap/wpa_supplicant/libwpa_supplicant.a(driver_circle.o)
 .debug_str     0x0003b8de     0x1db5 ..//addon/wlan/hostap/wpa_supplicant/libwpa_supplicant.a(eap.o)
 .debug_str     0x0003b8de      0x284 ..//addon/wlan/hostap/wpa_supplicant/libwpa_supplicant.a(base64.o)
 .debug_str     0x0003b8de      0x21c ..//addon/wlan/hostap/wpa_supplicant/libwpa_supplicant.a(bitfield.o)
 .debug_str     0x0003b8de      0x36f ..//addon/wlan/hostap/wpa_supplicant/libwpa_supplicant.a(config.o)
 .debug_str     0x0003b8de      0x1be ..//addon/wlan/hostap/wpa_supplicant/libwpa_supplicant.a(aes-internal.o)
 .debug_str     0x0003b8de      0x240 ..//addon/wlan/hostap/wpa_supplicant/libwpa_supplicant.a(aes-internal-dec.o)
 .debug_str     0x0003b8de      0xae1 ..//addon/wlan/hostap/wpa_supplicant/libwpa_supplicant.a(tls_none.o)
 .debug_str     0x0003b8de      0x53b ..//addon/wlan/hostap/wpa_supplicant/libwpa_supplicant.a(eap_common.o)
 .debug_str     0x0003b8de     0x131f ..//addon/wlan/libwlan.a(bcm4343.o)
 .debug_str     0x0003b8de     0x1129 ..//addon/wlan/libwlan.a(ether4330.o)
 .debug_str     0x0003b8de      0x73b ..//addon/wlan/libwlan.a(emmc.o)
 .debug_str     0x0003b8de     0x1ae3 ..//addon/wlan/libwlan.a(p9arch.o)
 .debug_str     0x0003b8de      0x5d1 ..//addon/wlan/libwlan.a(p9chan.o)
 .debug_str     0x0003b8de      0x338 ..//addon/wlan/libwlan.a(p9cmd.o)
 .debug_str     0x0003b8de      0x24a ..//addon/wlan/libwlan.a(p9error.o)
 .debug_str     0x0003b8de      0x280 ..//addon/wlan/libwlan.a(p9ether.o)
 .debug_str     0x0003b8de      0xa85 ..//addon/wlan/libwlan.a(p9proc.o)
 .debug_str     0x0003b8de     0x1233 ..//addon/wlan/libwlan.a(p9util.o)
 .debug_str     0x0003b8de     0x26ff ..//lib/usb/libusb.a(usbkeyboard.o)
 .debug_str     0x0003b8de     0x4a90 ..//lib/usb/libusb.a(dwhcidevice.o)
 .debug_str     0x0003b8de     0x22d7 ..//lib/usb/libusb.a(dwhciframeschednper.o)
 .debug_str     0x0003b8de      0xc98 ..//lib/usb/libusb.a(dwhciframeschednsplit.o)
 .debug_str     0x0003b8de     0x1bf8 ..//lib/usb/libusb.a(dwhciframeschedper.o)
 .debug_str     0x0003b8de     0x1643 ..//lib/usb/libusb.a(dwhcirootport.o)
 .debug_str     0x0003b8de     0x203b ..//lib/usb/libusb.a(dwhcixactqueue.o)
 .debug_str     0x0003b8de     0x2a40 ..//lib/usb/libusb.a(dwhcixferstagedata.o)
 .debug_str     0x0003b8de      0xddc ..//lib/usb/libusb.a(dwhciframeschediso.o)
 .debug_str     0x0003b8de     0x29d1 ..//lib/usb/libusb.a(usbdevice.o)
 .debug_str     0x0003b8de     0x2e0e ..//lib/usb/libusb.a(usbdevicefactory.o)
 .debug_str     0x0003b8de     0x157b ..//lib/usb/libusb.a(usbendpoint.o)
 .debug_str     0x0003b8de     0x1f8f ..//lib/usb/libusb.a(usbfunction.o)
 .debug_str     0x0003b8de     0x2139 ..//lib/usb/libusb.a(usbgamepadps3.o)
 .debug_str     0x0003b8de     0x2065 ..//lib/usb/libusb.a(usbgamepadps4.o)
 .debug_str     0x0003b8de     0x2187 ..//lib/usb/libusb.a(usbgamepadstandard.o)
 .debug_str     0x0003b8de     0x1e5d ..//lib/usb/libusb.a(usbgamepadswitchpro.o)
 .debug_str     0x0003b8de     0x1ce0 ..//lib/usb/libusb.a(usbgamepadxbox360.o)
 .debug_str     0x0003b8de     0x1de3 ..//lib/usb/libusb.a(usbgamepadxboxone.o)
 .debug_str     0x0003b8de     0x25e7 ..//lib/usb/libusb.a(usbhiddevice.o)
 .debug_str     0x0003b8de     0x1fef ..//lib/usb/libusb.a(usbhostcontroller.o)
 .debug_str     0x0003b8de     0x28fe ..//lib/usb/libusb.a(usbmassdevice.o)
 .debug_str     0x0003b8de     0x2cd0 ..//lib/usb/libusb.a(usbmidihost.o)
 .debug_str     0x0003b8de     0x1ea1 ..//lib/usb/libusb.a(usbmouse.o)
 .debug_str     0x0003b8de     0x2003 ..//lib/usb/libusb.a(usbprinter.o)
 .debug_str     0x0003b8de      0xefd ..//lib/usb/libusb.a(usbrequest.o)
 .debug_str     0x0003b8de     0x3276 ..//lib/usb/libusb.a(usbstandardhub.o)
 .debug_str     0x0003b8de      0x8a4 ..//lib/usb/libusb.a(usbstring.o)
 .debug_str     0x0003b8de     0x1ba0 ..//lib/usb/libusb.a(usbserialch341.o)
 .debug_str     0x0003b8de     0x1c23 ..//lib/usb/libusb.a(usbserialcp210x.o)
 .debug_str     0x0003b8de     0x1d29 ..//lib/usb/libusb.a(usbserialpl2303.o)
 .debug_str     0x0003b8de     0x1d2f ..//lib/usb/libusb.a(usbserialft231x.o)
 .debug_str     0x0003b8de     0x1bb3 ..//lib/usb/libusb.a(usbserialcdc.o)
 .debug_str     0x0003b8de     0x1fb9 ..//lib/usb/libusb.a(usbtouchscreen.o)
 .debug_str     0x0003b8de     0x132a ..//lib/usb/libusb.a(dwhciregister.o)
 .debug_str     0x0003b8de     0x2ece ..//lib/usb/libusb.a(lan7800.o)
 .debug_str     0x0003b8de     0x2e65 ..//lib/usb/libusb.a(smsc951x.o)
 .debug_str     0x0003b8de     0x2877 ..//lib/usb/libusb.a(usbbluetooth.o)
 .debug_str     0x0003b8de     0x2d25 ..//lib/usb/libusb.a(usbcdcethernet.o)
 .debug_str     0x0003b8de     0x25f9 ..//lib/usb/libusb.a(usbfloppydevice.o)
 .debug_str     0x0003b8de     0x15f2 ..//lib/usb/libusb.a(usbconfigparser.o)
 .debug_str     0x0003b8de     0x1c9c ..//lib/usb/libusb.a(usbgamepad.o)
 .debug_str     0x0003b8de     0x1aa5 ..//lib/usb/libusb.a(usbmidi.o)
 .debug_str     0x0003b8de     0x2869 ..//lib/usb/libusb.a(usbserialhost.o)
 .debug_str     0x0003b8de      0xd7e ..//lib/usb/libusb.a(usbserial.o)
 .debug_str     0x0003b8de      0x958 ..//addon/fatfs/libfatfs.a(ff.o)
 .debug_str     0x0003b8de      0x686 ..//addon/fatfs/libfatfs.a(diskio.o)
 .debug_str     0x0003b8de      0xead ..//addon/fatfs/libfatfs.a(ffsystem.o)
 .debug_str     0x0003b8de      0x1e8 ..//addon/fatfs/libfatfs.a(ffunicode.o)
 .debug_str     0x0003b8de     0x1e7d ..//addon/SDCard/libsdcard.a(emmc.o)
 .debug_str     0x0003b8de      0x6ab ..//addon/SDCard/libsdcard.a(mmchost.o)
 .debug_str     0x0003b8de     0x2909 ..//addon/SDCard/libsdcard.a(sdhost.o)
 .debug_str     0x0003b8de     0x1455 ..//lib/input/libinput.a(keyboardbehaviour.o)
 .debug_str     0x0003b8de      0xe9d ..//lib/input/libinput.a(keymap.o)
 .debug_str     0x0003b8de      0xe87 ..//lib/input/libinput.a(mouse.o)
 .debug_str     0x0003b8de      0xb65 ..//lib/input/libinput.a(touchscreen.o)
 .debug_str     0x0003b8de      0x86c ..//lib/input/libinput.a(mousebehaviour.o)
 .debug_str     0x0003b8de     0x161e ..//lib/fs/libfs.a(partitionmanager.o)
 .debug_str     0x0003b8de      0x429 ..//lib/fs/libfs.a(partition.o)
 .debug_str     0x0003b8de     0x3101 ..//lib/net/libnet.a(netsubsystem.o)
 .debug_str     0x0003b8de     0x2eb9 ..//lib/net/libnet.a(nettask.o)
 .debug_str     0x0003b8de     0x2c81 ..//lib/net/libnet.a(socket.o)
 .debug_str     0x0003b8de     0x2ec4 ..//lib/net/libnet.a(transportlayer.o)
 .debug_str     0x0003b8de     0x27bd ..//lib/net/libnet.a(networklayer.o)
 .debug_str     0x0003b8de     0x241f ..//lib/net/libnet.a(linklayer.o)
 .debug_str     0x0003b8de     0x209a ..//lib/net/libnet.a(netdevlayer.o)
 .debug_str     0x0003b8de      0xe78 ..//lib/net/libnet.a(phytask.o)
 .debug_str     0x0003b8de     0x2593 ..//lib/net/libnet.a(arphandler.o)
 .debug_str     0x0003b8de     0x34b9 ..//lib/net/libnet.a(icmphandler.o)
 .debug_str     0x0003b8de     0x3054 ..//lib/net/libnet.a(igmphandler.o)
 .debug_str     0x0003b8de      0x459 ..//lib/net/libnet.a(routecache.o)
 .debug_str     0x0003b8de     0x2b1a ..//lib/net/libnet.a(netconnection.o)
 .debug_str     0x0003b8de     0x2df6 ..//lib/net/libnet.a(udpconnection.o)
 .debug_str     0x0003b8de     0x469a ..//lib/net/libnet.a(tcpconnection.o)
 .debug_str     0x0003b8de      0x451 ..//lib/net/libnet.a(retransmissionqueue.o)
 .debug_str     0x0003b8de     0x1050 ..//lib/net/libnet.a(retranstimeoutcalc.o)
 .debug_str     0x0003b8de     0x2ac7 ..//lib/net/libnet.a(tcprejector.o)
 .debug_str     0x0003b8de      0x8d7 ..//lib/net/libnet.a(netconfig.o)
 .debug_str     0x0003b8de      0x5e9 ..//lib/net/libnet.a(ipaddress.o)
 .debug_str     0x0003b8de      0x4d5 ..//lib/net/libnet.a(netqueue.o)
 .debug_str     0x0003b8de      0x822 ..//lib/net/libnet.a(checksumcalculator.o)
 .debug_str     0x0003b8de     0x45bb ..//lib/net/libnet.a(dhcpclient.o)
 .debug_str     0x0003b8de     0x4272 ..//lib/net/libnet.a(mdnsdaemon.o)
 .debug_str     0x0003b8de     0x3b4a ..//lib/net/libnet.a(netsocket.o)
 .debug_str     0x0003b8de     0x311d ..//lib/net/libnet.a(dnsclient.o)
 .debug_str     0x0003b8de      0xdc5 ..//lib/sched/libsched.a(task.o)
 .debug_str     0x0003b8de     0x199a ..//lib/sched/libsched.a(scheduler.o)
 .debug_str     0x0003b8de      0x948 ..//lib/sched/libsched.a(synchronizationevent.o)
 .debug_str     0x0003b8de     0x171b ..//lib/libcircle.a(actled.o)
 .debug_str     0x0003b8de      0x859 ..//lib/libcircle.a(alloc.o)
 .debug_str     0x0003b8de     0x1159 ..//lib/libcircle.a(assert.o)
 .debug_str     0x0003b8de      0x546 ..//lib/libcircle.a(display.o)
 .debug_str     0x0003b8de     0x1c07 ..//lib/libcircle.a(bcmframebuffer.o)
 .debug_str     0x0003b8de      0xaa1 ..//lib/libcircle.a(bcmpropertytags.o)
 .debug_str     0x0003b8de      0x47c ..//lib/libcircle.a(chargenerator.o)
 .debug_str     0x0003b8de     0x1316 ..//lib/libcircle.a(classallocator.o)
 .debug_str     0x0003b8de     0x1116 ..//lib/libcircle.a(debug.o)
 .debug_str     0x0003b8de      0x61d ..//lib/libcircle.a(device.o)
 .debug_str     0x0003b8de      0x6b3 ..//lib/libcircle.a(devicenameservice.o)
 .debug_str     0x0003b8de     0x1a56 ..//lib/libcircle.a(dmachannel.o)
 .debug_str     0x0003b8de      0xba1 ..//lib/libcircle.a(koptions.o)
 .debug_str     0x0003b8de     0x1b65 ..//lib/libcircle.a(logger.o)
 .debug_str     0x0003b8de      0xcb0 ..//lib/libcircle.a(machineinfo.o)
 .debug_str     0x0003b8de      0x65a ..//lib/libcircle.a(nulldevice.o)
 .debug_str     0x0003b8de      0x34a ..//lib/libcircle.a(ptrarray.o)
 .debug_str     0x0003b8de      0x36b ..//lib/libcircle.a(ptrlist.o)
 .debug_str     0x0003b8de      0xed0 ..//lib/libcircle.a(screen.o)
 .debug_str     0x0003b8de     0x19e8 ..//lib/libcircle.a(serial.o)
 .debug_str     0x0003b8de      0x799 ..//lib/libcircle.a(string.o)
 .debug_str     0x0003b8de     0x1c88 ..//lib/libcircle.a(sysinit.o)
 .debug_str     0x0003b8de     0x13d2 ..//lib/libcircle.a(timer.o)
 .debug_str     0x0003b8de      0x351 ..//lib/libcircle.a(util.o)
 .debug_str     0x0003b8de      0xcdd ..//lib/libcircle.a(virtualgpiopin.o)
 .debug_str     0x0003b8de      0x248 ..//lib/libcircle.a(chainboot.o)
 .debug_str     0x0003b8de      0x46d ..//lib/libcircle.a(macaddress.o)
 .debug_str     0x0003b8de      0x80e ..//lib/libcircle.a(netdevice.o)
 .debug_str     0x0003b8de      0x87c ..//lib/libcircle.a(new.o)
 .debug_str     0x0003b8de     0x1364 ..//lib/libcircle.a(heapallocator.o)
 .debug_str     0x0003b8de      0x3e4 ..//lib/libcircle.a(pageallocator.o)
 .debug_str     0x0003b8de     0x11f7 ..//lib/libcircle.a(numberpool.o)
 .debug_str     0x0003b8de      0x72e ..//lib/libcircle.a(ptrlistfiq.o)
 .debug_str     0x0003b8de      0x17e ..//lib/libcircle.a(font8x16.o)
 .debug_str     0x0003b8de     0x13d5 ..//lib/libcircle.a(exceptionhandler.o)
 .debug_str     0x0003b8de      0xb47 ..//lib/libcircle.a(memory.o)
 .debug_str     0x0003b8de      0x27c ..//lib/libcircle.a(pagetable.o)
 .debug_str     0x0003b8de      0x249 ..//lib/libcircle.a(synchronize.o)
 .debug_str     0x0003b8de      0x442 ..//lib/libcircle.a(bcmrandom.o)
 .debug_str     0x0003b8de      0x609 ..//lib/libcircle.a(interrupt.o)
 .debug_str     0x0003b8de     0x1e08 ..//lib/libcircle.a(gpiopin.o)
 .debug_str     0x0003b8de      0x683 ..//lib/libcircle.a(usertimer.o)
 .debug_str     0x0003b8de      0x1d0 ..//lib/libcircle.a(cxa_guard.o)
 .debug_str     0x0003b8de      0xed3 ..//lib/libcircle.a(bcmmailbox.o)
 .debug_str     0x0003b8de     0x20e8 ..//lib/libcircle.a(terminal.o)
 .debug_str     0x0003b8de      0x72b ..//lib/libcircle.a(gpiomanager.o)

.comment        0x00000000       0x45
 .comment       0x00000000       0x45 ..//VT100/build/main.o
                                 0x46 (size before relaxing)
 .comment       0x00000045       0x46 ..//VT100/build/kernel.o
 .comment       0x00000045       0x46 ..//VT100/build/hal.o
 .comment       0x00000045       0x46 ..//VT100/build/TFontConverter.o
 .comment       0x00000045       0x46 ..//VT100/build/VT100_FontConverter.o
 .comment       0x00000045       0x46 ..//VT100/build/TRenderer.o
 .comment       0x00000045       0x46 ..//VT100/build/TConfig.o
 .comment       0x00000045       0x46 ..//VT100/build/TKeyboard.o
 .comment       0x00000045       0x46 ..//VT100/build/TUART.o
 .comment       0x00000045       0x46 ..//VT100/build/TFileLog.o
 .comment       0x00000045       0x46 ..//VT100/build/TWlanLog.o
 .comment       0x00000045       0x46 ..//VT100/build/TSetup.o
 .comment       0x00000045       0x46 ..//VT100/build/VTTest.o
 .comment       0x00000045       0x46 ..//addon/wlan/hostap/wpa_supplicant/libwpa_supplicant.a(wpasupplicant.o)
 .comment       0x00000045       0x46 ..//addon/wlan/hostap/wpa_supplicant/libwpa_supplicant.a(eloop_circle.o)
 .comment       0x00000045       0x46 ..//addon/wlan/hostap/wpa_supplicant/libwpa_supplicant.a(os_circle.o)
 .comment       0x00000045       0x46 ..//addon/wlan/hostap/wpa_supplicant/libwpa_supplicant.a(main_circle.o)
 .comment       0x00000045       0x46 ..//addon/wlan/hostap/wpa_supplicant/libwpa_supplicant.a(wpa_supplicant.o)
 .comment       0x00000045       0x46 ..//addon/wlan/hostap/wpa_supplicant/libwpa_supplicant.a(wpas_glue.o)
 .comment       0x00000045       0x46 ..//addon/wlan/hostap/wpa_supplicant/libwpa_supplicant.a(hw_features_common.o)
 .comment       0x00000045       0x46 ..//addon/wlan/hostap/wpa_supplicant/libwpa_supplicant.a(ieee802_11_common.o)
 .comment       0x00000045       0x46 ..//addon/wlan/hostap/wpa_supplicant/libwpa_supplicant.a(ptksa_cache.o)
 .comment       0x00000045       0x46 ..//addon/wlan/hostap/wpa_supplicant/libwpa_supplicant.a(wpa_common.o)
 .comment       0x00000045       0x46 ..//addon/wlan/hostap/wpa_supplicant/libwpa_supplicant.a(aes-omac1.o)
 .comment       0x00000045       0x46 ..//addon/wlan/hostap/wpa_supplicant/libwpa_supplicant.a(md5.o)
 .comment       0x00000045       0x46 ..//addon/wlan/hostap/wpa_supplicant/libwpa_supplicant.a(sha1-pbkdf2.o)
 .comment       0x00000045       0x46 ..//addon/wlan/hostap/wpa_supplicant/libwpa_supplicant.a(sha1-prf.o)
 .comment       0x00000045       0x46 ..//addon/wlan/hostap/wpa_supplicant/libwpa_supplicant.a(sha1.o)
 .comment       0x00000045       0x46 ..//addon/wlan/hostap/wpa_supplicant/libwpa_supplicant.a(sha256-prf.o)
 .comment       0x00000045       0x46 ..//addon/wlan/hostap/wpa_supplicant/libwpa_supplicant.a(sha256.o)
 .comment       0x00000045       0x46 ..//addon/wlan/hostap/wpa_supplicant/libwpa_supplicant.a(driver_common.o)
 .comment       0x00000045       0x46 ..//addon/wlan/hostap/wpa_supplicant/libwpa_supplicant.a(drivers.o)
 .comment       0x00000045       0x46 ..//addon/wlan/hostap/wpa_supplicant/libwpa_supplicant.a(eap_methods.o)
 .comment       0x00000045       0x46 ..//addon/wlan/hostap/wpa_supplicant/libwpa_supplicant.a(eapol_supp_sm.o)
 .comment       0x00000045       0x46 ..//addon/wlan/hostap/wpa_supplicant/libwpa_supplicant.a(l2_packet_circle.o)
 .comment       0x00000045       0x46 ..//addon/wlan/hostap/wpa_supplicant/libwpa_supplicant.a(pmksa_cache.o)
 .comment       0x00000045       0x46 ..//addon/wlan/hostap/wpa_supplicant/libwpa_supplicant.a(preauth.o)
 .comment       0x00000045       0x46 ..//addon/wlan/hostap/wpa_supplicant/libwpa_supplicant.a(wpa.o)
 .comment       0x00000045       0x46 ..//addon/wlan/hostap/wpa_supplicant/libwpa_supplicant.a(wpa_ie.o)
 .comment       0x00000045       0x46 ..//addon/wlan/hostap/wpa_supplicant/libwpa_supplicant.a(common.o)
 .comment       0x00000045       0x46 ..//addon/wlan/hostap/wpa_supplicant/libwpa_supplicant.a(wpa_debug_circle.o)
 .comment       0x00000045       0x46 ..//addon/wlan/hostap/wpa_supplicant/libwpa_supplicant.a(wpabuf.o)
 .comment       0x00000045       0x46 ..//addon/wlan/hostap/wpa_supplicant/libwpa_supplicant.a(bss.o)
 .comment       0x00000045       0x46 ..//addon/wlan/hostap/wpa_supplicant/libwpa_supplicant.a(bssid_ignore.o)
 .comment       0x00000045       0x46 ..//addon/wlan/hostap/wpa_supplicant/libwpa_supplicant.a(config.o)
 .comment       0x00000045       0x46 ..//addon/wlan/hostap/wpa_supplicant/libwpa_supplicant.a(config_file.o)
 .comment       0x00000045       0x46 ..//addon/wlan/hostap/wpa_supplicant/libwpa_supplicant.a(eap_register.o)
 .comment       0x00000045       0x46 ..//addon/wlan/hostap/wpa_supplicant/libwpa_supplicant.a(events.o)
 .comment       0x00000045       0x46 ..//addon/wlan/hostap/wpa_supplicant/libwpa_supplicant.a(notify.o)
 .comment       0x00000045       0x46 ..//addon/wlan/hostap/wpa_supplicant/libwpa_supplicant.a(op_classes.o)
 .comment       0x00000045       0x46 ..//addon/wlan/hostap/wpa_supplicant/libwpa_supplicant.a(rrm.o)
 .comment       0x00000045       0x46 ..//addon/wlan/hostap/wpa_supplicant/libwpa_supplicant.a(scan.o)
 .comment       0x00000045       0x46 ..//addon/wlan/hostap/wpa_supplicant/libwpa_supplicant.a(aes-internal-enc.o)
 .comment       0x00000045       0x46 ..//addon/wlan/hostap/wpa_supplicant/libwpa_supplicant.a(aes-unwrap.o)
 .comment       0x00000045       0x46 ..//addon/wlan/hostap/wpa_supplicant/libwpa_supplicant.a(md5-internal.o)
 .comment       0x00000045       0x46 ..//addon/wlan/hostap/wpa_supplicant/libwpa_supplicant.a(rc4.o)
 .comment       0x00000045       0x46 ..//addon/wlan/hostap/wpa_supplicant/libwpa_supplicant.a(sha1-internal.o)
 .comment       0x00000045       0x46 ..//addon/wlan/hostap/wpa_supplicant/libwpa_supplicant.a(sha256-internal.o)
 .comment       0x00000045       0x46 ..//addon/wlan/hostap/wpa_supplicant/libwpa_supplicant.a(driver_circle.o)
 .comment       0x00000045       0x46 ..//addon/wlan/hostap/wpa_supplicant/libwpa_supplicant.a(eap.o)
 .comment       0x00000045       0x46 ..//addon/wlan/hostap/wpa_supplicant/libwpa_supplicant.a(base64.o)
 .comment       0x00000045       0x46 ..//addon/wlan/hostap/wpa_supplicant/libwpa_supplicant.a(bitfield.o)
 .comment       0x00000045       0x46 ..//addon/wlan/hostap/wpa_supplicant/libwpa_supplicant.a(config.o)
 .comment       0x00000045       0x46 ..//addon/wlan/hostap/wpa_supplicant/libwpa_supplicant.a(aes-internal.o)
 .comment       0x00000045       0x46 ..//addon/wlan/hostap/wpa_supplicant/libwpa_supplicant.a(aes-internal-dec.o)
 .comment       0x00000045       0x46 ..//addon/wlan/hostap/wpa_supplicant/libwpa_supplicant.a(tls_none.o)
 .comment       0x00000045       0x46 ..//addon/wlan/hostap/wpa_supplicant/libwpa_supplicant.a(eap_common.o)
 .comment       0x00000045       0x46 ..//addon/wlan/libwlan.a(bcm4343.o)
 .comment       0x00000045       0x46 ..//addon/wlan/libwlan.a(ether4330.o)
 .comment       0x00000045       0x46 ..//addon/wlan/libwlan.a(emmc.o)
 .comment       0x00000045       0x46 ..//addon/wlan/libwlan.a(p9arch.o)
 .comment       0x00000045       0x46 ..//addon/wlan/libwlan.a(p9chan.o)
 .comment       0x00000045       0x46 ..//addon/wlan/libwlan.a(p9cmd.o)
 .comment       0x00000045       0x46 ..//addon/wlan/libwlan.a(p9error.o)
 .comment       0x00000045       0x46 ..//addon/wlan/libwlan.a(p9ether.o)
 .comment       0x00000045       0x46 ..//addon/wlan/libwlan.a(p9proc.o)
 .comment       0x00000045       0x46 ..//addon/wlan/libwlan.a(p9util.o)
 .comment       0x00000045       0x46 ..//lib/usb/libusb.a(usbkeyboard.o)
 .comment       0x00000045       0x46 ..//lib/usb/libusb.a(dwhcidevice.o)
 .comment       0x00000045       0x46 ..//lib/usb/libusb.a(dwhciframeschednper.o)
 .comment       0x00000045       0x46 ..//lib/usb/libusb.a(dwhciframeschednsplit.o)
 .comment       0x00000045       0x46 ..//lib/usb/libusb.a(dwhciframeschedper.o)
 .comment       0x00000045       0x46 ..//lib/usb/libusb.a(dwhcirootport.o)
 .comment       0x00000045       0x46 ..//lib/usb/libusb.a(dwhcixactqueue.o)
 .comment       0x00000045       0x46 ..//lib/usb/libusb.a(dwhcixferstagedata.o)
 .comment       0x00000045       0x46 ..//lib/usb/libusb.a(dwhciframeschediso.o)
 .comment       0x00000045       0x46 ..//lib/usb/libusb.a(usbdevice.o)
 .comment       0x00000045       0x46 ..//lib/usb/libusb.a(usbdevicefactory.o)
 .comment       0x00000045       0x46 ..//lib/usb/libusb.a(usbendpoint.o)
 .comment       0x00000045       0x46 ..//lib/usb/libusb.a(usbfunction.o)
 .comment       0x00000045       0x46 ..//lib/usb/libusb.a(usbgamepadps3.o)
 .comment       0x00000045       0x46 ..//lib/usb/libusb.a(usbgamepadps4.o)
 .comment       0x00000045       0x46 ..//lib/usb/libusb.a(usbgamepadstandard.o)
 .comment       0x00000045       0x46 ..//lib/usb/libusb.a(usbgamepadswitchpro.o)
 .comment       0x00000045       0x46 ..//lib/usb/libusb.a(usbgamepadxbox360.o)
 .comment       0x00000045       0x46 ..//lib/usb/libusb.a(usbgamepadxboxone.o)
 .comment       0x00000045       0x46 ..//lib/usb/libusb.a(usbhiddevice.o)
 .comment       0x00000045       0x46 ..//lib/usb/libusb.a(usbhostcontroller.o)
 .comment       0x00000045       0x46 ..//lib/usb/libusb.a(usbmassdevice.o)
 .comment       0x00000045       0x46 ..//lib/usb/libusb.a(usbmidihost.o)
 .comment       0x00000045       0x46 ..//lib/usb/libusb.a(usbmouse.o)
 .comment       0x00000045       0x46 ..//lib/usb/libusb.a(usbprinter.o)
 .comment       0x00000045       0x46 ..//lib/usb/libusb.a(usbrequest.o)
 .comment       0x00000045       0x46 ..//lib/usb/libusb.a(usbstandardhub.o)
 .comment       0x00000045       0x46 ..//lib/usb/libusb.a(usbstring.o)
 .comment       0x00000045       0x46 ..//lib/usb/libusb.a(usbserialch341.o)
 .comment       0x00000045       0x46 ..//lib/usb/libusb.a(usbserialcp210x.o)
 .comment       0x00000045       0x46 ..//lib/usb/libusb.a(usbserialpl2303.o)
 .comment       0x00000045       0x46 ..//lib/usb/libusb.a(usbserialft231x.o)
 .comment       0x00000045       0x46 ..//lib/usb/libusb.a(usbserialcdc.o)
 .comment       0x00000045       0x46 ..//lib/usb/libusb.a(usbtouchscreen.o)
 .comment       0x00000045       0x46 ..//lib/usb/libusb.a(dwhciregister.o)
 .comment       0x00000045       0x46 ..//lib/usb/libusb.a(lan7800.o)
 .comment       0x00000045       0x46 ..//lib/usb/libusb.a(smsc951x.o)
 .comment       0x00000045       0x46 ..//lib/usb/libusb.a(usbbluetooth.o)
 .comment       0x00000045       0x46 ..//lib/usb/libusb.a(usbcdcethernet.o)
 .comment       0x00000045       0x46 ..//lib/usb/libusb.a(usbfloppydevice.o)
 .comment       0x00000045       0x46 ..//lib/usb/libusb.a(usbconfigparser.o)
 .comment       0x00000045       0x46 ..//lib/usb/libusb.a(usbgamepad.o)
 .comment       0x00000045       0x46 ..//lib/usb/libusb.a(usbmidi.o)
 .comment       0x00000045       0x46 ..//lib/usb/libusb.a(usbserialhost.o)
 .comment       0x00000045       0x46 ..//lib/usb/libusb.a(usbserial.o)
 .comment       0x00000045       0x46 ..//addon/fatfs/libfatfs.a(ff.o)
 .comment       0x00000045       0x46 ..//addon/fatfs/libfatfs.a(diskio.o)
 .comment       0x00000045       0x46 ..//addon/fatfs/libfatfs.a(ffsystem.o)
 .comment       0x00000045       0x46 ..//addon/fatfs/libfatfs.a(ffunicode.o)
 .comment       0x00000045       0x46 ..//addon/SDCard/libsdcard.a(emmc.o)
 .comment       0x00000045       0x46 ..//addon/SDCard/libsdcard.a(mmchost.o)
 .comment       0x00000045       0x46 ..//addon/SDCard/libsdcard.a(sdhost.o)
 .comment       0x00000045       0x46 ..//lib/input/libinput.a(keyboardbehaviour.o)
 .comment       0x00000045       0x46 ..//lib/input/libinput.a(keymap.o)
 .comment       0x00000045       0x46 ..//lib/input/libinput.a(mouse.o)
 .comment       0x00000045       0x46 ..//lib/input/libinput.a(touchscreen.o)
 .comment       0x00000045       0x46 ..//lib/input/libinput.a(mousebehaviour.o)
 .comment       0x00000045       0x46 ..//lib/fs/libfs.a(partitionmanager.o)
 .comment       0x00000045       0x46 ..//lib/fs/libfs.a(partition.o)
 .comment       0x00000045       0x46 ..//lib/net/libnet.a(netsubsystem.o)
 .comment       0x00000045       0x46 ..//lib/net/libnet.a(nettask.o)
 .comment       0x00000045       0x46 ..//lib/net/libnet.a(socket.o)
 .comment       0x00000045       0x46 ..//lib/net/libnet.a(transportlayer.o)
 .comment       0x00000045       0x46 ..//lib/net/libnet.a(networklayer.o)
 .comment       0x00000045       0x46 ..//lib/net/libnet.a(linklayer.o)
 .comment       0x00000045       0x46 ..//lib/net/libnet.a(netdevlayer.o)
 .comment       0x00000045       0x46 ..//lib/net/libnet.a(phytask.o)
 .comment       0x00000045       0x46 ..//lib/net/libnet.a(arphandler.o)
 .comment       0x00000045       0x46 ..//lib/net/libnet.a(icmphandler.o)
 .comment       0x00000045       0x46 ..//lib/net/libnet.a(igmphandler.o)
 .comment       0x00000045       0x46 ..//lib/net/libnet.a(routecache.o)
 .comment       0x00000045       0x46 ..//lib/net/libnet.a(netconnection.o)
 .comment       0x00000045       0x46 ..//lib/net/libnet.a(udpconnection.o)
 .comment       0x00000045       0x46 ..//lib/net/libnet.a(tcpconnection.o)
 .comment       0x00000045       0x46 ..//lib/net/libnet.a(retransmissionqueue.o)
 .comment       0x00000045       0x46 ..//lib/net/libnet.a(retranstimeoutcalc.o)
 .comment       0x00000045       0x46 ..//lib/net/libnet.a(tcprejector.o)
 .comment       0x00000045       0x46 ..//lib/net/libnet.a(netconfig.o)
 .comment       0x00000045       0x46 ..//lib/net/libnet.a(ipaddress.o)
 .comment       0x00000045       0x46 ..//lib/net/libnet.a(netqueue.o)
 .comment       0x00000045       0x46 ..//lib/net/libnet.a(checksumcalculator.o)
 .comment       0x00000045       0x46 ..//lib/net/libnet.a(dhcpclient.o)
 .comment       0x00000045       0x46 ..//lib/net/libnet.a(mdnsdaemon.o)
 .comment       0x00000045       0x46 ..//lib/net/libnet.a(netsocket.o)
 .comment       0x00000045       0x46 ..//lib/net/libnet.a(dnsclient.o)
 .comment       0x00000045       0x46 ..//lib/sched/libsched.a(task.o)
 .comment       0x00000045       0x46 ..//lib/sched/libsched.a(scheduler.o)
 .comment       0x00000045       0x46 ..//lib/sched/libsched.a(synchronizationevent.o)
 .comment       0x00000045       0x46 ..//lib/libcircle.a(actled.o)
 .comment       0x00000045       0x46 ..//lib/libcircle.a(alloc.o)
 .comment       0x00000045       0x46 ..//lib/libcircle.a(assert.o)
 .comment       0x00000045       0x46 ..//lib/libcircle.a(display.o)
 .comment       0x00000045       0x46 ..//lib/libcircle.a(bcmframebuffer.o)
 .comment       0x00000045       0x46 ..//lib/libcircle.a(bcmpropertytags.o)
 .comment       0x00000045       0x46 ..//lib/libcircle.a(chargenerator.o)
 .comment       0x00000045       0x46 ..//lib/libcircle.a(classallocator.o)
 .comment       0x00000045       0x46 ..//lib/libcircle.a(debug.o)
 .comment       0x00000045       0x46 ..//lib/libcircle.a(device.o)
 .comment       0x00000045       0x46 ..//lib/libcircle.a(devicenameservice.o)
 .comment       0x00000045       0x46 ..//lib/libcircle.a(dmachannel.o)
 .comment       0x00000045       0x46 ..//lib/libcircle.a(koptions.o)
 .comment       0x00000045       0x46 ..//lib/libcircle.a(logger.o)
 .comment       0x00000045       0x46 ..//lib/libcircle.a(machineinfo.o)
 .comment       0x00000045       0x46 ..//lib/libcircle.a(nulldevice.o)
 .comment       0x00000045       0x46 ..//lib/libcircle.a(ptrarray.o)
 .comment       0x00000045       0x46 ..//lib/libcircle.a(ptrlist.o)
 .comment       0x00000045       0x46 ..//lib/libcircle.a(screen.o)
 .comment       0x00000045       0x46 ..//lib/libcircle.a(serial.o)
 .comment       0x00000045       0x46 ..//lib/libcircle.a(string.o)
 .comment       0x00000045       0x46 ..//lib/libcircle.a(sysinit.o)
 .comment       0x00000045       0x46 ..//lib/libcircle.a(timer.o)
 .comment       0x00000045       0x46 ..//lib/libcircle.a(util.o)
 .comment       0x00000045       0x46 ..//lib/libcircle.a(virtualgpiopin.o)
 .comment       0x00000045       0x46 ..//lib/libcircle.a(chainboot.o)
 .comment       0x00000045       0x46 ..//lib/libcircle.a(macaddress.o)
 .comment       0x00000045       0x46 ..//lib/libcircle.a(netdevice.o)
 .comment       0x00000045       0x46 ..//lib/libcircle.a(new.o)
 .comment       0x00000045       0x46 ..//lib/libcircle.a(heapallocator.o)
 .comment       0x00000045       0x46 ..//lib/libcircle.a(pageallocator.o)
 .comment       0x00000045       0x46 ..//lib/libcircle.a(numberpool.o)
 .comment       0x00000045       0x46 ..//lib/libcircle.a(ptrlistfiq.o)
 .comment       0x00000045       0x46 ..//lib/libcircle.a(font8x16.o)
 .comment       0x00000045       0x46 ..//lib/libcircle.a(exceptionhandler.o)
 .comment       0x00000045       0x46 ..//lib/libcircle.a(memory.o)
 .comment       0x00000045       0x46 ..//lib/libcircle.a(pagetable.o)
 .comment       0x00000045       0x46 ..//lib/libcircle.a(synchronize.o)
 .comment       0x00000045       0x46 ..//lib/libcircle.a(bcmrandom.o)
 .comment       0x00000045       0x46 ..//lib/libcircle.a(interrupt.o)
 .comment       0x00000045       0x46 ..//lib/libcircle.a(gpiopin.o)
 .comment       0x00000045       0x46 ..//lib/libcircle.a(usertimer.o)
 .comment       0x00000045       0x46 ..//lib/libcircle.a(cxa_guard.o)
 .comment       0x00000045       0x46 ..//lib/libcircle.a(bcmmailbox.o)
 .comment       0x00000045       0x46 ..//lib/libcircle.a(terminal.o)
 .comment       0x00000045       0x46 ..//lib/libcircle.a(gpiomanager.o)

.ARM.attributes
                0x00000000       0x31
 .ARM.attributes
                0x00000000       0x33 ..//VT100/build/main.o
 .ARM.attributes
                0x00000033       0x33 ..//VT100/build/kernel.o
 .ARM.attributes
                0x00000066       0x33 ..//VT100/build/hal.o
 .ARM.attributes
                0x00000099       0x33 ..//VT100/build/TFontConverter.o
 .ARM.attributes
                0x000000cc       0x33 ..//VT100/build/VT100_FontConverter.o
 .ARM.attributes
                0x000000ff       0x33 ..//VT100/build/TRenderer.o
 .ARM.attributes
                0x00000132       0x33 ..//VT100/build/TConfig.o
 .ARM.attributes
                0x00000165       0x33 ..//VT100/build/TKeyboard.o
 .ARM.attributes
                0x00000198       0x33 ..//VT100/build/TUART.o
 .ARM.attributes
                0x000001cb       0x33 ..//VT100/build/TFileLog.o
 .ARM.attributes
                0x000001fe       0x33 ..//VT100/build/TWlanLog.o
 .ARM.attributes
                0x00000231       0x33 ..//VT100/build/TSetup.o
 .ARM.attributes
                0x00000264       0x33 ..//VT100/build/VTTest.o
 .ARM.attributes
                0x00000297       0x33 ..//addon/wlan/hostap/wpa_supplicant/libwpa_supplicant.a(wpasupplicant.o)
 .ARM.attributes
                0x000002ca       0x33 ..//addon/wlan/hostap/wpa_supplicant/libwpa_supplicant.a(eloop_circle.o)
 .ARM.attributes
                0x000002fd       0x33 ..//addon/wlan/hostap/wpa_supplicant/libwpa_supplicant.a(os_circle.o)
 .ARM.attributes
                0x00000330       0x33 ..//addon/wlan/hostap/wpa_supplicant/libwpa_supplicant.a(main_circle.o)
 .ARM.attributes
                0x00000363       0x33 ..//addon/wlan/hostap/wpa_supplicant/libwpa_supplicant.a(wpa_supplicant.o)
 .ARM.attributes
                0x00000396       0x33 ..//addon/wlan/hostap/wpa_supplicant/libwpa_supplicant.a(wpas_glue.o)
 .ARM.attributes
                0x000003c9       0x33 ..//addon/wlan/hostap/wpa_supplicant/libwpa_supplicant.a(hw_features_common.o)
 .ARM.attributes
                0x000003fc       0x33 ..//addon/wlan/hostap/wpa_supplicant/libwpa_supplicant.a(ieee802_11_common.o)
 .ARM.attributes
                0x0000042f       0x33 ..//addon/wlan/hostap/wpa_supplicant/libwpa_supplicant.a(ptksa_cache.o)
 .ARM.attributes
                0x00000462       0x33 ..//addon/wlan/hostap/wpa_supplicant/libwpa_supplicant.a(wpa_common.o)
 .ARM.attributes
                0x00000495       0x33 ..//addon/wlan/hostap/wpa_supplicant/libwpa_supplicant.a(aes-omac1.o)
 .ARM.attributes
                0x000004c8       0x33 ..//addon/wlan/hostap/wpa_supplicant/libwpa_supplicant.a(md5.o)
 .ARM.attributes
                0x000004fb       0x33 ..//addon/wlan/hostap/wpa_supplicant/libwpa_supplicant.a(sha1-pbkdf2.o)
 .ARM.attributes
                0x0000052e       0x33 ..//addon/wlan/hostap/wpa_supplicant/libwpa_supplicant.a(sha1-prf.o)
 .ARM.attributes
                0x00000561       0x33 ..//addon/wlan/hostap/wpa_supplicant/libwpa_supplicant.a(sha1.o)
 .ARM.attributes
                0x00000594       0x33 ..//addon/wlan/hostap/wpa_supplicant/libwpa_supplicant.a(sha256-prf.o)
 .ARM.attributes
                0x000005c7       0x33 ..//addon/wlan/hostap/wpa_supplicant/libwpa_supplicant.a(sha256.o)
 .ARM.attributes
                0x000005fa       0x33 ..//addon/wlan/hostap/wpa_supplicant/libwpa_supplicant.a(driver_common.o)
 .ARM.attributes
                0x0000062d       0x33 ..//addon/wlan/hostap/wpa_supplicant/libwpa_supplicant.a(drivers.o)
 .ARM.attributes
                0x00000660       0x33 ..//addon/wlan/hostap/wpa_supplicant/libwpa_supplicant.a(eap_methods.o)
 .ARM.attributes
                0x00000693       0x33 ..//addon/wlan/hostap/wpa_supplicant/libwpa_supplicant.a(eapol_supp_sm.o)
 .ARM.attributes
                0x000006c6       0x33 ..//addon/wlan/hostap/wpa_supplicant/libwpa_supplicant.a(l2_packet_circle.o)
 .ARM.attributes
                0x000006f9       0x33 ..//addon/wlan/hostap/wpa_supplicant/libwpa_supplicant.a(pmksa_cache.o)
 .ARM.attributes
                0x0000072c       0x33 ..//addon/wlan/hostap/wpa_supplicant/libwpa_supplicant.a(preauth.o)
 .ARM.attributes
                0x0000075f       0x33 ..//addon/wlan/hostap/wpa_supplicant/libwpa_supplicant.a(wpa.o)
 .ARM.attributes
                0x00000792       0x33 ..//addon/wlan/hostap/wpa_supplicant/libwpa_supplicant.a(wpa_ie.o)
 .ARM.attributes
                0x000007c5       0x33 ..//addon/wlan/hostap/wpa_supplicant/libwpa_supplicant.a(common.o)
 .ARM.attributes
                0x000007f8       0x33 ..//addon/wlan/hostap/wpa_supplicant/libwpa_supplicant.a(wpa_debug_circle.o)
 .ARM.attributes
                0x0000082b       0x33 ..//addon/wlan/hostap/wpa_supplicant/libwpa_supplicant.a(wpabuf.o)
 .ARM.attributes
                0x0000085e       0x33 ..//addon/wlan/hostap/wpa_supplicant/libwpa_supplicant.a(bss.o)
 .ARM.attributes
                0x00000891       0x33 ..//addon/wlan/hostap/wpa_supplicant/libwpa_supplicant.a(bssid_ignore.o)
 .ARM.attributes
                0x000008c4       0x33 ..//addon/wlan/hostap/wpa_supplicant/libwpa_supplicant.a(config.o)
 .ARM.attributes
                0x000008f7       0x33 ..//addon/wlan/hostap/wpa_supplicant/libwpa_supplicant.a(config_file.o)
 .ARM.attributes
                0x0000092a       0x33 ..//addon/wlan/hostap/wpa_supplicant/libwpa_supplicant.a(eap_register.o)
 .ARM.attributes
                0x0000095d       0x33 ..//addon/wlan/hostap/wpa_supplicant/libwpa_supplicant.a(events.o)
 .ARM.attributes
                0x00000990       0x33 ..//addon/wlan/hostap/wpa_supplicant/libwpa_supplicant.a(notify.o)
 .ARM.attributes
                0x000009c3       0x33 ..//addon/wlan/hostap/wpa_supplicant/libwpa_supplicant.a(op_classes.o)
 .ARM.attributes
                0x000009f6       0x33 ..//addon/wlan/hostap/wpa_supplicant/libwpa_supplicant.a(rrm.o)
 .ARM.attributes
                0x00000a29       0x33 ..//addon/wlan/hostap/wpa_supplicant/libwpa_supplicant.a(scan.o)
 .ARM.attributes
                0x00000a5c       0x33 ..//addon/wlan/hostap/wpa_supplicant/libwpa_supplicant.a(aes-internal-enc.o)
 .ARM.attributes
                0x00000a8f       0x33 ..//addon/wlan/hostap/wpa_supplicant/libwpa_supplicant.a(aes-unwrap.o)
 .ARM.attributes
                0x00000ac2       0x33 ..//addon/wlan/hostap/wpa_supplicant/libwpa_supplicant.a(md5-internal.o)
 .ARM.attributes
                0x00000af5       0x33 ..//addon/wlan/hostap/wpa_supplicant/libwpa_supplicant.a(rc4.o)
 .ARM.attributes
                0x00000b28       0x33 ..//addon/wlan/hostap/wpa_supplicant/libwpa_supplicant.a(sha1-internal.o)
 .ARM.attributes
                0x00000b5b       0x33 ..//addon/wlan/hostap/wpa_supplicant/libwpa_supplicant.a(sha256-internal.o)
 .ARM.attributes
                0x00000b8e       0x33 ..//addon/wlan/hostap/wpa_supplicant/libwpa_supplicant.a(driver_circle.o)
 .ARM.attributes
                0x00000bc1       0x33 ..//addon/wlan/hostap/wpa_supplicant/libwpa_supplicant.a(eap.o)
 .ARM.attributes
                0x00000bf4       0x33 ..//addon/wlan/hostap/wpa_supplicant/libwpa_supplicant.a(base64.o)
 .ARM.attributes
                0x00000c27       0x33 ..//addon/wlan/hostap/wpa_supplicant/libwpa_supplicant.a(bitfield.o)
 .ARM.attributes
                0x00000c5a       0x33 ..//addon/wlan/hostap/wpa_supplicant/libwpa_supplicant.a(config.o)
 .ARM.attributes
                0x00000c8d       0x33 ..//addon/wlan/hostap/wpa_supplicant/libwpa_supplicant.a(aes-internal.o)
 .ARM.attributes
                0x00000cc0       0x33 ..//addon/wlan/hostap/wpa_supplicant/libwpa_supplicant.a(aes-internal-dec.o)
 .ARM.attributes
                0x00000cf3       0x33 ..//addon/wlan/hostap/wpa_supplicant/libwpa_supplicant.a(tls_none.o)
 .ARM.attributes
                0x00000d26       0x33 ..//addon/wlan/hostap/wpa_supplicant/libwpa_supplicant.a(eap_common.o)
 .ARM.attributes
                0x00000d59       0x33 ..//addon/wlan/libwlan.a(bcm4343.o)
 .ARM.attributes
                0x00000d8c       0x33 ..//addon/wlan/libwlan.a(ether4330.o)
 .ARM.attributes
                0x00000dbf       0x33 ..//addon/wlan/libwlan.a(emmc.o)
 .ARM.attributes
                0x00000df2       0x33 ..//addon/wlan/libwlan.a(p9arch.o)
 .ARM.attributes
                0x00000e25       0x33 ..//addon/wlan/libwlan.a(p9chan.o)
 .ARM.attributes
                0x00000e58       0x33 ..//addon/wlan/libwlan.a(p9cmd.o)
 .ARM.attributes
                0x00000e8b       0x33 ..//addon/wlan/libwlan.a(p9error.o)
 .ARM.attributes
                0x00000ebe       0x33 ..//addon/wlan/libwlan.a(p9ether.o)
 .ARM.attributes
                0x00000ef1       0x33 ..//addon/wlan/libwlan.a(p9proc.o)
 .ARM.attributes
                0x00000f24       0x33 ..//addon/wlan/libwlan.a(p9util.o)
 .ARM.attributes
                0x00000f57       0x31 ..//lib/usb/libusb.a(usbkeyboard.o)
 .ARM.attributes
                0x00000f88       0x31 ..//lib/usb/libusb.a(dwhcidevice.o)
 .ARM.attributes
                0x00000fb9       0x31 ..//lib/usb/libusb.a(dwhciframeschednper.o)
 .ARM.attributes
                0x00000fea       0x31 ..//lib/usb/libusb.a(dwhciframeschednsplit.o)
 .ARM.attributes
                0x0000101b       0x31 ..//lib/usb/libusb.a(dwhciframeschedper.o)
 .ARM.attributes
                0x0000104c       0x31 ..//lib/usb/libusb.a(dwhcirootport.o)
 .ARM.attributes
                0x0000107d       0x31 ..//lib/usb/libusb.a(dwhcixactqueue.o)
 .ARM.attributes
                0x000010ae       0x31 ..//lib/usb/libusb.a(dwhcixferstagedata.o)
 .ARM.attributes
                0x000010df       0x31 ..//lib/usb/libusb.a(dwhciframeschediso.o)
 .ARM.attributes
                0x00001110       0x31 ..//lib/usb/libusb.a(usbdevice.o)
 .ARM.attributes
                0x00001141       0x31 ..//lib/usb/libusb.a(usbdevicefactory.o)
 .ARM.attributes
                0x00001172       0x31 ..//lib/usb/libusb.a(usbendpoint.o)
 .ARM.attributes
                0x000011a3       0x31 ..//lib/usb/libusb.a(usbfunction.o)
 .ARM.attributes
                0x000011d4       0x31 ..//lib/usb/libusb.a(usbgamepadps3.o)
 .ARM.attributes
                0x00001205       0x31 ..//lib/usb/libusb.a(usbgamepadps4.o)
 .ARM.attributes
                0x00001236       0x31 ..//lib/usb/libusb.a(usbgamepadstandard.o)
 .ARM.attributes
                0x00001267       0x31 ..//lib/usb/libusb.a(usbgamepadswitchpro.o)
 .ARM.attributes
                0x00001298       0x31 ..//lib/usb/libusb.a(usbgamepadxbox360.o)
 .ARM.attributes
                0x000012c9       0x31 ..//lib/usb/libusb.a(usbgamepadxboxone.o)
 .ARM.attributes
                0x000012fa       0x31 ..//lib/usb/libusb.a(usbhiddevice.o)
 .ARM.attributes
                0x0000132b       0x31 ..//lib/usb/libusb.a(usbhostcontroller.o)
 .ARM.attributes
                0x0000135c       0x31 ..//lib/usb/libusb.a(usbmassdevice.o)
 .ARM.attributes
                0x0000138d       0x31 ..//lib/usb/libusb.a(usbmidihost.o)
 .ARM.attributes
                0x000013be       0x31 ..//lib/usb/libusb.a(usbmouse.o)
 .ARM.attributes
                0x000013ef       0x31 ..//lib/usb/libusb.a(usbprinter.o)
 .ARM.attributes
                0x00001420       0x31 ..//lib/usb/libusb.a(usbrequest.o)
 .ARM.attributes
                0x00001451       0x31 ..//lib/usb/libusb.a(usbstandardhub.o)
 .ARM.attributes
                0x00001482       0x31 ..//lib/usb/libusb.a(usbstring.o)
 .ARM.attributes
                0x000014b3       0x31 ..//lib/usb/libusb.a(usbserialch341.o)
 .ARM.attributes
                0x000014e4       0x31 ..//lib/usb/libusb.a(usbserialcp210x.o)
 .ARM.attributes
                0x00001515       0x31 ..//lib/usb/libusb.a(usbserialpl2303.o)
 .ARM.attributes
                0x00001546       0x31 ..//lib/usb/libusb.a(usbserialft231x.o)
 .ARM.attributes
                0x00001577       0x31 ..//lib/usb/libusb.a(usbserialcdc.o)
 .ARM.attributes
                0x000015a8       0x31 ..//lib/usb/libusb.a(usbtouchscreen.o)
 .ARM.attributes
                0x000015d9       0x31 ..//lib/usb/libusb.a(dwhciregister.o)
 .ARM.attributes
                0x0000160a       0x31 ..//lib/usb/libusb.a(lan7800.o)
 .ARM.attributes
                0x0000163b       0x31 ..//lib/usb/libusb.a(smsc951x.o)
 .ARM.attributes
                0x0000166c       0x31 ..//lib/usb/libusb.a(usbbluetooth.o)
 .ARM.attributes
                0x0000169d       0x31 ..//lib/usb/libusb.a(usbcdcethernet.o)
 .ARM.attributes
                0x000016ce       0x31 ..//lib/usb/libusb.a(usbfloppydevice.o)
 .ARM.attributes
                0x000016ff       0x31 ..//lib/usb/libusb.a(usbconfigparser.o)
 .ARM.attributes
                0x00001730       0x31 ..//lib/usb/libusb.a(usbgamepad.o)
 .ARM.attributes
                0x00001761       0x31 ..//lib/usb/libusb.a(usbmidi.o)
 .ARM.attributes
                0x00001792       0x31 ..//lib/usb/libusb.a(usbserialhost.o)
 .ARM.attributes
                0x000017c3       0x31 ..//lib/usb/libusb.a(usbserial.o)
 .ARM.attributes
                0x000017f4       0x33 ..//addon/fatfs/libfatfs.a(ff.o)
 .ARM.attributes
                0x00001827       0x33 ..//addon/fatfs/libfatfs.a(diskio.o)
 .ARM.attributes
                0x0000185a       0x33 ..//addon/fatfs/libfatfs.a(ffsystem.o)
 .ARM.attributes
                0x0000188d       0x33 ..//addon/fatfs/libfatfs.a(ffunicode.o)
 .ARM.attributes
                0x000018c0       0x33 ..//addon/SDCard/libsdcard.a(emmc.o)
 .ARM.attributes
                0x000018f3       0x33 ..//addon/SDCard/libsdcard.a(mmchost.o)
 .ARM.attributes
                0x00001926       0x33 ..//addon/SDCard/libsdcard.a(sdhost.o)
 .ARM.attributes
                0x00001959       0x33 ..//lib/input/libinput.a(keyboardbehaviour.o)
 .ARM.attributes
                0x0000198c       0x33 ..//lib/input/libinput.a(keymap.o)
 .ARM.attributes
                0x000019bf       0x33 ..//lib/input/libinput.a(mouse.o)
 .ARM.attributes
                0x000019f2       0x33 ..//lib/input/libinput.a(touchscreen.o)
 .ARM.attributes
                0x00001a25       0x33 ..//lib/input/libinput.a(mousebehaviour.o)
 .ARM.attributes
                0x00001a58       0x33 ..//lib/fs/libfs.a(partitionmanager.o)
 .ARM.attributes
                0x00001a8b       0x33 ..//lib/fs/libfs.a(partition.o)
 .ARM.attributes
                0x00001abe       0x33 ..//lib/net/libnet.a(netsubsystem.o)
 .ARM.attributes
                0x00001af1       0x33 ..//lib/net/libnet.a(nettask.o)
 .ARM.attributes
                0x00001b24       0x33 ..//lib/net/libnet.a(socket.o)
 .ARM.attributes
                0x00001b57       0x33 ..//lib/net/libnet.a(transportlayer.o)
 .ARM.attributes
                0x00001b8a       0x33 ..//lib/net/libnet.a(networklayer.o)
 .ARM.attributes
                0x00001bbd       0x33 ..//lib/net/libnet.a(linklayer.o)
 .ARM.attributes
                0x00001bf0       0x33 ..//lib/net/libnet.a(netdevlayer.o)
 .ARM.attributes
                0x00001c23       0x33 ..//lib/net/libnet.a(phytask.o)
 .ARM.attributes
                0x00001c56       0x33 ..//lib/net/libnet.a(arphandler.o)
 .ARM.attributes
                0x00001c89       0x33 ..//lib/net/libnet.a(icmphandler.o)
 .ARM.attributes
                0x00001cbc       0x33 ..//lib/net/libnet.a(igmphandler.o)
 .ARM.attributes
                0x00001cef       0x33 ..//lib/net/libnet.a(routecache.o)
 .ARM.attributes
                0x00001d22       0x33 ..//lib/net/libnet.a(netconnection.o)
 .ARM.attributes
                0x00001d55       0x33 ..//lib/net/libnet.a(udpconnection.o)
 .ARM.attributes
                0x00001d88       0x33 ..//lib/net/libnet.a(tcpconnection.o)
 .ARM.attributes
                0x00001dbb       0x33 ..//lib/net/libnet.a(retransmissionqueue.o)
 .ARM.attributes
                0x00001dee       0x33 ..//lib/net/libnet.a(retranstimeoutcalc.o)
 .ARM.attributes
                0x00001e21       0x33 ..//lib/net/libnet.a(tcprejector.o)
 .ARM.attributes
                0x00001e54       0x33 ..//lib/net/libnet.a(netconfig.o)
 .ARM.attributes
                0x00001e87       0x33 ..//lib/net/libnet.a(ipaddress.o)
 .ARM.attributes
                0x00001eba       0x33 ..//lib/net/libnet.a(netqueue.o)
 .ARM.attributes
                0x00001eed       0x33 ..//lib/net/libnet.a(checksumcalculator.o)
 .ARM.attributes
                0x00001f20       0x33 ..//lib/net/libnet.a(dhcpclient.o)
 .ARM.attributes
                0x00001f53       0x33 ..//lib/net/libnet.a(mdnsdaemon.o)
 .ARM.attributes
                0x00001f86       0x33 ..//lib/net/libnet.a(netsocket.o)
 .ARM.attributes
                0x00001fb9       0x33 ..//lib/net/libnet.a(dnsclient.o)
 .ARM.attributes
                0x00001fec       0x33 ..//lib/sched/libsched.a(task.o)
 .ARM.attributes
                0x0000201f       0x33 ..//lib/sched/libsched.a(scheduler.o)
 .ARM.attributes
                0x00002052       0x1f ..//lib/sched/libsched.a(taskswitch.o)
 .ARM.attributes
                0x00002071       0x33 ..//lib/sched/libsched.a(synchronizationevent.o)
 .ARM.attributes
                0x000020a4       0x31 ..//lib/libcircle.a(actled.o)
 .ARM.attributes
                0x000020d5       0x31 ..//lib/libcircle.a(alloc.o)
 .ARM.attributes
                0x00002106       0x31 ..//lib/libcircle.a(assert.o)
 .ARM.attributes
                0x00002137       0x31 ..//lib/libcircle.a(display.o)
 .ARM.attributes
                0x00002168       0x31 ..//lib/libcircle.a(bcmframebuffer.o)
 .ARM.attributes
                0x00002199       0x31 ..//lib/libcircle.a(bcmpropertytags.o)
 .ARM.attributes
                0x000021ca       0x31 ..//lib/libcircle.a(chargenerator.o)
 .ARM.attributes
                0x000021fb       0x31 ..//lib/libcircle.a(classallocator.o)
 .ARM.attributes
                0x0000222c       0x31 ..//lib/libcircle.a(debug.o)
 .ARM.attributes
                0x0000225d       0x31 ..//lib/libcircle.a(device.o)
 .ARM.attributes
                0x0000228e       0x31 ..//lib/libcircle.a(devicenameservice.o)
 .ARM.attributes
                0x000022bf       0x31 ..//lib/libcircle.a(dmachannel.o)
 .ARM.attributes
                0x000022f0       0x31 ..//lib/libcircle.a(koptions.o)
 .ARM.attributes
                0x00002321       0x31 ..//lib/libcircle.a(logger.o)
 .ARM.attributes
                0x00002352       0x31 ..//lib/libcircle.a(machineinfo.o)
 .ARM.attributes
                0x00002383       0x31 ..//lib/libcircle.a(nulldevice.o)
 .ARM.attributes
                0x000023b4       0x31 ..//lib/libcircle.a(ptrarray.o)
 .ARM.attributes
                0x000023e5       0x31 ..//lib/libcircle.a(ptrlist.o)
 .ARM.attributes
                0x00002416       0x31 ..//lib/libcircle.a(screen.o)
 .ARM.attributes
                0x00002447       0x31 ..//lib/libcircle.a(serial.o)
 .ARM.attributes
                0x00002478       0x31 ..//lib/libcircle.a(string.o)
 .ARM.attributes
                0x000024a9       0x31 ..//lib/libcircle.a(sysinit.o)
 .ARM.attributes
                0x000024da       0x31 ..//lib/libcircle.a(timer.o)
 .ARM.attributes
                0x0000250b       0x31 ..//lib/libcircle.a(util.o)
 .ARM.attributes
                0x0000253c       0x1f ..//lib/libcircle.a(util_fast.o)
 .ARM.attributes
                0x0000255b       0x31 ..//lib/libcircle.a(virtualgpiopin.o)
 .ARM.attributes
                0x0000258c       0x31 ..//lib/libcircle.a(chainboot.o)
 .ARM.attributes
                0x000025bd       0x31 ..//lib/libcircle.a(macaddress.o)
 .ARM.attributes
                0x000025ee       0x31 ..//lib/libcircle.a(netdevice.o)
 .ARM.attributes
                0x0000261f       0x31 ..//lib/libcircle.a(new.o)
 .ARM.attributes
                0x00002650       0x31 ..//lib/libcircle.a(heapallocator.o)
 .ARM.attributes
                0x00002681       0x31 ..//lib/libcircle.a(pageallocator.o)
 .ARM.attributes
                0x000026b2       0x1f ..//lib/libcircle.a(setjmp.o)
 .ARM.attributes
                0x000026d1       0x31 ..//lib/libcircle.a(numberpool.o)
 .ARM.attributes
                0x00002702       0x31 ..//lib/libcircle.a(ptrlistfiq.o)
 .ARM.attributes
                0x00002733       0x31 ..//lib/libcircle.a(font8x16.o)
 .ARM.attributes
                0x00002764       0x31 ..//lib/libcircle.a(exceptionhandler.o)
 .ARM.attributes
                0x00002795       0x1f ..//lib/libcircle.a(exceptionstub.o)
 .ARM.attributes
                0x000027b4       0x31 ..//lib/libcircle.a(memory.o)
 .ARM.attributes
                0x000027e5       0x31 ..//lib/libcircle.a(pagetable.o)
 .ARM.attributes
                0x00002816       0x1f ..//lib/libcircle.a(startup.o)
 .ARM.attributes
                0x00002835       0x31 ..//lib/libcircle.a(synchronize.o)
 .ARM.attributes
                0x00002866       0x31 ..//lib/libcircle.a(bcmrandom.o)
 .ARM.attributes
                0x00002897       0x31 ..//lib/libcircle.a(interrupt.o)
 .ARM.attributes
                0x000028c8       0x31 ..//lib/libcircle.a(gpiopin.o)
 .ARM.attributes
                0x000028f9       0x31 ..//lib/libcircle.a(usertimer.o)
 .ARM.attributes
                0x0000292a       0x31 ..//lib/libcircle.a(cxa_guard.o)
 .ARM.attributes
                0x0000295b       0x31 ..//lib/libcircle.a(bcmmailbox.o)
 .ARM.attributes
                0x0000298c       0x1f ..//lib/libcircle.a(delayloop.o)
 .ARM.attributes
                0x000029ab       0x31 ..//lib/libcircle.a(terminal.o)
 .ARM.attributes
                0x000029dc       0x31 ..//lib/libcircle.a(gpiomanager.o)
 .ARM.attributes
                0x00002a0d       0x1f /Applications/ArmGNUToolchain/14.2.rel1/arm-none-eabi/bin/../lib/gcc/arm-none-eabi/14.2.1/arm/v5te/hard/libgcc.a(_udivsi3.o)
 .ARM.attributes
                0x00002a2c       0x1f /Applications/ArmGNUToolchain/14.2.rel1/arm-none-eabi/bin/../lib/gcc/arm-none-eabi/14.2.1/arm/v5te/hard/libgcc.a(_divsi3.o)
 .ARM.attributes
                0x00002a4b       0x1f /Applications/ArmGNUToolchain/14.2.rel1/arm-none-eabi/bin/../lib/gcc/arm-none-eabi/14.2.1/arm/v5te/hard/libgcc.a(_dvmd_tls.o)
 .ARM.attributes
                0x00002a6a       0x1f /Applications/ArmGNUToolchain/14.2.rel1/arm-none-eabi/bin/../lib/gcc/arm-none-eabi/14.2.1/arm/v5te/hard/libgcc.a(_aeabi_uldivmod.o)
 .ARM.attributes
                0x00002a89       0x2f /Applications/ArmGNUToolchain/14.2.rel1/arm-none-eabi/bin/../lib/gcc/arm-none-eabi/14.2.1/arm/v5te/hard/libgcc.a(_udivmoddi4.o)

.debug_frame    0x00000000    0x18534
 .debug_frame   0x00000000       0x28 ..//VT100/build/main.o
 .debug_frame   0x00000028      0x318 ..//VT100/build/kernel.o
 .debug_frame   0x00000340      0x1ec ..//VT100/build/hal.o
 .debug_frame   0x0000052c       0xb4 ..//VT100/build/TFontConverter.o
 .debug_frame   0x000005e0      0x134 ..//VT100/build/VT100_FontConverter.o
 .debug_frame   0x00000714      0x93c ..//VT100/build/TRenderer.o
 .debug_frame   0x00001050      0x560 ..//VT100/build/TConfig.o
 .debug_frame   0x000015b0      0x2d4 ..//VT100/build/TKeyboard.o
 .debug_frame   0x00001884      0x174 ..//VT100/build/TUART.o
 .debug_frame   0x000019f8      0x18c ..//VT100/build/TFileLog.o
 .debug_frame   0x00001b84      0x4bc ..//VT100/build/TWlanLog.o
 .debug_frame   0x00002040      0x570 ..//VT100/build/TSetup.o
 .debug_frame   0x000025b0      0x2f0 ..//VT100/build/VTTest.o
 .debug_frame   0x000028a0       0x98 ..//addon/wlan/hostap/wpa_supplicant/libwpa_supplicant.a(wpasupplicant.o)
 .debug_frame   0x00002938      0x1ac ..//addon/wlan/hostap/wpa_supplicant/libwpa_supplicant.a(eloop_circle.o)
 .debug_frame   0x00002ae4      0x31c ..//addon/wlan/hostap/wpa_supplicant/libwpa_supplicant.a(os_circle.o)
 .debug_frame   0x00002e00       0x44 ..//addon/wlan/hostap/wpa_supplicant/libwpa_supplicant.a(main_circle.o)
 .debug_frame   0x00002e44     0x119c ..//addon/wlan/hostap/wpa_supplicant/libwpa_supplicant.a(wpa_supplicant.o)
 .debug_frame   0x00003fe0      0x55c ..//addon/wlan/hostap/wpa_supplicant/libwpa_supplicant.a(wpas_glue.o)
 .debug_frame   0x0000453c      0x218 ..//addon/wlan/hostap/wpa_supplicant/libwpa_supplicant.a(hw_features_common.o)
 .debug_frame   0x00004754      0x59c ..//addon/wlan/hostap/wpa_supplicant/libwpa_supplicant.a(ieee802_11_common.o)
 .debug_frame   0x00004cf0       0x70 ..//addon/wlan/hostap/wpa_supplicant/libwpa_supplicant.a(ptksa_cache.o)
 .debug_frame   0x00004d60      0x328 ..//addon/wlan/hostap/wpa_supplicant/libwpa_supplicant.a(wpa_common.o)
 .debug_frame   0x00005088       0x98 ..//addon/wlan/hostap/wpa_supplicant/libwpa_supplicant.a(aes-omac1.o)
 .debug_frame   0x00005120       0x58 ..//addon/wlan/hostap/wpa_supplicant/libwpa_supplicant.a(md5.o)
 .debug_frame   0x00005178       0x44 ..//addon/wlan/hostap/wpa_supplicant/libwpa_supplicant.a(sha1-pbkdf2.o)
 .debug_frame   0x000051bc       0x40 ..//addon/wlan/hostap/wpa_supplicant/libwpa_supplicant.a(sha1-prf.o)
 .debug_frame   0x000051fc       0x58 ..//addon/wlan/hostap/wpa_supplicant/libwpa_supplicant.a(sha1.o)
 .debug_frame   0x00005254       0x54 ..//addon/wlan/hostap/wpa_supplicant/libwpa_supplicant.a(sha256-prf.o)
 .debug_frame   0x000052a8       0x58 ..//addon/wlan/hostap/wpa_supplicant/libwpa_supplicant.a(sha256.o)
 .debug_frame   0x00005300       0xdc ..//addon/wlan/hostap/wpa_supplicant/libwpa_supplicant.a(driver_common.o)
 .debug_frame   0x000053dc      0x120 ..//addon/wlan/hostap/wpa_supplicant/libwpa_supplicant.a(eap_methods.o)
 .debug_frame   0x000054fc      0x558 ..//addon/wlan/hostap/wpa_supplicant/libwpa_supplicant.a(eapol_supp_sm.o)
 .debug_frame   0x00005a54      0x128 ..//addon/wlan/hostap/wpa_supplicant/libwpa_supplicant.a(l2_packet_circle.o)
 .debug_frame   0x00005b7c      0x2e8 ..//addon/wlan/hostap/wpa_supplicant/libwpa_supplicant.a(pmksa_cache.o)
 .debug_frame   0x00005e64      0x220 ..//addon/wlan/hostap/wpa_supplicant/libwpa_supplicant.a(preauth.o)
 .debug_frame   0x00006084      0xb30 ..//addon/wlan/hostap/wpa_supplicant/libwpa_supplicant.a(wpa.o)
 .debug_frame   0x00006bb4       0x78 ..//addon/wlan/hostap/wpa_supplicant/libwpa_supplicant.a(wpa_ie.o)
 .debug_frame   0x00006c2c      0x5a8 ..//addon/wlan/hostap/wpa_supplicant/libwpa_supplicant.a(common.o)
 .debug_frame   0x000071d4      0x148 ..//addon/wlan/hostap/wpa_supplicant/libwpa_supplicant.a(wpa_debug_circle.o)
 .debug_frame   0x0000731c      0x1e4 ..//addon/wlan/hostap/wpa_supplicant/libwpa_supplicant.a(wpabuf.o)
 .debug_frame   0x00007500      0x418 ..//addon/wlan/hostap/wpa_supplicant/libwpa_supplicant.a(bss.o)
 .debug_frame   0x00007918      0x108 ..//addon/wlan/hostap/wpa_supplicant/libwpa_supplicant.a(bssid_ignore.o)
 .debug_frame   0x00007a20      0xa88 ..//addon/wlan/hostap/wpa_supplicant/libwpa_supplicant.a(config.o)
 .debug_frame   0x000084a8       0x5c ..//addon/wlan/hostap/wpa_supplicant/libwpa_supplicant.a(config_file.o)
 .debug_frame   0x00008504       0x20 ..//addon/wlan/hostap/wpa_supplicant/libwpa_supplicant.a(eap_register.o)
 .debug_frame   0x00008524      0x764 ..//addon/wlan/hostap/wpa_supplicant/libwpa_supplicant.a(events.o)
 .debug_frame   0x00008c88      0x474 ..//addon/wlan/hostap/wpa_supplicant/libwpa_supplicant.a(notify.o)
 .debug_frame   0x000090fc      0x138 ..//addon/wlan/hostap/wpa_supplicant/libwpa_supplicant.a(op_classes.o)
 .debug_frame   0x00009234      0x358 ..//addon/wlan/hostap/wpa_supplicant/libwpa_supplicant.a(rrm.o)
 .debug_frame   0x0000958c      0x780 ..//addon/wlan/hostap/wpa_supplicant/libwpa_supplicant.a(scan.o)
 .debug_frame   0x00009d0c       0x78 ..//addon/wlan/hostap/wpa_supplicant/libwpa_supplicant.a(aes-internal-enc.o)
 .debug_frame   0x00009d84       0x44 ..//addon/wlan/hostap/wpa_supplicant/libwpa_supplicant.a(aes-unwrap.o)
 .debug_frame   0x00009dc8       0xe8 ..//addon/wlan/hostap/wpa_supplicant/libwpa_supplicant.a(md5-internal.o)
 .debug_frame   0x00009eb0       0x3c ..//addon/wlan/hostap/wpa_supplicant/libwpa_supplicant.a(rc4.o)
 .debug_frame   0x00009eec       0xd8 ..//addon/wlan/hostap/wpa_supplicant/libwpa_supplicant.a(sha1-internal.o)
 .debug_frame   0x00009fc4       0xec ..//addon/wlan/hostap/wpa_supplicant/libwpa_supplicant.a(sha256-internal.o)
 .debug_frame   0x0000a0b0      0x1c8 ..//addon/wlan/hostap/wpa_supplicant/libwpa_supplicant.a(driver_circle.o)
 .debug_frame   0x0000a278      0x68c ..//addon/wlan/hostap/wpa_supplicant/libwpa_supplicant.a(eap.o)
 .debug_frame   0x0000a904       0xf0 ..//addon/wlan/hostap/wpa_supplicant/libwpa_supplicant.a(base64.o)
 .debug_frame   0x0000a9f4       0x80 ..//addon/wlan/hostap/wpa_supplicant/libwpa_supplicant.a(bitfield.o)
 .debug_frame   0x0000aa74       0x40 ..//addon/wlan/hostap/wpa_supplicant/libwpa_supplicant.a(config.o)
 .debug_frame   0x0000aab4       0x38 ..//addon/wlan/hostap/wpa_supplicant/libwpa_supplicant.a(aes-internal.o)
 .debug_frame   0x0000aaec       0x80 ..//addon/wlan/hostap/wpa_supplicant/libwpa_supplicant.a(aes-internal-dec.o)
 .debug_frame   0x0000ab6c      0x220 ..//addon/wlan/hostap/wpa_supplicant/libwpa_supplicant.a(tls_none.o)
 .debug_frame   0x0000ad8c       0xa4 ..//addon/wlan/hostap/wpa_supplicant/libwpa_supplicant.a(eap_common.o)
 .debug_frame   0x0000ae30      0x2f0 ..//addon/wlan/libwlan.a(bcm4343.o)
 .debug_frame   0x0000b120      0x53c ..//addon/wlan/libwlan.a(ether4330.o)
 .debug_frame   0x0000b65c      0x15c ..//addon/wlan/libwlan.a(emmc.o)
 .debug_frame   0x0000b7b8      0x188 ..//addon/wlan/libwlan.a(p9arch.o)
 .debug_frame   0x0000b940       0x9c ..//addon/wlan/libwlan.a(p9chan.o)
 .debug_frame   0x0000b9dc       0x94 ..//addon/wlan/libwlan.a(p9cmd.o)
 .debug_frame   0x0000ba70       0x80 ..//addon/wlan/libwlan.a(p9error.o)
 .debug_frame   0x0000baf0       0xdc ..//addon/wlan/libwlan.a(p9ether.o)
 .debug_frame   0x0000bbcc      0x188 ..//addon/wlan/libwlan.a(p9proc.o)
 .debug_frame   0x0000bd54      0x120 ..//addon/wlan/libwlan.a(p9util.o)
 .debug_frame   0x0000be74      0x1bc ..//lib/usb/libusb.a(usbkeyboard.o)
 .debug_frame   0x0000c030      0x684 ..//lib/usb/libusb.a(dwhcidevice.o)
 .debug_frame   0x0000c6b4      0x17c ..//lib/usb/libusb.a(dwhciframeschednper.o)
 .debug_frame   0x0000c830      0x174 ..//lib/usb/libusb.a(dwhciframeschednsplit.o)
 .debug_frame   0x0000c9a4      0x18c ..//lib/usb/libusb.a(dwhciframeschedper.o)
 .debug_frame   0x0000cb30       0xd4 ..//lib/usb/libusb.a(dwhcirootport.o)
 .debug_frame   0x0000cc04      0x194 ..//lib/usb/libusb.a(dwhcixactqueue.o)
 .debug_frame   0x0000cd98      0x3bc ..//lib/usb/libusb.a(dwhcixferstagedata.o)
 .debug_frame   0x0000d154      0x18c ..//lib/usb/libusb.a(dwhciframeschediso.o)
 .debug_frame   0x0000d2e0      0x2d0 ..//lib/usb/libusb.a(usbdevice.o)
 .debug_frame   0x0000d5b0       0x98 ..//lib/usb/libusb.a(usbdevicefactory.o)
 .debug_frame   0x0000d648      0x11c ..//lib/usb/libusb.a(usbendpoint.o)
 .debug_frame   0x0000d764      0x238 ..//lib/usb/libusb.a(usbfunction.o)
 .debug_frame   0x0000d99c      0x154 ..//lib/usb/libusb.a(usbgamepadps3.o)
 .debug_frame   0x0000daf0      0x16c ..//lib/usb/libusb.a(usbgamepadps4.o)
 .debug_frame   0x0000dc5c      0x12c ..//lib/usb/libusb.a(usbgamepadstandard.o)
 .debug_frame   0x0000dd88      0x12c ..//lib/usb/libusb.a(usbgamepadswitchpro.o)
 .debug_frame   0x0000deb4      0x12c ..//lib/usb/libusb.a(usbgamepadxbox360.o)
 .debug_frame   0x0000dfe0      0x120 ..//lib/usb/libusb.a(usbgamepadxboxone.o)
 .debug_frame   0x0000e100      0x1d0 ..//lib/usb/libusb.a(usbhiddevice.o)
 .debug_frame   0x0000e2d0      0x1bc ..//lib/usb/libusb.a(usbhostcontroller.o)
 .debug_frame   0x0000e48c      0x1c4 ..//lib/usb/libusb.a(usbmassdevice.o)
 .debug_frame   0x0000e650      0x16c ..//lib/usb/libusb.a(usbmidihost.o)
 .debug_frame   0x0000e7bc      0x12c ..//lib/usb/libusb.a(usbmouse.o)
 .debug_frame   0x0000e8e8       0xc8 ..//lib/usb/libusb.a(usbprinter.o)
 .debug_frame   0x0000e9b0      0x230 ..//lib/usb/libusb.a(usbrequest.o)
 .debug_frame   0x0000ebe0      0x210 ..//lib/usb/libusb.a(usbstandardhub.o)
 .debug_frame   0x0000edf0       0xd8 ..//lib/usb/libusb.a(usbstring.o)
 .debug_frame   0x0000eec8       0xf4 ..//lib/usb/libusb.a(usbserialch341.o)
 .debug_frame   0x0000efbc       0xf8 ..//lib/usb/libusb.a(usbserialcp210x.o)
 .debug_frame   0x0000f0b4      0x104 ..//lib/usb/libusb.a(usbserialpl2303.o)
 .debug_frame   0x0000f1b8       0xf0 ..//lib/usb/libusb.a(usbserialft231x.o)
 .debug_frame   0x0000f2a8       0xd8 ..//lib/usb/libusb.a(usbserialcdc.o)
 .debug_frame   0x0000f380       0xfc ..//lib/usb/libusb.a(usbtouchscreen.o)
 .debug_frame   0x0000f47c      0x14c ..//lib/usb/libusb.a(dwhciregister.o)
 .debug_frame   0x0000f5c8      0x39c ..//lib/usb/libusb.a(lan7800.o)
 .debug_frame   0x0000f964      0x3f4 ..//lib/usb/libusb.a(smsc951x.o)
 .debug_frame   0x0000fd58      0x160 ..//lib/usb/libusb.a(usbbluetooth.o)
 .debug_frame   0x0000feb8      0x208 ..//lib/usb/libusb.a(usbcdcethernet.o)
 .debug_frame   0x000100c0      0x210 ..//lib/usb/libusb.a(usbfloppydevice.o)
 .debug_frame   0x000102d0       0xc0 ..//lib/usb/libusb.a(usbconfigparser.o)
 .debug_frame   0x00010390      0x130 ..//lib/usb/libusb.a(usbgamepad.o)
 .debug_frame   0x000104c0      0x190 ..//lib/usb/libusb.a(usbmidi.o)
 .debug_frame   0x00010650      0x1a0 ..//lib/usb/libusb.a(usbserialhost.o)
 .debug_frame   0x000107f0      0x184 ..//lib/usb/libusb.a(usbserial.o)
 .debug_frame   0x00010974      0x860 ..//addon/fatfs/libfatfs.a(ff.o)
 .debug_frame   0x000111d4       0xe0 ..//addon/fatfs/libfatfs.a(diskio.o)
 .debug_frame   0x000112b4       0xc4 ..//addon/fatfs/libfatfs.a(ffsystem.o)
 .debug_frame   0x00011378       0x4c ..//addon/fatfs/libfatfs.a(ffunicode.o)
 .debug_frame   0x000113c4      0x2a8 ..//addon/SDCard/libsdcard.a(emmc.o)
 .debug_frame   0x0001166c      0x12c ..//addon/SDCard/libsdcard.a(mmchost.o)
 .debug_frame   0x00011798      0x5d8 ..//addon/SDCard/libsdcard.a(sdhost.o)
 .debug_frame   0x00011d70      0x150 ..//lib/input/libinput.a(keyboardbehaviour.o)
 .debug_frame   0x00011ec0       0xd0 ..//lib/input/libinput.a(keymap.o)
 .debug_frame   0x00011f90      0x17c ..//lib/input/libinput.a(mouse.o)
 .debug_frame   0x0001210c      0x120 ..//lib/input/libinput.a(touchscreen.o)
 .debug_frame   0x0001222c      0x144 ..//lib/input/libinput.a(mousebehaviour.o)
 .debug_frame   0x00012370       0x88 ..//lib/fs/libfs.a(partitionmanager.o)
 .debug_frame   0x000123f8       0xc4 ..//lib/fs/libfs.a(partition.o)
 .debug_frame   0x000124bc      0x128 ..//lib/net/libnet.a(netsubsystem.o)
 .debug_frame   0x000125e4       0x74 ..//lib/net/libnet.a(nettask.o)
 .debug_frame   0x00012658      0x214 ..//lib/net/libnet.a(socket.o)
 .debug_frame   0x0001286c      0x400 ..//lib/net/libnet.a(transportlayer.o)
 .debug_frame   0x00012c6c      0x204 ..//lib/net/libnet.a(networklayer.o)
 .debug_frame   0x00012e70      0x20c ..//lib/net/libnet.a(linklayer.o)
 .debug_frame   0x0001307c      0x148 ..//lib/net/libnet.a(netdevlayer.o)
 .debug_frame   0x000131c4       0x88 ..//lib/net/libnet.a(phytask.o)
 .debug_frame   0x0001324c      0x17c ..//lib/net/libnet.a(arphandler.o)
 .debug_frame   0x000133c8       0xbc ..//lib/net/libnet.a(icmphandler.o)
 .debug_frame   0x00013484      0x108 ..//lib/net/libnet.a(igmphandler.o)
 .debug_frame   0x0001358c       0xb0 ..//lib/net/libnet.a(routecache.o)
 .debug_frame   0x0001363c       0xe8 ..//lib/net/libnet.a(netconnection.o)
 .debug_frame   0x00013724      0x258 ..//lib/net/libnet.a(udpconnection.o)
 .debug_frame   0x0001397c      0x3e8 ..//lib/net/libnet.a(tcpconnection.o)
 .debug_frame   0x00013d64       0xf8 ..//lib/net/libnet.a(retransmissionqueue.o)
 .debug_frame   0x00013e5c       0xdc ..//lib/net/libnet.a(retranstimeoutcalc.o)
 .debug_frame   0x00013f38      0x190 ..//lib/net/libnet.a(tcprejector.o)
 .debug_frame   0x000140c8      0x1c4 ..//lib/net/libnet.a(netconfig.o)
 .debug_frame   0x0001428c      0x25c ..//lib/net/libnet.a(ipaddress.o)
 .debug_frame   0x000144e8       0xb0 ..//lib/net/libnet.a(netqueue.o)
 .debug_frame   0x00014598       0xd8 ..//lib/net/libnet.a(checksumcalculator.o)
 .debug_frame   0x00014670      0x280 ..//lib/net/libnet.a(dhcpclient.o)
 .debug_frame   0x000148f0      0x1a8 ..//lib/net/libnet.a(mdnsdaemon.o)
 .debug_frame   0x00014a98      0x110 ..//lib/net/libnet.a(netsocket.o)
 .debug_frame   0x00014ba8       0x9c ..//lib/net/libnet.a(dnsclient.o)
 .debug_frame   0x00014c44      0x148 ..//lib/sched/libsched.a(task.o)
 .debug_frame   0x00014d8c      0x294 ..//lib/sched/libsched.a(scheduler.o)
 .debug_frame   0x00015020       0xd8 ..//lib/sched/libsched.a(synchronizationevent.o)
 .debug_frame   0x000150f8       0x90 ..//lib/libcircle.a(actled.o)
 .debug_frame   0x00015188       0x94 ..//lib/libcircle.a(alloc.o)
 .debug_frame   0x0001521c       0x2c ..//lib/libcircle.a(assert.o)
 .debug_frame   0x00015248       0x70 ..//lib/libcircle.a(display.o)
 .debug_frame   0x000152b8      0x230 ..//lib/libcircle.a(bcmframebuffer.o)
 .debug_frame   0x000154e8       0x7c ..//lib/libcircle.a(bcmpropertytags.o)
 .debug_frame   0x00015564       0x48 ..//lib/libcircle.a(chargenerator.o)
 .debug_frame   0x000155ac       0xec ..//lib/libcircle.a(classallocator.o)
 .debug_frame   0x00015698       0x60 ..//lib/libcircle.a(debug.o)
 .debug_frame   0x000156f8       0xf8 ..//lib/libcircle.a(device.o)
 .debug_frame   0x000157f0      0x1bc ..//lib/libcircle.a(devicenameservice.o)
 .debug_frame   0x000159ac      0x1ac ..//lib/libcircle.a(dmachannel.o)
 .debug_frame   0x00015b58      0x20c ..//lib/libcircle.a(koptions.o)
 .debug_frame   0x00015d64      0x1c0 ..//lib/libcircle.a(logger.o)
 .debug_frame   0x00015f24      0x1a8 ..//lib/libcircle.a(machineinfo.o)
 .debug_frame   0x000160cc       0x78 ..//lib/libcircle.a(nulldevice.o)
 .debug_frame   0x00016144       0xb4 ..//lib/libcircle.a(ptrarray.o)
 .debug_frame   0x000161f8       0xe8 ..//lib/libcircle.a(ptrlist.o)
 .debug_frame   0x000162e0      0x174 ..//lib/libcircle.a(screen.o)
 .debug_frame   0x00016454      0x26c ..//lib/libcircle.a(serial.o)
 .debug_frame   0x000166c0      0x374 ..//lib/libcircle.a(string.o)
 .debug_frame   0x00016a34       0x94 ..//lib/libcircle.a(sysinit.o)
 .debug_frame   0x00016ac8      0x2f4 ..//lib/libcircle.a(timer.o)
 .debug_frame   0x00016dbc      0x19c ..//lib/libcircle.a(util.o)
 .debug_frame   0x00016f58       0xb8 ..//lib/libcircle.a(virtualgpiopin.o)
 .debug_frame   0x00017010       0x58 ..//lib/libcircle.a(chainboot.o)
 .debug_frame   0x00017068      0x158 ..//lib/libcircle.a(macaddress.o)
 .debug_frame   0x000171c0       0x74 ..//lib/libcircle.a(netdevice.o)
 .debug_frame   0x00017234       0xb0 ..//lib/libcircle.a(new.o)
 .debug_frame   0x000172e4       0xd0 ..//lib/libcircle.a(heapallocator.o)
 .debug_frame   0x000173b4       0xa0 ..//lib/libcircle.a(pageallocator.o)
 .debug_frame   0x00017454       0x70 ..//lib/libcircle.a(numberpool.o)
 .debug_frame   0x000174c4      0x18c ..//lib/libcircle.a(ptrlistfiq.o)
 .debug_frame   0x00017650      0x10c ..//lib/libcircle.a(exceptionhandler.o)
 .debug_frame   0x0001775c       0xc0 ..//lib/libcircle.a(memory.o)
 .debug_frame   0x0001781c       0x50 ..//lib/libcircle.a(pagetable.o)
 .debug_frame   0x0001786c       0x70 ..//lib/libcircle.a(synchronize.o)
 .debug_frame   0x000178dc       0x68 ..//lib/libcircle.a(bcmrandom.o)
 .debug_frame   0x00017944      0x190 ..//lib/libcircle.a(interrupt.o)
 .debug_frame   0x00017ad4      0x2e0 ..//lib/libcircle.a(gpiopin.o)
 .debug_frame   0x00017db4       0xa8 ..//lib/libcircle.a(usertimer.o)
 .debug_frame   0x00017e5c       0x38 ..//lib/libcircle.a(cxa_guard.o)
 .debug_frame   0x00017e94       0xac ..//lib/libcircle.a(bcmmailbox.o)
 .debug_frame   0x00017f40      0x4a0 ..//lib/libcircle.a(terminal.o)
 .debug_frame   0x000183e0       0xb4 ..//lib/libcircle.a(gpiomanager.o)
 .debug_frame   0x00018494       0x20 /Applications/ArmGNUToolchain/14.2.rel1/arm-none-eabi/bin/../lib/gcc/arm-none-eabi/14.2.1/arm/v5te/hard/libgcc.a(_udivsi3.o)
 .debug_frame   0x000184b4       0x20 /Applications/ArmGNUToolchain/14.2.rel1/arm-none-eabi/bin/../lib/gcc/arm-none-eabi/14.2.1/arm/v5te/hard/libgcc.a(_divsi3.o)
 .debug_frame   0x000184d4       0x2c /Applications/ArmGNUToolchain/14.2.rel1/arm-none-eabi/bin/../lib/gcc/arm-none-eabi/14.2.1/arm/v5te/hard/libgcc.a(_aeabi_uldivmod.o)
 .debug_frame   0x00018500       0x34 /Applications/ArmGNUToolchain/14.2.rel1/arm-none-eabi/bin/../lib/gcc/arm-none-eabi/14.2.1/arm/v5te/hard/libgcc.a(_udivmoddi4.o)

.debug_line_str
                0x00000000       0xd8
 .debug_line_str
                0x00000000       0xd8 /Applications/ArmGNUToolchain/14.2.rel1/arm-none-eabi/bin/../lib/gcc/arm-none-eabi/14.2.1/arm/v5te/hard/libgcc.a(_udivsi3.o)
                                 0xd0 (size before relaxing)
 .debug_line_str
                0x000000d8       0xd0 /Applications/ArmGNUToolchain/14.2.rel1/arm-none-eabi/bin/../lib/gcc/arm-none-eabi/14.2.1/arm/v5te/hard/libgcc.a(_divsi3.o)
 .debug_line_str
                0x000000d8       0xd0 /Applications/ArmGNUToolchain/14.2.rel1/arm-none-eabi/bin/../lib/gcc/arm-none-eabi/14.2.1/arm/v5te/hard/libgcc.a(_dvmd_tls.o)
 .debug_line_str
                0x000000d8       0xcc /Applications/ArmGNUToolchain/14.2.rel1/arm-none-eabi/bin/../lib/gcc/arm-none-eabi/14.2.1/arm/v5te/hard/libgcc.a(_aeabi_uldivmod.o)
